         U abort
         U access
0018cba0 T adler32
0018cbb0 T adler32_combine
0018cc60 T adler32_combine64
0018c680 T adler32_z
00135044 T align_alloc
00135054 T align_free
         U __assert_fail
         U atoi
00135796 T AutoResetEvent_Create
001357ac T AutoResetEvent_CreateNotSignaled
001351d5 T BigAlloc
001353bd T BigFree
         U bindtextdomain
         U bind_textdomain_codeset
002bd108 B __bss_start
         U btowc
         U calloc
         U chdir
         U chmod
         U clock
         U close
         U closedir
00131c5b T CompareFileTime
0018771f T ConvertUTF16toUTF32
0018784a T ConvertUTF16toUTF8
001875d8 T ConvertUTF32toUTF16
00187e6d T ConvertUTF32toUTF8
00187c17 T ConvertUTF8toUTF16
0018800c T ConvertUTF8toUTF32
00183543 T copy_file
00181bae T CPU_Is_InOrder
0018d1f0 T crc32
0018d210 T crc32_combine
0018d230 T crc32_combine64
0018d1d0 T crc32_z
0018190d T CrcCalc
0018195a T CrcGenerateTable
001818ef T CrcUpdate
0018192b T CrcUpdateT1
001819f1 T CrcUpdateT4
00181aa4 T CrcUpdateT8
0013575c T CriticalSection_Init
         U __ctype_b_loc
         U __ctype_get_mb_cur_max
         U __ctype_tolower_loc
         U __ctype_toupper_loc
0018f990 T __cxa_allocate_dependent_exception
0018f8a0 T __cxa_allocate_exception
         U __cxa_atexit
00214430 T __cxa_bad_cast
00214470 T __cxa_bad_typeid
0018fb20 T __cxa_begin_catch
0018e840 T __cxa_call_terminate
0018e730 T __cxa_call_unexpected
00235a60 T __cxa_current_exception_type
0018fab0 T __cxa_deleted_virtual
002354a0 T __cxa_demangle
0018fbb0 T __cxa_end_catch
         w __cxa_finalize
0018fa10 T __cxa_free_dependent_exception
0018f920 T __cxa_free_exception
0018fb10 T __cxa_get_exception_ptr
00190320 T __cxa_get_globals
00190300 T __cxa_get_globals_fast
00214730 T __cxa_guard_abort
00214610 T __cxa_guard_acquire
002147b0 T __cxa_guard_release
0018fa80 T __cxa_pure_virtual
001901b0 T __cxa_rethrow
00190130 T __cxa_throw
002144b0 T __cxa_throw_bad_array_new_length
         U dgettext
         U __divdi3
         U dlclose
         U dlerror
         U dlopen
         U dlsym
00134856 T DosDateTimeToFileTime
         U __duplocale
002144f0 T __dynamic_cast
002bd108 D _edata
002bcd3c D encoding_descriptor
002c2a08 B _end
         U endmntent
         U __errno_location
001355eb T Event_Close
001354ee T Event_Create
0013556b T Event_Reset
00135534 T Event_Set
00135597 T Event_Wait
         U exit
         U fclose
         U fdopen
         U feof
         U fflush
         U fgetc
         U fgets
         U fileno
00134932 T FileTimeToDosDateTime
001349ea T FileTimeToLocalFileTime
00134a2d T FileTimeToSystemTime
00235b64 T _fini
         U fopen
         U fopen64
         U fprintf
         U __fprintf_chk
         U fputc
         U fputs
         U fread
         U free
         U __freelocale
         U fseek
         U fseeko64
         U ftell
         U ftello64
         U ftruncate64
         U fwrite
         U __fxstat
         U __fxstat64
002bcd4c D g_Alloc
002bcfdc D g_BenchCpuFreqTemp
002bcd44 D g_BigAlloc
002bcfd4 D g_CaseSensitive
00235650 T __gcclibcxx_demangle_callback
002be980 B g_Codecs
002bcfd0 D g_CodePage
002c0a00 B g_CrcTable
002c09e0 B g_CrcUpdate
002c2a00 B g_CrcUpdateT4
002c2a04 B g_CrcUpdateT8
002bd2a0 B g_ErrStream
         U getc
0018d1c0 T get_crc_table
         U getcwd
         U getenv
         U getmntent
         U getpagesize
         U getpass
         U getpid
00134c28 T GetSystemTime
00134eee T GetSystemTimeAsFileTime
         U gettext
00134f66 T GetTickCount
         U gettimeofday
         U getwc
002bcfd8 D g_filedir
002be920 B g_Hashers
002be2e0 B g_LargePageSize
002bcd40 D global_use_lstat
002bd2d8 B global_use_utf16_conversion
         w __gmon_start__
         U gmtime
002bea80 B g_NumCodecs
002be960 B g_NumHashers
002bd2c8 B g_StdErr
002bd2c0 B g_StdIn
002bd2d0 B g_StdOut
002bd2a4 B g_StdStream
0018e110 T __gxx_personality_v0
         U iconv
         U iconv_close
         U iconv_open
0023aea0 R IID_IArchiveAllowTail
0023af90 R IID_IArchiveExtractCallback
0023af80 R IID_IArchiveExtractCallbackMessage
0023af30 R IID_IArchiveGetRawProps
0023af20 R IID_IArchiveGetRootProps
0023aeb0 R IID_IArchiveKeepModeForNextOpen
0023afa0 R IID_IArchiveOpenCallback
0023af10 R IID_IArchiveOpenSeq
0023af50 R IID_IArchiveOpenSetSubArchiveName
0023af70 R IID_IArchiveOpenVolumeCallback
0023af00 R IID_IArchiveUpdateCallback
0023aef0 R IID_IArchiveUpdateCallback2
0023aee0 R IID_IArchiveUpdateCallbackFile
0023ad60 R IID_ICompressCodecsInfo
0023ae60 R IID_ICompressCoder
0023ae50 R IID_ICompressCoder2
0023ad70 R IID_ICompressFilter
0023ae10 R IID_ICompressGetInStreamProcessedSize
0023ade0 R IID_ICompressGetSubStreamSize
0023ad90 R IID_ICompressInitEncoder
0023ae70 R IID_ICompressProgressInfo
0023ada0 R IID_ICompressSetBufSize
0023ae00 R IID_ICompressSetCoderMt
0023ae40 R IID_ICompressSetCoderProperties
0023ae30 R IID_ICompressSetDecoderProperties2
0023adf0 R IID_ICompressSetFinishMode
0023add0 R IID_ICompressSetInStream
0023ad80 R IID_ICompressSetInStream2
0023adc0 R IID_ICompressSetOutStream
0023adb0 R IID_ICompressSetOutStreamSize
0023ae20 R IID_ICompressWriteCoderProperties
0023ae90 R IID_ICryptoGetTextPassword
0023ae80 R IID_ICryptoGetTextPassword2
0023ad40 R IID_ICryptoProperties
0023ad30 R IID_ICryptoResetInitVector
0023ad10 R IID_ICryptoSetCRC
0023ad20 R IID_ICryptoSetPassword
0023ace0 R IID_IFolderArchiveExtractCallback
0023acd0 R IID_IFolderArchiveExtractCallback2
0023acb0 R IID_IFolderExtractToStreamCallback
0023acc0 R IID_IGetProp
0023ad00 R IID_IHasher
0023acf0 R IID_IHashers
0023af40 R IID_IInArchive
0023af60 R IID_IInArchiveGetStream
0023b000 R IID_IInStream
0023aed0 R IID_IOutArchive
0023aff0 R IID_IOutStream
0023afd0 R IID_IOutStreamFinish
0023b030 R IID_IProgress
0023b020 R IID_ISequentialInStream
0023b010 R IID_ISequentialOutStream
0023ad50 R IID_ISetCompressCodecsInfo
0023aec0 R IID_ISetProperties
0023afc0 R IID_IStreamGetProps
0023afb0 R IID_IStreamGetProps2
0023afe0 R IID_IStreamGetSize
0023b040 R IID_IUnknown
00188980 T inflate
0018b990 T inflateCodesUsed
0018b610 T inflateCopy
00242000 R inflate_copyright
0018af00 T inflateEnd
0018af90 T inflateGetDictionary
0018b230 T inflateGetHeader
00188730 T inflateInit_
00188540 T inflateInit2_
0018b900 T inflateMark
001888e0 T inflatePrime
001882b0 T inflateReset
001883a0 T inflateReset2
001881e0 T inflateResetKeep
0018b040 T inflateSetDictionary
0018b2a0 T inflateSync
0018b5a0 T inflateSyncPoint
0018b810 T inflateUndermine
0018b880 T inflateValidate
000e665c T _init
00123172 T InstallerExtract
00123087 T InstallerTypeDetect
         U ioctl
         U isatty
00187bd0 T isLegalUTF8Sequence
00124c04 T IsPackedBy7z
         U __iswctype_l
         w _ITM_deregisterTMCloneTable
         w _ITM_registerTMCloneTable
         w _Jv_RegisterClasses
0023ef20 R k7z_PROPID_To_VARTYPE
001350d8 T largePageMinimum
00134be7 T LocalFileTimeToFileTime
         U localtime
         U lseek64
         U __lxstat
         U __lxstat64
00123340 T main
00122dda T main2
         U malloc
0013576e T ManualResetEvent_Create
00135784 T ManualResetEvent_CreateNotSignaled
         U mbrtowc
         U mbsnrtowcs
         U mbsrtowcs
         U mbstowcs
         U __mbstowcs_chk
001867fb T MD5Final
0018669c T MD5Init
001866de T MD5Update
         U memchr
         U memcmp
         U memcpy
         U __memcpy_chk
         U memmove
         U memset
         U __memset_chk
001350a4 T MidAlloc
001350c4 T MidFree
         U mkdir
         U mkstemp64
         U mktime
         U mmap
         U mmap64
         U __moddi3
         U munmap
00135064 T MyAlloc
00135094 T MyFree
         U __newlocale
         U __nl_langinfo_l
         U open
         U open64
         U opendir
         U optarg
         U optind
         U pathconf
         U poll
         U __posix_getopt
         U printf
         U __printf_chk
         U pthread_attr_destroy
         U pthread_attr_init
         U pthread_attr_setdetachstate
         U pthread_cond_broadcast
         U pthread_cond_destroy
         U pthread_cond_init
         w pthread_cond_signal
         U pthread_cond_wait
         U pthread_create
         U pthread_detach
         w pthread_getspecific
         U pthread_join
         w __pthread_key_create
         w pthread_key_create
         w pthread_key_delete
         U pthread_mutex_destroy
         U pthread_mutex_init
         U pthread_mutex_lock
         U pthread_mutex_unlock
         w pthread_once
         w pthread_setspecific
         U putc
         U putenv
         U puts
         U putwc
         U read
         U readdir
         U readdir64
         U readlink
         U realloc
         U realpath
         U remove
         U rename
         U rmdir
00135725 T Semaphore_Close
00135622 T Semaphore_Create
00135661 T Semaphore_ReleaseN
001356d6 T Semaphore_Wait
001351b9 T SetLargePageSize
         U setlocale
         U setmntent
         U setvbuf
         U signal
         U snprintf
         U __snprintf_chk
         U sprintf
         U __sprintf_chk
         U sscanf
         U __stack_chk_fail
         U stderr
         U stdin
         U stdout
         U strcasecmp
         U strcat
         U strcmp
         U __strcoll_l
         U strcpy
         U __strcpy_chk
         U strdup
         U strerror
         U __strftime_l
         U strlen
         U strncmp
         U strncpy
         U strrchr
         U strstr
         U __strtod_l
         U __strtof_l
         U strtold_l
         U strtoul
         U __strxfrm_l
         U symlink
00131aff T SysAllocString
00131a47 T SysAllocStringByteLen
00131a9b T SysAllocStringLen
         U syscall
         U sysconf
00131b71 T SysFreeString
00131b8f T SysStringByteLen
00131ba1 T SysStringLen
00134cb1 T SystemTimeToFileTime
001354bc T Thread_Close
001353e1 T Thread_Create
0013546d T Thread_Wait
         U time
         U timegm
         U ___tls_get_addr
         U tmpfile
         U tolower
         U toupper
         U __towlower_l
         U towupper
         U __towupper_l
         U __udivdi3
         U umask
         U __umoddi3
         U ungetc
         U ungetwc
         U unlink
00124c14 T UnpackMain
00186198 T unshield_close
00181e30 T unshield_component_count
00181fb6 T unshield_component_destroy
00181e49 T unshield_component_name
00181e89 T unshield_component_new
00183245 T unshield_deobfuscate
00181ff1 T unshield_directory_count
00182014 T unshield_directory_name
00122cc1 T unshield_do_action
00122856 T unshield_extract_helper
001827c3 T unshield_file_count
0018410b T unshield_file_directory
00186598 T unshield_file_group_count
00186578 T unshield_file_group_destroy
001865ef T unshield_file_group_find
001865b1 T unshield_file_group_get
0018665c T unshield_file_group_name
00186475 T unshield_file_group_new
0018286f T unshield_file_is_valid
001827e6 T unshield_file_name
001839a4 T unshield_file_save
0018453f T unshield_file_save_old
0018416e T unshield_file_save_raw
0018413b T unshield_file_size
00184f89 T unshield_fopen_for_reading
00185186 T unshield_fsize
00184e1a T unshield_get_base_directory_name
00184e10 T unshield_get_path_max
0018540e T unshield_get_utf8_string
001852d9 T unshield_header_get_buffer
0018543e T unshield_header_get_string
00186393 T unshield_is_unicode
001863c9 T _unshield_log
0018602b T unshield_open
00186046 T unshield_open_force_version
001851ed T unshield_read_common_header
001863bc T unshield_set_log_level
00121e84 T unshield_set_output_directory
         U _Unwind_DeleteException
         U _Unwind_GetDataRelBase
         U _Unwind_GetIPInfo
         U _Unwind_GetLanguageSpecificData
         U _Unwind_GetRegionStart
         U _Unwind_GetTextRelBase
         U _Unwind_RaiseException
         U _Unwind_Resume
         U _Unwind_Resume_or_Rethrow
         U _Unwind_SetGR
         U _Unwind_SetIP
         U __uselocale
         U utime
00131bb7 T VariantClear
00131be2 T VariantCopy
         U vfprintf
         U vsnprintf
         U wcrtomb
         U wcscat
         U wcscmp
         U __wcscoll_l
         U wcscpy
         U __wcsftime_l
         U wcslen
         U wcsnrtombs
         U wcsstr
         U wcstombs
         U __wcsxfrm_l
         U wctob
         U __wctype_l
         U wmemchr
         U wmemcmp
         U wmemcpy
         U wmemmove
         U wmemset
         U write
         U writev
         U __xstat64
00135faa T _Z10FindMethodPK15CExternalCodecsRK7AStringRyRj
00136067 T _Z10FindMethodPK15CExternalCodecsyR7AString
0017bff4 T _Z10GetCpuNameR7AString
00174750 T _Z10IsSafePathRK7UString
0017bfad T _Z10PrintRightR19IBenchPrintCallbackPKcj
001381ce T _Z10ReadStreamP19ISequentialInStreamPvPj
00136718 T _Z11CreateCoderPK15CExternalCodecsybR13CCreatedCoder
00136837 T _Z11CreateCoderPK15CExternalCodecsybR9CMyComPtrI14ICompressCoderE
0013636e T _Z11CreateCoderPK15CExternalCodecsybR9CMyComPtrI15ICompressFilterER13CCreatedCoder
0012eada T _Z11GetPasswordP13CStdOutStreamb
001703c2 T _Z11ParseMtPropRK7UStringRK14tagPROPVARIANTjRj
00144af2 T _Z11RegisterArcPK8CArcInfo
00138322 T _Z11WriteStreamP20ISequentialOutStreamPKvj
00136916 T _Z12CreateFilterPK15CExternalCodecsybR9CMyComPtrI15ICompressFilterE
001369c9 T _Z12CreateHasherPK15CExternalCodecsyR7AStringR9CMyComPtrI7IHasherE
0016214e T _Z12ListArchivesP7CCodecsRK13CObjectVectorI9COpenTypeERK13CRecordVectorIiEbRS1_I7UStringESC_bbRKN9NWildcard11CCensorNodeEbbRbRSA_PKS1_I9CPropertyERySN_
0013447a T _Z12my_getlocalev
0017012e T _Z12StringToBoolRK7UStringRb
0015fee7 T _Z13PrintHashStatR13CStdOutStreamRK11CHashBundle
0013591c T _Z13RegisterCodecPK10CCodecInfo
001535af T _Z13SetPropertiesP8IUnknownRK13CObjectVectorI9CPropertyE
00134494 T _Z13showP7zipInfoP13CStdOutStream
00153b7a T _Z13SortFileNamesRK13CObjectVectorI7UStringER13CRecordVectorIjE
00156bdd T _Z13UpdateArchiveP7CCodecsRK13CObjectVectorI9COpenTypeERK7UStringRN9NWildcard7CCensorER14CUpdateOptionsR16CUpdateErrorInfoP15IOpenCallbackUIP18IUpdateCallbackUI2b
0015cd50 T _Z13UpdateProduceRK13CRecordVectorI11CUpdatePairERKN14NUpdateArchive10CActionSetERS_I12CUpdatePair2EP22IUpdateProduceCallback
00181c1f T _Z14AutoRenamePathR7UString
00141abc T _Z14Correct_FsPathbR13CObjectVectorI7UStringEb
0013f117 T _Z14EnumerateItemsRKN9NWildcard7CCensorENS_15ECensorPathModeERK7UStringR9CDirItems
00136166 T _Z14FindHashMethodPK15CExternalCodecsRK7AStringRy
00136211 T _Z14GetHashMethodsPK15CExternalCodecsR13CRecordVectorIyE
0014bb61 T _Z14ParseOpenTypesR7CCodecsRK7UStringR13CObjectVectorI9COpenTypeE
0013593c T _Z14RegisterHasherPK11CHasherInfo
0017bdff T _Z15CrcInternalTestv
00180e2c T _Z15GetDefaultName2RK7UStringS1_S1_
0015e831 T _Z15PrintErrorFlagsR13CStdOutStreamPKcj
001382ca T _Z15ReadStream_FAILP19ISequentialInStreamPvj
001658aa T _Z16CompareFileNamesPKwS0_
001698cd T _Z16GetFullPathNameWPKwjPwPS1_
0014b7d9 T _Z16ParseComplexSizePKwRy
00138278 T _Z16ReadStream_FALSEP19ISequentialInStreamPvj
001658e2 T _Z16SplitPathToPartsRK7UStringR13CObjectVectorIS_E
00179d4a T _Z17GetCompressRatingjyyy
00141cc8 T _Z17MakePathFromPartsRK13CObjectVectorI7UStringE
001697fa T _Z17nameWindowToUnix2PKw
0017032c T _Z17ParsePropToUInt32RK7UStringRK14tagPROPVARIANTRj
0014203f T _Z18AddHashHexToStringPcPKhj
00149adc T _Z18Archive_IsItem_AuxP10IInArchivejRb
001495fc T _Z18Archive_IsItem_DirP10IInArchivejRb
0012f642 T _Z18ConvertUInt32ToHexjPc
0012f694 T _Z18ConvertUInt64ToHexyPc
0012f5e1 T _Z18ConvertUInt64ToOctyPc
00133fe7 T _Z18mySplitCommandLineiPPcR13CObjectVectorI7UStringE
0015e3cb T _Z18Print_DirItemsStatR7AStringRK13CDirItemsStat
00165ba5 T _Z18SplitPathToParts_2RK7UStringRS_S2_
0012f930 T _Z19FindCharPosInStringPKcc
0012f96e T _Z19FindCharPosInStringPKww
0017b2e3 T _Z19GetBenchMemoryUsagejjb
00179db5 T _Z19GetDecompressRatingyyyyy
0012f9ab T _Z19MyStringLower_AsciiPc
0012f9d2 T _Z19MyStringLower_AsciiPw
001702e0 T _Z19ParseStringToUInt32RK7UStringRj
0017019f T _Z19PROPVARIANT_to_boolRK14tagPROPVARIANTRb
00174b9e T _Z20CensorNode_CheckPathRKN9NWildcard11CCensorNodeERK12CReadArcItem
0012f8cf T _Z20ConvertInt64ToStringxPc
0012f8fe T _Z20ConvertInt64ToStringxPw
001654f4 T _Z20ConvertStringToInt32PKwPS0_
00132e7e T _Z20ConvertUnicodeToUTF8RK7UStringR7AString
00132dd8 T _Z20ConvertUTF8ToUnicodeRK7AStringR7UString
0014a9ff T _Z20GetOpenArcErrorFlagsRKN8NWindows4NCOM12CPropVariantEPb
0012e996 T _Z20ScanUserYesNoAllQuitP13CStdOutStream
001748b2 T _Z21CensorNode_CheckPath2RKN9NWildcard11CCensorNodeERK12CReadArcItemRb
00165209 T _Z21ConvertStringToUInt32PKcPS0_
00165299 T _Z21ConvertStringToUInt32PKwPS0_
0016531c T _Z21ConvertStringToUInt64PKcPS0_
00165416 T _Z21ConvertStringToUInt64PKwPS0_
0012f450 T _Z21ConvertUInt32ToStringjPc
0012f736 T _Z21ConvertUInt32ToStringjPw
0012f4f0 T _Z21ConvertUInt64ToStringyPc
0012f7da T _Z21ConvertUInt64ToStringyPw
0016f3be T _Z21CreateLimitedInStreamP9IInStreamyyPP19ISequentialInStream
00165cea T _Z21DoesWildcardMatchNameRK7UStringS1_
0015c31d T _Z21GetUpdatePairInfoListRK9CDirItemsRK13CObjectVectorI8CArcItemEN13NFileTimeType5EEnumER13CRecordVectorI11CUpdatePairE
0012fda9 T _Z21MyStringCompareNoCasePKwS0_
0016bc46 T _Z21my_windows_split_pathRK7AStringRS_S2_
0015defa T _Z21PrintSize_bytes_SmartR7AStringy
00164b9a T _Z21ReadNamesFromListFilePKwR13CObjectVectorI7UStringEj
0012fb60 T _Z21StringsAreEqual_AsciiPKwPKc
0012fa1e T _Z21StringsAreEqualNoCasePKwS0_
00149b10 T _Z22Archive_IsItem_DeletedP10IInArchivejRb
001419e7 T _Z22Correct_AltStream_NameR7UString
00165876 T _Z22IsPath1PrefixedByPath2PKwS0_
0015e552 T _Z22SetExtractErrorMessageiiR7AString
00165bf9 T _Z22SplitPathToParts_SmartRK7UStringRS_S2_
00149537 T _Z23Archive_GetItemBoolPropP10IInArchivejjRb
0016d514 T _Z23ConvertFileTimeToStringRK9_FILETIMEPcbb
0016d701 T _Z23ConvertFileTimeToStringRK9_FILETIMEPwbb
001816ff T _Z23ConvertNtSecureToStringPKhjR7AString
00181692 T _Z23ConvertPropertyToStringR7UStringRK14tagPROPVARIANTjb
00165d02 T _Z23DoesNameContainWildcardRK7UString
00165caa T _Z23ExtractFileNameFromPathRK7UString
00141a60 T _Z23Get_Correct_FsFile_NameRK7UString
00162081 T _Z23Print_OpenArchive_ErrorR13CStdOutStreamPK7CCodecsRK12CArchiveLink
00161c38 T _Z23Print_OpenArchive_PropsR13CStdOutStreamPK7CCodecsRK12CArchiveLink
0015de96 T _Z23Print_UInt64_and_StringR7AStringyPKc
0015e9ab T _Z24Add_Messsage_Pre_ArcTypeR7UStringPKcPKw
00149af6 T _Z24Archive_IsItem_AltStreamP10IInArchivejRb
001656b8 T _Z24ConvertHexStringToUInt32PKcPS0_
00165713 T _Z24ConvertHexStringToUInt64PKcPS0_
00165590 T _Z24ConvertOctStringToUInt32PKcPS0_
001655f5 T _Z24ConvertOctStringToUInt64PKcPS0_
00181493 T _Z24ConvertWinAttribToStringPcj
00138c27 T _Z24EnumerateDirItemsAndSortRN9NWildcard7CCensorENS_15ECensorPathModeERK7UStringR13CObjectVectorIS3_ES8_R13CDirItemsStatP17IDirItemsCallback
00165c64 T _Z24ExtractDirPrefixFromPathRK7UString
0013250a T _Z24MultiByteToUnicodeStringRK7AStringj
00132746 T _Z24UnicodeStringToMultiByteRK7UStringj
0012f6fe T _Z25ConvertUInt32ToHex8DigitsjPc
00132a16 T _Z25MultiByteToUnicodeString2R7UStringRK7AStringj
001348f4 T _Z25RtlTimeToSecondsSince1970PK13LARGE_INTEGERPj
00132a92 T _Z25UnicodeStringToMultiByte2R7AStringRK7UStringj
0014a341 T _Z26FindAltStreamColon_in_PathPKw
0012f9f7 T _Z26IsString1PrefixedByString2PKcS0_
0012fcf2 T _Z26IsString1PrefixedByString2PKwS0_
0012fba9 T _Z27StringsAreEqualNoCase_AsciiPKcS0_
0012fc7f T _Z27StringsAreEqualNoCase_AsciiPKwPKc
0012fc1f T _Z27StringsAreEqualNoCase_AsciiPKwS0_
001814e8 T _Z28ConvertPropertyToShortStringPcRK14tagPROPVARIANTjb
0013f383 T _Z28Find_FileName_InSortedVectorRK13CObjectVectorI7UStringERKS0_
0013482d T _Z29RtlSecondsSince1970ToFileTimejP9_FILETIME
0015e9f4 T _Z30Print_ErrorFormatIndex_WarningP13CStdOutStreamPK7CCodecsRK4CArc
0016d76e T _Z31ConvertPropVariantToShortStringRK14tagPROPVARIANTPc
0016d87c T _Z31ConvertPropVariantToShortStringRK14tagPROPVARIANTPw
00171c0a T _Z32Create_BufInStream_WithNewBufferPKvjPP19ISequentialInStream
00171b5e T _Z32Create_BufInStream_WithReferencePKvjP8IUnknownPP19ISequentialInStream
0012fd18 T _Z33IsString1PrefixedByString2_NoCasePKwS0_
00132285 T _Z33StdOut_Convert_UString_to_AStringRK7UStringR7AString
001320e7 T _Z4endlR13CStdOutStream
0017d90b T _Z5BenchPK15CExternalCodecsP19IBenchPrintCallbackP14IBenchCallbackRK13CObjectVectorI9CPropertyEjb
0012c0c2 T _Z5main1iPPc
0013f3e5 T _Z7ExtractP7CCodecsRK13CObjectVectorI9COpenTypeERK13CRecordVectorIiERS1_I7UStringESC_RKN9NWildcard11CCensorNodeERK15CExtractOptionsP15IOpenCallbackUIP18IExtractCallbackUIP9IHashCalcRSA_R15CDecompressStat
0011f6c7 T _Z7fopen_sPP8_IO_FILEPKcS3_
0015d095 T _Z8BenchConPK15CExternalCodecsRK13CObjectVectorI9CPropertyEjP8_IO_FILE
00143342 T _Z8HashCalcPK15CExternalCodecsRKN9NWildcard7CCensorERK12CHashOptionsR7AStringP15IHashCallbackUI
00123ca8 T _Z8IsPackedPKc
00132d0a T _Z9CheckUTF8PKcb
0014b8ed T _Z9ParseTypeR7CCodecsRK7UStringR9COpenType
0017bf66 T _Z9PrintLeftR19IBenchPrintCallbackPKcj
00131cc5 T _ZdaPv
00131cb5 T _ZdlPv
00101f3e W _ZdlPvS_
00131a17 T _ZeqPKwRK8UString2
001319e7 T _ZeqRK8UString2PKw
001319ac T _ZeqRK8UString2S1_
002420a0 R z_errmsg
0018c630 T zError
002bf720 u _ZGVNSt10moneypunctIcLb0EE2idE
002bf718 u _ZGVNSt10moneypunctIcLb1EE2idE
002bf880 u _ZGVNSt10moneypunctIwLb0EE2idE
002bf878 u _ZGVNSt10moneypunctIwLb1EE2idE
002bf6e8 u _ZGVNSt11__timepunctIcE2idE
002bf848 u _ZGVNSt11__timepunctIwE2idE
002bf6c8 u _ZGVNSt7collateIcE2idE
002bf828 u _ZGVNSt7collateIwE2idE
002bf800 u _ZGVNSt7__cxx1110moneypunctIcLb0EE2idE
002bf7f8 u _ZGVNSt7__cxx1110moneypunctIcLb1EE2idE
002bf7a0 u _ZGVNSt7__cxx1110moneypunctIwLb0EE2idE
002bf798 u _ZGVNSt7__cxx1110moneypunctIwLb1EE2idE
002bf7c8 u _ZGVNSt7__cxx117collateIcE2idE
002bf768 u _ZGVNSt7__cxx117collateIwE2idE
002bf7d0 u _ZGVNSt7__cxx118messagesIcE2idE
002bf770 u _ZGVNSt7__cxx118messagesIwE2idE
002bf7e0 u _ZGVNSt7__cxx118numpunctIcE2idE
002bf780 u _ZGVNSt7__cxx118numpunctIwE2idE
002bf7d8 u _ZGVNSt7__cxx118time_getIcSt19istreambuf_iteratorIcSt11char_traitsIcEEE2idE
002bf778 u _ZGVNSt7__cxx118time_getIwSt19istreambuf_iteratorIwSt11char_traitsIwEEE2idE
002bf7f0 u _ZGVNSt7__cxx119money_getIcSt19istreambuf_iteratorIcSt11char_traitsIcEEE2idE
002bf790 u _ZGVNSt7__cxx119money_getIwSt19istreambuf_iteratorIwSt11char_traitsIwEEE2idE
002bf7e8 u _ZGVNSt7__cxx119money_putIcSt19ostreambuf_iteratorIcSt11char_traitsIcEEE2idE
002bf788 u _ZGVNSt7__cxx119money_putIwSt19ostreambuf_iteratorIwSt11char_traitsIwEEE2idE
002bf6f8 u _ZGVNSt7num_getIcSt19istreambuf_iteratorIcSt11char_traitsIcEEE2idE
002bf858 u _ZGVNSt7num_getIwSt19istreambuf_iteratorIwSt11char_traitsIwEEE2idE
002bf6f0 u _ZGVNSt7num_putIcSt19ostreambuf_iteratorIcSt11char_traitsIcEEE2idE
002bf850 u _ZGVNSt7num_putIwSt19ostreambuf_iteratorIwSt11char_traitsIwEEE2idE
002bf6d0 u _ZGVNSt8messagesIcE2idE
002bf830 u _ZGVNSt8messagesIwE2idE
002bf700 u _ZGVNSt8numpunctIcE2idE
002bf860 u _ZGVNSt8numpunctIwE2idE
002bf6d8 u _ZGVNSt8time_getIcSt19istreambuf_iteratorIcSt11char_traitsIcEEE2idE
002bf838 u _ZGVNSt8time_getIwSt19istreambuf_iteratorIwSt11char_traitsIwEEE2idE
002bf6e0 u _ZGVNSt8time_putIcSt19ostreambuf_iteratorIcSt11char_traitsIcEEE2idE
002bf840 u _ZGVNSt8time_putIwSt19ostreambuf_iteratorIwSt11char_traitsIwEEE2idE
002bf710 u _ZGVNSt9money_getIcSt19istreambuf_iteratorIcSt11char_traitsIcEEE2idE
002bf870 u _ZGVNSt9money_getIwSt19istreambuf_iteratorIwSt11char_traitsIwEEE2idE
002bf708 u _ZGVNSt9money_putIcSt19ostreambuf_iteratorIcSt11char_traitsIcEEE2idE
002bf868 u _ZGVNSt9money_putIwSt19ostreambuf_iteratorIwSt11char_traitsIwEEE2idE
0018c620 T zlibCompileFlags
0018c610 T zlibVersion
00117ffc T _ZN10C7zOffical6UnpackEPKcS1_
00117fe0 T _ZN10C7zOffical8IsPackedEPKc
00117fb0 T _ZN10C7zOfficalC1Ev
00117fb0 T _ZN10C7zOfficalC2Ev
00117fc8 T _ZN10C7zOfficalD1Ev
00117fc8 T _ZN10C7zOfficalD2Ev
001456f6 T _ZN10CArcInfoEx7AddExtsERK7UStringS2_
00147c70 W _ZN10CArcInfoExD1Ev
00147c70 W _ZN10CArcInfoExD2Ev
0018188e T _ZN10CTempFiles5ClearEv
00159b8e W _ZN10CTempFilesD1Ev
00159b8e W _ZN10CTempFilesD2Ev
0018f380 T _ZN10__cxxabiv111__terminateEPFvvE
0018f410 T _ZN10__cxxabiv112__unexpectedEPFvvE
00190060 T _ZN10__cxxabiv115__forced_unwindD0Ev
00190050 T _ZN10__cxxabiv115__forced_unwindD1Ev
00190050 T _ZN10__cxxabiv115__forced_unwindD2Ev
0018ff40 T _ZN10__cxxabiv116__enum_type_infoD0Ev
0018ff10 T _ZN10__cxxabiv116__enum_type_infoD1Ev
0018ff10 T _ZN10__cxxabiv116__enum_type_infoD2Ev
0018fd40 T _ZN10__cxxabiv117__class_type_infoD0Ev
0018fd10 T _ZN10__cxxabiv117__class_type_infoD1Ev
0018fd10 T _ZN10__cxxabiv117__class_type_infoD2Ev
002140d0 T _ZN10__cxxabiv117__pbase_type_infoD0Ev
002140a0 T _ZN10__cxxabiv117__pbase_type_infoD1Ev
002140a0 T _ZN10__cxxabiv117__pbase_type_infoD2Ev
001900a0 T _ZN10__cxxabiv119__foreign_exceptionD0Ev
00190090 T _ZN10__cxxabiv119__foreign_exceptionD1Ev
00190090 T _ZN10__cxxabiv119__foreign_exceptionD2Ev
001903e0 T _ZN10__cxxabiv119__pointer_type_infoD0Ev
001903b0 T _ZN10__cxxabiv119__pointer_type_infoD1Ev
001903b0 T _ZN10__cxxabiv119__pointer_type_infoD2Ev
002bd048 D _ZN10__cxxabiv119__terminate_handlerE
001904c0 T _ZN10__cxxabiv120__si_class_type_infoD0Ev
00190490 T _ZN10__cxxabiv120__si_class_type_infoD1Ev
00190490 T _ZN10__cxxabiv120__si_class_type_infoD2Ev
002bd044 D _ZN10__cxxabiv120__unexpected_handlerE
0018e8d0 T _ZN10__cxxabiv121__vmi_class_type_infoD0Ev
0018e8a0 T _ZN10__cxxabiv121__vmi_class_type_infoD1Ev
0018e8a0 T _ZN10__cxxabiv121__vmi_class_type_infoD2Ev
00190370 T _ZN10__cxxabiv123__fundamental_type_infoD0Ev
00190340 T _ZN10__cxxabiv123__fundamental_type_infoD1Ev
00190340 T _ZN10__cxxabiv123__fundamental_type_infoD2Ev
00179b12 T _ZN11CBenchProps16SetLzmaCompexityEv
00179b30 T _ZN11CBenchProps17GetCompressRatingEjyyy
00179ce4 T _ZN11CBenchProps19GetDecompressRatingEyyyyy
00170516 T _ZN11CCoderProps7AddPropERK5CProp
00180d74 W _ZN11CCrcThreadsD1Ev
00180d74 W _ZN11CCrcThreadsD2Ev
0011f900 T _ZN11CFileAssist12GetTimeStampERNSt7__cxx1112basic_stringIcSt11char_traitsIcESaIcEEE
0011f654 T _ZN11CFileAssist15CreateOutputDirERKNSt7__cxx1112basic_stringIcSt11char_traitsIcESaIcEEES7_RS5_
0011f2ee T _ZN11CFileAssist18CreateOutputDirStrERKNSt7__cxx1112basic_stringIcSt11char_traitsIcESaIcEEES7_bRS5_
0011f2e2 T _ZN11CFileAssistC1Ev
0011f2e2 T _ZN11CFileAssistC2Ev
0011f2e8 T _ZN11CFileAssistD1Ev
0011f2e8 T _ZN11CFileAssistD2Ev
001420d4 T _ZN11CHashBundle10SetMethodsEPK15CExternalCodecsRK13CObjectVectorI7UStringE
00141df6 T _ZN11CHashBundle14InitForNewFileEv
00141e48 T _ZN11CHashBundle5FinalEbbRK7UString
00141d64 T _ZN11CHashBundle6UpdateEPKvj
00141db4 T _ZN11CHashBundle7SetSizeEy
00154e1a T _ZN11CRenamePair7PrepareEv
0014b2dc T _ZN12CArchiveLink19KeepModeForNextOpenEv
0014ffcc T _ZN12CArchiveLink4OpenER12COpenOptions
0014b38c T _ZN12CArchiveLink5CloseEv
00151f62 T _ZN12CArchiveLink5Open2ER12COpenOptionsP15IOpenCallbackUI
00152444 T _ZN12CArchiveLink5Open3ER12COpenOptionsP15IOpenCallbackUI
0015247c T _ZN12CArchiveLink6ReOpenER12COpenOptions
0014b3f6 T _ZN12CArchiveLink7ReleaseEv
0012a970 W _ZN12CArchiveLinkD1Ev
0012a970 W _ZN12CArchiveLinkD2Ev
001547d0 T _ZN12CArchivePath13ParseFromPathERK7UString12EArcNameMode
001720aa W _ZN12CBufInStream14QueryInterfaceERK4GUIDPPv
00171894 T _ZN12CBufInStream4ReadEPvjPj
0017175c T _ZN12CBufInStream4SeekExjPy
00172156 W _ZN12CBufInStream6AddRefEv
00172164 W _ZN12CBufInStream7ReleaseEv
00172510 W _ZN12CBufInStreamD0Ev
001724dc W _ZN12CBufInStreamD1Ev
001724dc W _ZN12CBufInStreamD2Ev
00180770 W _ZN12CEncoderInfo20DecodeThreadFunctionEPv
0018070d W _ZN12CEncoderInfo20EncodeThreadFunctionEPv
00179e16 T _ZN12CEncoderInfo4InitERK14COneMethodInfojP20CBaseRandomGenerator
0017abf8 T _ZN12CEncoderInfo6DecodeEj
0017a7f2 T _ZN12CEncoderInfo6EncodeEv
00180798 W _ZN12CEncoderInfoD1Ev
00180798 W _ZN12CEncoderInfoD2Ev
001375f4 T _ZN12CFilterCoder11InitEncoderEv
00136c12 T _ZN12CFilterCoder11SetInStreamEP19ISequentialInStream
00136b68 T _ZN12CFilterCoder12SetInBufSizeEjj
00136b98 T _ZN12CFilterCoder12SetOutStreamEP20ISequentialOutStream
00136cd6 T _ZN12CFilterCoder13SetInitVectorEPKhj
00136b80 T _ZN12CFilterCoder13SetOutBufSizeEjj
0013733c T _ZN12CFilterCoder14Init_and_AllocEv
00137c40 W _ZN12CFilterCoder14QueryInterfaceERK4GUIDPPv
0013797e T _ZN12CFilterCoder15OutStreamFinishEv
00136c58 T _ZN12CFilterCoder15ReleaseInStreamEv
00136d48 T _ZN12CFilterCoder15ResetInitVectorEv
00136bde T _ZN12CFilterCoder16ReleaseOutStreamEv
00137642 T _ZN12CFilterCoder16SetOutStreamSizeEPKy
00136c8c T _ZN12CFilterCoder17CryptoSetPasswordEPKhj
00136cfc T _ZN12CFilterCoder18SetCoderPropertiesEPKjPK14tagPROPVARIANTj
00137af6 T _ZN12CFilterCoder20Init_NoSubFilterInitEv
00136d26 T _ZN12CFilterCoder20WriteCoderPropertiesEP20ISequentialOutStream
00136d66 T _ZN12CFilterCoder21SetDecoderProperties2EPKhj
00137368 T _ZN12CFilterCoder4CodeEP19ISequentialInStreamP20ISequentialOutStreamPKyS5_P21ICompressProgressInfo
001370c2 T _ZN12CFilterCoder4ReadEPvjPj
001372b8 T _ZN12CFilterCoder5AllocEv
001378a6 T _ZN12CFilterCoder5WriteEPKvjPj
00137b3c W _ZN12CFilterCoder6AddRefEv
001377ba T _ZN12CFilterCoder6Flush2Ev
00136cb0 T _ZN12CFilterCoder6SetKeyEPKhj
00137bac W _ZN12CFilterCoder7ReleaseEv
001376aa T _ZN12CFilterCoderC1Eb
001376aa T _ZN12CFilterCoderC2Eb
00137044 T _ZN12CFilterCoderD0Ev
00136d8c T _ZN12CFilterCoderD1Ev
00136d8c T _ZN12CFilterCoderD2Ev
00170a66 T _ZN12CMethodProps21ParseParamsFromStringERK7UString
00170eb0 T _ZN12CMethodProps26ParseParamsFromPROPVARIANTERK7UStringRK14tagPROPVARIANT
001707fc T _ZN12CMethodProps8SetParamERK7UStringS2_
001155b4 T _ZN12CMSIUnpacker11GetEnumTypeEv
001153c4 T _ZN12CMSIUnpacker16IsMatchPackerSigEPb
001155be T _ZN12CMSIUnpacker6UnpackEPKcS1_
0011559a T _ZN12CMSIUnpacker9PrintInfoEv
0011530c T _ZN12CMSIUnpackerC1Ev
0011530c T _ZN12CMSIUnpackerC2Ev
001153a0 T _ZN12CMSIUnpackerD0Ev
00115368 T _ZN12CMSIUnpackerD1Ev
00115368 T _ZN12CMSIUnpackerD2Ev
0014191c W _ZN12CReadArcItemD1Ev
0014191c W _ZN12CReadArcItemD2Ev
00131f6e T _ZN12CStdInStream12ReadToStringER7AString
00131e8e T _ZN12CStdInStream22ScanStringUntilNewLineEb
00131e24 T _ZN12CStdInStream3EofEv
00131d20 T _ZN12CStdInStream4OpenEPKw
00131cd6 T _ZN12CStdInStream5CloseEv
00131e3c T _ZN12CStdInStream7GetCharEv
00131ffc W _ZN12CStdInStreamD1Ev
00131ffc W _ZN12CStdInStreamD2Ev
0014aa84 T _ZN13CArcErrorInfo11ClearErrorsEv
00129554 W _ZN13CArcErrorInfoD1Ev
00129554 W _ZN13CArcErrorInfoD2Ev
001804f0 W _ZN13CCrcOutStream14QueryInterfaceERK4GUIDPPv
00178828 T _ZN13CCrcOutStream5WriteEPKvjPj
00180546 W _ZN13CCrcOutStream6AddRefEv
00180554 W _ZN13CCrcOutStream7ReleaseEv
00180616 W _ZN13CCrcOutStreamD0Ev
00180612 W _ZN13CCrcOutStreamD1Ev
00180612 W _ZN13CCrcOutStreamD2Ev
00136b14 W _ZN13CCreatedCoderD1Ev
00136b14 W _ZN13CCreatedCoderD2Ev
00161034 T _ZN13CFieldPrinter10PrintTitleEv
00160f68 T _ZN13CFieldPrinter11AddRawPropsEP19IArchiveGetRawProps
00160e94 T _ZN13CFieldPrinter12AddMainPropsEP10IInArchive
001610ae T _ZN13CFieldPrinter13PrintItemInfoEjRK9CListStat
00161078 T _ZN13CFieldPrinter15PrintTitleLinesEv
001609a2 T _ZN13CFieldPrinter4InitEPK14CFieldInfoInitj
00160bda T _ZN13CFieldPrinter7AddPropEPKwjb
00161af0 T _ZN13CFieldPrinter8PrintSumERK10CListStat2
00161950 T _ZN13CFieldPrinter8PrintSumERK9CListStatyPKc
001649c6 W _ZN13CFieldPrinterD1Ev
001649c6 W _ZN13CFieldPrinterD2Ev
0016e59a W _ZN13CInFileStream14QueryInterfaceERK4GUIDPPv
0016e15c T _ZN13CInFileStream4ReadEPvjPj
0016e25e T _ZN13CInFileStream4SeekExjPy
0016e654 W _ZN13CInFileStream6AddRefEv
0016e356 T _ZN13CInFileStream7GetSizeEPy
0016e66a W _ZN13CInFileStream7ReleaseEv
0016e4f4 T _ZN13CInFileStreamC1Eb
0016e4f4 T _ZN13CInFileStreamC2Eb
0016e13a T _ZN13CInFileStreamD0Ev
0016e0be T _ZN13CInFileStreamD1Ev
0016e0be T _ZN13CInFileStreamD2Ev
001188b6 T _ZN13CInnoUnpacker11GetEnumTypeEv
0011867e T _ZN13CInnoUnpacker16IsMatchPackerSigEPb
001188c0 T _ZN13CInnoUnpacker6UnpackEPKcS1_
0011889c T _ZN13CInnoUnpacker9PrintInfoEv
001185c6 T _ZN13CInnoUnpackerC1Ev
001185c6 T _ZN13CInnoUnpackerC2Ev
0011865a T _ZN13CInnoUnpackerD0Ev
00118622 T _ZN13CInnoUnpackerD1Ev
00118622 T _ZN13CInnoUnpackerD2Ev
00147d58 W _ZN13CObjectVectorI11CArcExtInfoED1Ev
00147d58 W _ZN13CObjectVectorI11CArcExtInfoED2Ev
0012ac0c W _ZN13CObjectVectorI12CCodecInfoExED1Ev
0012ac0c W _ZN13CObjectVectorI12CCodecInfoExED2Ev
0012bfcc W _ZN13CObjectVectorI12CHasherStateED1Ev
0012bfcc W _ZN13CObjectVectorI12CHasherStateED2Ev
0012ac78 W _ZN13CObjectVectorI13CHasherInfoExED1Ev
0012ac78 W _ZN13CObjectVectorI13CHasherInfoExED2Ev
00143eba W _ZN13CObjectVectorI14COneMethodInfoED1Ev
00143eba W _ZN13CObjectVectorI14COneMethodInfoED2Ev
00177348 W _ZN13CObjectVectorI16CIndexToPathPairE17AddToUniqueSortedERKS0_
0012aedc W _ZN13CObjectVectorI21CUpdateArchiveCommandED1Ev
0012aedc W _ZN13CObjectVectorI21CUpdateArchiveCommandED2Ev
0012a7cc W _ZN13CObjectVectorI4CArcED1Ev
0012a7cc W _ZN13CObjectVectorI4CArcED2Ev
00143fac W _ZN13CObjectVectorI5CPropED1Ev
00143fac W _ZN13CObjectVectorI5CPropED2Ev
001772da W _ZN13CObjectVectorI7UStringE13DeleteFrontalEj
00159c20 W _ZN13CObjectVectorI7UStringE3AddERKS0_
0012a76e W _ZN13CObjectVectorI7UStringE5ClearEv
00177224 W _ZN13CObjectVectorI7UStringE6AddNewEv
00159dbe W _ZN13CObjectVectorI7UStringEaSERKS1_
0012a62e W _ZN13CObjectVectorI7UStringED1Ev
0012a62e W _ZN13CObjectVectorI7UStringED2Ev
0012a698 W _ZN13CObjectVectorI9CCodecLibED1Ev
0012a698 W _ZN13CObjectVectorI9CCodecLibED2Ev
0012bf86 W _ZN13CObjectVectorI9COpenTypeED1Ev
0012bf86 W _ZN13CObjectVectorI9COpenTypeED2Ev
0012ae5e W _ZN13CObjectVectorI9CPropertyED1Ev
0012ae5e W _ZN13CObjectVectorI9CPropertyED2Ev
00159cdc W _ZN13CObjectVectorIN18COutMultiVolStream14CAltStreamInfoEED1Ev
00159cdc W _ZN13CObjectVectorIN18COutMultiVolStream14CAltStreamInfoEED2Ev
00153102 W _ZN13CObjectVectorIN8NArchive7NParser10CParseItemEED1Ev
00153102 W _ZN13CObjectVectorIN8NArchive7NParser10CParseItemEED2Ev
00168eb8 W _ZN13CObjectVectorIN9NWildcard11CCensorNodeEED1Ev
00168eb8 W _ZN13CObjectVectorIN9NWildcard11CCensorNodeEED2Ev
0012b2cc W _ZN13CObjectVectorIN9NWildcard11CCensorPathEED1Ev
0012b2cc W _ZN13CObjectVectorIN9NWildcard11CCensorPathEED2Ev
00169180 W _ZN13CObjectVectorIN9NWildcard5CItemEED1Ev
00169180 W _ZN13CObjectVectorIN9NWildcard5CItemEED2Ev
0012afd6 W _ZN13CObjectVectorIN9NWildcard5CPairEED1Ev
0012afd6 W _ZN13CObjectVectorIN9NWildcard5CPairEED2Ev
001534d0 W _ZN13CRecordVectorIiE18ReserveOnePositionEv
00153540 W _ZN13CRecordVectorIjE18ReserveOnePositionEv
00153424 W _ZN13CRecordVectorIjE6InsertEjj
0011617a T _ZN13CSetupFactory11GetEnumTypeEv
00115f2e T _ZN13CSetupFactory16IsMatchPackerSigEPb
00116184 T _ZN13CSetupFactory6UnpackEPKcS1_
00116160 T _ZN13CSetupFactory9PrintInfoEv
00115e76 T _ZN13CSetupFactoryC1Ev
00115e76 T _ZN13CSetupFactoryC2Ev
00115f0a T _ZN13CSetupFactoryD0Ev
00115ed2 T _ZN13CSetupFactoryD1Ev
00115ed2 T _ZN13CSetupFactoryD2Ev
001322cc T _ZN13CStdOutStream12PrintUStringERK7UStringR7AString
00132068 T _ZN13CStdOutStream4OpenEPKc
0013200c T _ZN13CStdOutStream5CloseEv
001320b4 T _ZN13CStdOutStream5FlushEv
001324fa W _ZN13CStdOutStreamD1Ev
001324fa W _ZN13CStdOutStreamD2Ev
00132310 T _ZN13CStdOutStreamlsEi
001323dc T _ZN13CStdOutStreamlsEj
0012986e W _ZN13CStdOutStreamlsEPKc
0013211e T _ZN13CStdOutStreamlsEPKw
00132376 T _ZN13CStdOutStreamlsEx
00132440 T _ZN13CStdOutStreamlsEy
0016f90a W _ZN13CTailInStream14QueryInterfaceERK4GUIDPPv
0016ef70 T _ZN13CTailInStream4ReadEPvjPj
0016efd6 T _ZN13CTailInStream4SeekExjPy
0016f9b6 W _ZN13CTailInStream6AddRefEv
0016f9c4 W _ZN13CTailInStream7ReleaseEv
0016fca0 W _ZN13CTailInStreamD0Ev
0016fbe0 W _ZN13CTailInStreamD1Ev
0016fbe0 W _ZN13CTailInStreamD2Ev
00116a62 T _ZN13CViseUnpacker11GetEnumTypeEv
00116706 T _ZN13CViseUnpacker16IsMatchPackerSigEPb
00116a6c T _ZN13CViseUnpacker6UnpackEPKcS1_
00116a48 T _ZN13CViseUnpacker9PrintInfoEv
0011664e T _ZN13CViseUnpackerC1Ev
0011664e T _ZN13CViseUnpackerC2Ev
001166e2 T _ZN13CViseUnpackerD0Ev
001166aa T _ZN13CViseUnpackerD1Ev
001166aa T _ZN13CViseUnpackerD2Ev
0015d156 T _ZN13NConsoleClose14CheckCtrlBreakEv
0015d14b T _ZN13NConsoleClose15TestBreakSignalEv
0015d17c T _ZN13NConsoleClose18CCtrlHandlerSetterC1Ev
0015d17c T _ZN13NConsoleClose18CCtrlHandlerSetterC2Ev
0015d130 T _ZN13NConsoleClose18CCtrlHandlerSetterD0Ev
0015d0e8 T _ZN13NConsoleClose18CCtrlHandlerSetterD1Ev
0015d0e8 T _ZN13NConsoleClose18CCtrlHandlerSetterD2Ev
00180a4e W _ZN14CBenchEncodersD1Ev
00180a4e W _ZN14CBenchEncodersD2Ev
00178daa T _ZN14CBenchInfoCalc12SetStartTimeEv
00178e02 T _ZN14CBenchInfoCalc13SetFinishTimeER10CBenchInfo
00171d04 T _ZN14CByteDynBuffer14EnsureCapacityEj
00171ce2 T _ZN14CByteDynBuffer4FreeEv
0011eb76 T _ZN14CCmdLineParser19ConvertStrPathSlashERNSt7__cxx1112basic_stringIcSt11char_traitsIcESaIcEEE
0011ded4 T _ZN14CCmdLineParser5ParseEjPPc
0011de24 T _ZN14CCmdLineParserC1Ev
0011de24 T _ZN14CCmdLineParserC2Ev
0011de82 T _ZN14CCmdLineParserD1Ev
0011de82 T _ZN14CCmdLineParserD2Ev
0016f764 W _ZN14CExtentsStream14QueryInterfaceERK4GUIDPPv
0016ed0c T _ZN14CExtentsStream4ReadEPvjPj
0016ee60 T _ZN14CExtentsStream4SeekExjPy
0016f810 W _ZN14CExtentsStream6AddRefEv
0016f81e W _ZN14CExtentsStream7ReleaseEv
0016fe50 W _ZN14CExtentsStreamD0Ev
0016fd9a W _ZN14CExtentsStreamD1Ev
0016fd9a W _ZN14CExtentsStreamD2Ev
00171394 T _ZN14CLocalProgress12SetRatioInfoEPKyS1_
00171568 W _ZN14CLocalProgress14QueryInterfaceERK4GUIDPPv
001714c6 T _ZN14CLocalProgress4InitEP9IProgressb
001715ee W _ZN14CLocalProgress6AddRefEv
00171552 T _ZN14CLocalProgress6SetCurEv
001715fc W _ZN14CLocalProgress7ReleaseEv
00171474 T _ZN14CLocalProgressC1Ev
00171474 T _ZN14CLocalProgressC2Ev
00171684 W _ZN14CLocalProgressD0Ev
00171628 W _ZN14CLocalProgressD1Ev
00171628 W _ZN14CLocalProgressD2Ev
0017119e T _ZN14COneMethodInfo21ParseMethodFromStringERK7UString
001712d0 T _ZN14COneMethodInfo26ParseMethodFromPROPVARIANTERK7UStringRK14tagPROPVARIANT
00180684 W _ZN14COneMethodInfoD1Ev
00180684 W _ZN14COneMethodInfoD2Ev
0016e730 W _ZN14COutFileStream14QueryInterfaceERK4GUIDPPv
0016e2da T _ZN14COutFileStream4SeekExjPy
0016e55a T _ZN14COutFileStream5CloseEv
0016e37e T _ZN14COutFileStream5WriteEPKvjPj
0016e7b6 W _ZN14COutFileStream6AddRefEv
0016e578 T _ZN14COutFileStream7GetSizeEPy
0016e7c4 W _ZN14COutFileStream7ReleaseEv
0016e3ee T _ZN14COutFileStream7SetSizeEy
0016e8c4 W _ZN14COutFileStreamD0Ev
0016e8a2 W _ZN14COutFileStreamD1Ev
0016e8a2 W _ZN14COutFileStreamD2Ev
0016fafa W _ZN14CTailOutStream14QueryInterfaceERK4GUIDPPv
0016f1cc T _ZN14CTailOutStream4SeekExjPy
0016f14e T _ZN14CTailOutStream5WriteEPKvjPj
0016fba6 W _ZN14CTailOutStream6AddRefEv
0016fbb4 W _ZN14CTailOutStream7ReleaseEv
0016f24c T _ZN14CTailOutStream7SetSizeEy
0016fc70 W _ZN14CTailOutStreamD0Ev
0016fad6 W _ZN14CTailOutStreamD1Ev
0016fad6 W _ZN14CTailOutStreamD2Ev
0011fba6 T _ZN14CUnpackManager11GetInstanceEv
00120318 T _ZN14CUnpackManager12ParseCmdlineEjPPc
00120882 T _ZN14CUnpackManager14IsNeedScanFileEPN7peparse9CPEParserE
001202d4 T _ZN14CUnpackManager16ScanDirAndUnpackEPKcS1_P9PACK_INFO
002bd260 B _ZN14CUnpackManager17m_pSingleInstanceE
001202f6 T _ZN14CUnpackManager17ScanFileAndUnpackEPKcS1_P9PACK_INFO
001211a6 W _ZN14CUnpackManager21RegisterPEPackMatcherEP14IPackerMatcher
001211ce W _ZN14CUnpackManager22RegisterNPEPackMatcherEP14IPackerMatcher
00120a30 T _ZN14CUnpackManager24RegisterAllPEPackMatcherEv
00120e72 T _ZN14CUnpackManager25RegisterAllNPEPackMatcherEv
0012041a T _ZN14CUnpackManager7ScanDirEPKcS1_P9PACK_INFOb
0011fe28 T _ZN14CUnpackManager8ScanFileEPKcS1_P9PACK_INFOb
0011fc72 T _ZN14CUnpackManagerC1Ev
0011fc72 T _ZN14CUnpackManagerC2Ev
0011fd50 T _ZN14CUnpackManagerD1Ev
0011fd50 T _ZN14CUnpackManagerD2Ev
00154c28 T _ZN14CUpdateOptions10SetArcPathEPK7CCodecsRK7UString
00154b2e T _ZN14CUpdateOptions15InitFormatIndexEPK7CCodecsRK13CObjectVectorI9COpenTypeERK7UString
00129588 W _ZN14CUpdateOptionsD1Ev
00129588 W _ZN14CUpdateOptionsD2Ev
0011388c T _ZN14IPackerMatcher11SetParsedPEEPN7peparse9CPEParserE
00112dac T _ZN14IPackerMatcher12IsFindHexSigEPKcjjPb
00111e28 T _ZN14IPackerMatcher12IsMatchEPSigEPKhjjPb
00113984 T _ZN14IPackerMatcher13GetOverlaySigEPhjj
00113200 T _ZN14IPackerMatcher14IsMatchSecNameEPKc
0011323e T _ZN14IPackerMatcher15GetUnpackMethodEv
001129d8 T _ZN14IPackerMatcher15IsFindStringSigEPKcjjPb
0011321e T _ZN14IPackerMatcher15SetUnpackMethodEj
00112022 T _ZN14IPackerMatcher17IsMatchOverlaySigEPKhjjPb
0011322e T _ZN14IPackerMatcher17ResetUnpackMethodEv
00112242 T _ZN14IPackerMatcher18IsOverlayPresentedEPj
001124ee T _ZN14IPackerMatcher28IsMatchOverlaySig_deprecatedEPKhjjPb
001132d8 T _ZN14IPackerMatcher7IsMatchEPKhS1_jjPb
001132b4 T _ZN14IPackerMatcher8DecToHexEh
0011324a T _ZN14IPackerMatcher8HexToDecEh
0011382e T _ZN14IPackerMatcherC1Ev
0011382e T _ZN14IPackerMatcherC2Ev
00113868 T _ZN14IPackerMatcherD0Ev
0011383e T _ZN14IPackerMatcherD1Ev
0011383e T _ZN14IPackerMatcherD2Ev
0023cfc8 R _ZN14NUpdateArchive15k_ActionSet_AddE
0023cf74 R _ZN14NUpdateArchive16k_ActionSet_SyncE
0023cf90 R _ZN14NUpdateArchive17k_ActionSet_FreshE
0023cf58 R _ZN14NUpdateArchive18k_ActionSet_DeleteE
0023cfac R _ZN14NUpdateArchive18k_ActionSet_UpdateE
00171fc4 W _ZN15CBufferInStream14QueryInterfaceERK4GUIDPPv
0017195e T _ZN15CBufferInStream4ReadEPvjPj
001716ec T _ZN15CBufferInStream4SeekExjPy
00172070 W _ZN15CBufferInStream6AddRefEv
0017207e W _ZN15CBufferInStream7ReleaseEv
00172594 W _ZN15CBufferInStreamD0Ev
00172570 W _ZN15CBufferInStreamD1Ev
00172570 W _ZN15CBufferInStreamD2Ev
001723d0 W _ZN15CCachedInStream14QueryInterfaceERK4GUIDPPv
00171e68 T _ZN15CCachedInStream4FreeEv
00171f72 T _ZN15CCachedInStream4InitEy
001719c0 T _ZN15CCachedInStream4ReadEPvjPj
0017182e T _ZN15CCachedInStream4SeekExjPy
00171eb4 T _ZN15CCachedInStream5AllocEjj
0017247c W _ZN15CCachedInStream6AddRefEv
0017248a W _ZN15CCachedInStream7ReleaseEv
0013595c T _ZN15CExternalCodecs4LoadEv
0012ace4 W _ZN15CExternalCodecsD1Ev
0012ace4 W _ZN15CExternalCodecsD2Ev
0012a3c6 W _ZN15CExtractOptionsD1Ev
0012a3c6 W _ZN15CExtractOptionsD2Ev
00114c6a T _ZN15CGenteeUnpacker11GetEnumTypeEv
00114a40 T _ZN15CGenteeUnpacker16IsMatchPackerSigEPb
00114c74 T _ZN15CGenteeUnpacker6UnpackEPKcS1_
00114c50 T _ZN15CGenteeUnpacker9PrintInfoEv
00114988 T _ZN15CGenteeUnpackerC1Ev
00114988 T _ZN15CGenteeUnpackerC2Ev
00114a1c T _ZN15CGenteeUnpackerD0Ev
001149e4 T _ZN15CGenteeUnpackerD1Ev
001149e4 T _ZN15CGenteeUnpackerD2Ev
0012c750 T _ZN15CPercentPrinter10ClosePrintEb
0012c97e T _ZN15CPercentPrinter11GetPercentsEv
0012ca80 T _ZN15CPercentPrinter5PrintEv
0012c820 T _ZN15CPercentPrinterD1Ev
0012c820 T _ZN15CPercentPrinterD2Ev
00117ccc T _ZN15CZipSfxUnpacker11GetEnumTypeEv
00117a7e T _ZN15CZipSfxUnpacker16IsMatchPackerSigEPb
00117e7c T _ZN15CZipSfxUnpacker6Is64OSEv
00117cd6 T _ZN15CZipSfxUnpacker6UnpackEPKcS1_
00117cb2 T _ZN15CZipSfxUnpacker9PrintInfoEv
001179c6 T _ZN15CZipSfxUnpackerC1Ev
001179c6 T _ZN15CZipSfxUnpackerC2Ev
00117a5a T _ZN15CZipSfxUnpackerD0Ev
00117a22 T _ZN15CZipSfxUnpackerD1Ev
00117a22 T _ZN15CZipSfxUnpackerD2Ev
0016f67e W _ZN16CClusterInStream14QueryInterfaceERK4GUIDPPv
0016ead2 T _ZN16CClusterInStream4ReadEPvjPj
0016ec8e T _ZN16CClusterInStream4SeekExjPy
0016f72a W _ZN16CClusterInStream6AddRefEv
0016f738 W _ZN16CClusterInStream7ReleaseEv
0016fe92 W _ZN16CClusterInStreamD0Ev
0016fdd4 W _ZN16CClusterInStreamD1Ev
0016fdd4 W _ZN16CClusterInStreamD2Ev
00177eb2 W _ZN16CInFileStreamVolD0Ev
00177e14 W _ZN16CInFileStreamVolD1Ev
00177e14 W _ZN16CInFileStreamVolD2Ev
0016f598 W _ZN16CLimitedInStream14QueryInterfaceERK4GUIDPPv
0016e996 T _ZN16CLimitedInStream4ReadEPvjPj
0016ea6c T _ZN16CLimitedInStream4SeekExjPy
0016f644 W _ZN16CLimitedInStream6AddRefEv
0016f652 W _ZN16CLimitedInStream7ReleaseEv
0016fcd0 W _ZN16CLimitedInStreamD0Ev
0016fc28 W _ZN16CLimitedInStreamD1Ev
0016fc28 W _ZN16CLimitedInStreamD2Ev
00115032 T _ZN16CMoleBoxUnpacker11GetEnumTypeEv
00114e60 T _ZN16CMoleBoxUnpacker16IsMatchPackerSigEPb
0011503c T _ZN16CMoleBoxUnpacker6UnpackEPKcS1_
00115018 T _ZN16CMoleBoxUnpacker9PrintInfoEv
00114da8 T _ZN16CMoleBoxUnpackerC1Ev
00114da8 T _ZN16CMoleBoxUnpackerC2Ev
00114e3c T _ZN16CMoleBoxUnpackerD0Ev
00114e04 T _ZN16CMoleBoxUnpackerD1Ev
00114e04 T _ZN16CMoleBoxUnpackerD2Ev
001775d0 T _ZN16COpenCallbackImp11GetPropertyEjP14tagPROPVARIANT
00177528 T _ZN16COpenCallbackImp12SetCompletedEPKyS1_
00177cae W _ZN16COpenCallbackImp14QueryInterfaceERK4GUIDPPv
00177e8a W _ZN16COpenCallbackImp17SetSubArchiveNameEPKw
00177780 T _ZN16COpenCallbackImp21CryptoGetTextPasswordEPPw
00177dae W _ZN16COpenCallbackImp6AddRefEv
00177dd2 W _ZN16COpenCallbackImp7ReleaseEv
00177480 T _ZN16COpenCallbackImp8SetTotalEPKyS1_
001778c2 T _ZN16COpenCallbackImp9GetStreamEPKwPP9IInStream
001780f6 W _ZN16COpenCallbackImpD0Ev
00177f30 W _ZN16COpenCallbackImpD1Ev
00177f30 W _ZN16COpenCallbackImpD2Ev
0016e69e W _ZN16CStdInFileStream14QueryInterfaceERK4GUIDPPv
0016e1fa T _ZN16CStdInFileStream4ReadEPvjPj
0016e6f4 W _ZN16CStdInFileStream6AddRefEv
0016e702 W _ZN16CStdInFileStream7ReleaseEv
0016e882 W _ZN16CStdInFileStreamD0Ev
0016e72e W _ZN16CStdInFileStreamD1Ev
0016e72e W _ZN16CStdInFileStreamD2Ev
00154620 T _ZN16CUpdateErrorInfo16SetFromLastErrorEPKc
00154646 T _ZN16CUpdateErrorInfo16SetFromLastErrorEPKcRK7UString
0012a5b0 W _ZN16CUpdateErrorInfoD1Ev
0012a5b0 W _ZN16CUpdateErrorInfoD2Ev
00119a10 W _ZN16NESTED_FILE_INFO5ClearEv
001199ec W _ZN16NESTED_FILE_INFO6IsNullEv
001199e6 W _ZN16NESTED_FILE_INFOD1Ev
001199e6 W _ZN16NESTED_FILE_INFOD2Ev
001388e2 T _ZN17CArcCmdLineParser6Parse1ERK13CObjectVectorI7UStringER18CArcCmdLineOptions
00139b28 T _ZN17CArcCmdLineParser6Parse2ER18CArcCmdLineOptions
001388d0 T _ZN17CArcCmdLineParserC1Ev
001388d0 T _ZN17CArcCmdLineParserC2Ev
0011ddb4 T _ZN17CNestedPEUnpacker11GetEnumTypeEv
0011dd72 T _ZN17CNestedPEUnpacker16IsMatchPackerSigEPb
0011ddbe T _ZN17CNestedPEUnpacker6UnpackEPKcS1_
0011dd9a T _ZN17CNestedPEUnpacker9PrintInfoEv
0011dcba T _ZN17CNestedPEUnpackerC1Ev
0011dcba T _ZN17CNestedPEUnpackerC2Ev
0011dd4e T _ZN17CNestedPEUnpackerD0Ev
0011dd16 T _ZN17CNestedPEUnpackerD1Ev
0011dd16 T _ZN17CNestedPEUnpackerD2Ev
0016e7f0 W _ZN17CStdOutFileStream14QueryInterfaceERK4GUIDPPv
0016e480 T _ZN17CStdOutFileStream5WriteEPKvjPj
0016e846 W _ZN17CStdOutFileStream6AddRefEv
0016e854 W _ZN17CStdOutFileStream7ReleaseEv
0016e892 W _ZN17CStdOutFileStreamD0Ev
0016e880 W _ZN17CStdOutFileStreamD1Ev
0016e880 W _ZN17CStdOutFileStreamD2Ev
0012198c T _ZN18C7zOfficalUnpacker11GetEnumTypeEv
0012184e T _ZN18C7zOfficalUnpacker16IsMatchPackerSigEPb
00121996 T _ZN18C7zOfficalUnpacker5splitERNSt7__cxx1112basic_stringIcSt11char_traitsIcESaIcEEES6_
00121ad0 T _ZN18C7zOfficalUnpacker6UnpackEPKcS1_
00121972 T _ZN18C7zOfficalUnpacker9PrintInfoEv
00121728 T _ZN18C7zOfficalUnpackerC1Ev
00121728 T _ZN18C7zOfficalUnpackerC2Ev
0012182a T _ZN18C7zOfficalUnpackerD0Ev
001217b8 T _ZN18C7zOfficalUnpackerD1Ev
001217b8 T _ZN18C7zOfficalUnpackerD2Ev
0012b336 W _ZN18CArcCmdLineOptionsD1Ev
0012b336 W _ZN18CArcCmdLineOptionsD2Ev
001803d0 W _ZN18CBenchmarkInStream14QueryInterfaceERK4GUIDPPv
001782c6 T _ZN18CBenchmarkInStream4ReadEPvjPj
00180426 W _ZN18CBenchmarkInStream6AddRefEv
00180434 W _ZN18CBenchmarkInStream7ReleaseEv
00180636 W _ZN18CBenchmarkInStreamD0Ev
00180614 W _ZN18CBenchmarkInStreamD1Ev
00180614 W _ZN18CBenchmarkInStreamD2Ev
00178e9a T _ZN18CBenchProgressInfo12SetRatioInfoEPKyS1_
00180580 W _ZN18CBenchProgressInfo14QueryInterfaceERK4GUIDPPv
001805d6 W _ZN18CBenchProgressInfo6AddRefEv
001805e4 W _ZN18CBenchProgressInfo7ReleaseEv
00180626 W _ZN18CBenchProgressInfoD0Ev
00180610 W _ZN18CBenchProgressInfoD1Ev
00180610 W _ZN18CBenchProgressInfoD2Ev
001598d2 W _ZN18COutMultiVolStream14QueryInterfaceERK4GUIDPPv
00153d96 T _ZN18COutMultiVolStream4SeekExjPy
00154728 T _ZN18COutMultiVolStream5CloseEv
00153fc4 T _ZN18COutMultiVolStream5WriteEPKvjPj
00159958 W _ZN18COutMultiVolStream6AddRefEv
00159966 W _ZN18COutMultiVolStream7ReleaseEv
00153e6a T _ZN18COutMultiVolStream7SetSizeEy
00154772 T _ZN18COutMultiVolStream8SetMTimeEPK9_FILETIME
001599cc W _ZN18COutMultiVolStreamD0Ev
00159ab4 W _ZN18COutMultiVolStreamD1Ev
00159ab4 W _ZN18COutMultiVolStreamD2Ev
001764fa W _ZN18COutStreamWithHash14QueryInterfaceERK4GUIDPPv
00172c9e T _ZN18COutStreamWithHash5WriteEPKvjPj
00176550 W _ZN18COutStreamWithHash6AddRefEv
0017655e W _ZN18COutStreamWithHash7ReleaseEv
001767e6 W _ZN18COutStreamWithHashD0Ev
001767b2 W _ZN18COutStreamWithHashD1Ev
001767b2 W _ZN18COutStreamWithHashD2Ev
00116510 T _ZN18CSmartInstUnpacker11GetEnumTypeEv
00116382 T _ZN18CSmartInstUnpacker16IsMatchPackerSigEPb
0011651a T _ZN18CSmartInstUnpacker6UnpackEPKcS1_
001164f6 T _ZN18CSmartInstUnpacker9PrintInfoEv
001162ca T _ZN18CSmartInstUnpackerC1Ev
001162ca T _ZN18CSmartInstUnpackerC2Ev
0011635e T _ZN18CSmartInstUnpackerD0Ev
00116326 T _ZN18CSmartInstUnpackerD1Ev
00116326 T _ZN18CSmartInstUnpackerD2Ev
0012ef0a T _ZN18NCommandLineParser7CParser11ParseStringERK7UStringPKNS_11CSwitchFormE
0012f2e2 T _ZN18NCommandLineParser7CParser12ParseStringsEPKNS_11CSwitchFormERK13CObjectVectorI7UStringE
0012ec88 T _ZN18NCommandLineParser7CParserC1Ej
0012ec88 T _ZN18NCommandLineParser7CParserC2Ej
0012edcc T _ZN18NCommandLineParser7CParserD1Ev
0012edcc T _ZN18NCommandLineParser7CParserD2Ev
00180460 W _ZN19CBenchmarkOutStream14QueryInterfaceERK4GUIDPPv
00178862 T _ZN19CBenchmarkOutStream5WriteEPKvjPj
001804b6 W _ZN19CBenchmarkOutStream6AddRefEv
001804c4 W _ZN19CBenchmarkOutStream7ReleaseEv
00180660 W _ZN19CBenchmarkOutStreamD0Ev
00180646 W _ZN19CBenchmarkOutStreamD1Ev
00180646 W _ZN19CBenchmarkOutStreamD2Ev
0010204e W _ZN19CB_NESTED_FILE_INFOC1Ev
0010204e W _ZN19CB_NESTED_FILE_INFOC2Ev
00102086 W _ZN19CB_NESTED_FILE_INFOD1Ev
00102086 W _ZN19CB_NESTED_FILE_INFOD2Ev
00172250 W _ZN19CBufPtrSeqOutStream14QueryInterfaceERK4GUIDPPv
001718f6 T _ZN19CBufPtrSeqOutStream5WriteEPKvjPj
001722d6 W _ZN19CBufPtrSeqOutStream6AddRefEv
001722e4 W _ZN19CBufPtrSeqOutStream7ReleaseEv
00172500 W _ZN19CBufPtrSeqOutStreamD0Ev
001724da W _ZN19CBufPtrSeqOutStreamD1Ev
001724da W _ZN19CBufPtrSeqOutStreamD2Ev
00172190 W _ZN19CDynBufSeqOutStream14QueryInterfaceERK4GUIDPPv
00171d64 T _ZN19CDynBufSeqOutStream19GetBufPtrForWritingEj
00171da0 T _ZN19CDynBufSeqOutStream5WriteEPKvjPj
00172216 W _ZN19CDynBufSeqOutStream6AddRefEv
00172224 W _ZN19CDynBufSeqOutStream7ReleaseEv
001725de W _ZN19CDynBufSeqOutStreamD0Ev
001725c4 W _ZN19CDynBufSeqOutStreamD1Ev
001725c4 W _ZN19CDynBufSeqOutStreamD2Ev
0015d23e T _ZN19CExtractScanConsole12ScanProgressERK13CDirItemsStatRK7UStringb
0015de6e T _ZN19CExtractScanConsole13StartScanningEv
0015e49c T _ZN19CExtractScanConsole9PrintStatERK13CDirItemsStat
0015d532 T _ZN19CExtractScanConsole9ScanErrorERK7UStringj
0015d07e T _ZN19CPrintBenchCallback10CheckBreakEv
0015d050 T _ZN19CPrintBenchCallback5PrintEPKc
0015d068 T _ZN19CPrintBenchCallback7NewLineEv
0011ac00 T _ZN19CShieldInstUnpacker11GetEnumTypeEv
0011b2aa T _ZN19CShieldInstUnpacker13UnpackAllCabsERSt6vectorI8Cab_InfoSaIS1_EE
0011aebe T _ZN19CShieldInstUnpacker14ExtractAllCabsEPKcS1_RSt6vectorI8Cab_InfoSaIS3_EE
0011c132 T _ZN19CShieldInstUnpacker16ConvertPathSlashEPc
0011a51c T _ZN19CShieldInstUnpacker16IsMatchPackerSigEPb
0011bbf8 T _ZN19CShieldInstUnpacker18EncapsulateCabInfoEjP8Cab_Info
0011c162 T _ZN19CShieldInstUnpacker19ConvertStrPathSlashERNSt7__cxx1112basic_stringIcSt11char_traitsIcESaIcEEE
0011b84c T _ZN19CShieldInstUnpacker22SearchAllCabsInOverlayEjjRSt6vectorI8Cab_InfoSaIS1_EE
0011ac0a T _ZN19CShieldInstUnpacker6UnpackEPKcS1_
0011abe6 T _ZN19CShieldInstUnpacker9PrintInfoEv
0011b5ce T _ZN19CShieldInstUnpacker9UnpackCabEPKcS1_
0011a436 T _ZN19CShieldInstUnpackerC1Ev
0011a436 T _ZN19CShieldInstUnpackerC2Ev
0011a4f8 T _ZN19CShieldInstUnpackerD0Ev
0011a4b2 T _ZN19CShieldInstUnpackerD1Ev
0011a4b2 T _ZN19CShieldInstUnpackerD2Ev
00138460 T _ZN20CArcCmdLineExceptionC1EPKcPKw
00138460 T _ZN20CArcCmdLineExceptionC2EPKcPKw
0013c80c W _ZN20CArcCmdLineExceptionD1Ev
0013c80c W _ZN20CArcCmdLineExceptionD2Ev
0012e00e T _ZN20CCallbackConsoleBase11CommonErrorERK7UStringjb
0012e5a2 T _ZN20CCallbackConsoleBase13PrintProgressEPKwPKcb
0012e154 T _ZN20CCallbackConsoleBase14ScanError_BaseERK7UStringj
0012e33c T _ZN20CCallbackConsoleBase18OpenFileError_BaseERK7UStringj
0012e51c T _ZN20CCallbackConsoleBase21ReadingFileError_BaseERK7UStringj
00129b12 W _ZN20CCallbackConsoleBaseD1Ev
00129b12 W _ZN20CCallbackConsoleBaseD2Ev
0015f3ba T _ZN20CHashCallbackConsole10CheckBreakEv
0015f3c6 T _ZN20CHashCallbackConsole11SetNumFilesEy
0015f3d2 T _ZN20CHashCallbackConsole12ScanProgressERK13CDirItemsStatRK7UStringb
0015f470 T _ZN20CHashCallbackConsole12SetCompletedEPKy
0016000a T _ZN20CHashCallbackConsole13AfterLastFileERK11CHashBundle
0015f50c T _ZN20CHashCallbackConsole13OpenFileErrorERK7UStringj
0015ff68 T _ZN20CHashCallbackConsole13PrintPropertyEPKcy
0015f7ca T _ZN20CHashCallbackConsole13StartScanningEv
0015f72e T _ZN20CHashCallbackConsole14FinishScanningERK13CDirItemsStat
0015f95c T _ZN20CHashCallbackConsole15BeforeFirstFileERK11CHashBundle
0015fb98 T _ZN20CHashCallbackConsole15PrintResultLineEyRK13CObjectVectorI12CHasherStateEjb
0015f84e T _ZN20CHashCallbackConsole18PrintSeparatorLineERK13CObjectVectorI12CHasherStateE
0015fe34 T _ZN20CHashCallbackConsole18SetOperationResultEyRK11CHashBundleb
0015f438 T _ZN20CHashCallbackConsole8SetTotalEy
0015f528 T _ZN20CHashCallbackConsole9GetStreamEPKwb
0015f4ac T _ZN20CHashCallbackConsole9ScanErrorERK7UStringj
00129f40 W _ZN20CHashCallbackConsoleC1Ev
00129f40 W _ZN20CHashCallbackConsoleC2Ev
0012a25c W _ZN20CHashCallbackConsoleD1Ev
0012a25c W _ZN20CHashCallbackConsoleD2Ev
0012c5f4 T _ZN20COpenCallbackConsole13Open_FinishedEv
0012c4f2 T _ZN20COpenCallbackConsole13Open_SetTotalEPKyS1_
0012c4e6 T _ZN20COpenCallbackConsole15Open_CheckBreakEv
0012c56e T _ZN20COpenCallbackConsole17Open_SetCompletedEPKyS1_
0012c61e T _ZN20COpenCallbackConsole26Open_CryptoGetTextPasswordEPPw
001298da W _ZN20COpenCallbackConsoleC1Ev
001298da W _ZN20COpenCallbackConsoleC2Ev
00129adc W _ZN20COpenCallbackConsoleD1Ev
00129adc W _ZN20COpenCallbackConsoleD2Ev
0012c704 T _ZN20CPercentPrinterState13ClearCurStateEv
001298a6 W _ZN20CPercentPrinterStateD1Ev
001298a6 W _ZN20CPercentPrinterStateD2Ev
001793ac T _ZN21CBenchCallbackToPrint15SetDecodeResultERK10CBenchInfob
00179c36 T _ZN21CBenchCallbackToPrint15SetEncodeResultERK10CBenchInfob
0017bf3a T _ZN21CBenchCallbackToPrint5PrintEPKc
0017bf52 T _ZN21CBenchCallbackToPrint7NewLineEv
001787c2 T _ZN21CBenchCallbackToPrint7SetFreqEby
00115b88 T _ZN21CNSISInstallerUpacker11GetEnumTypeEv
00115946 T _ZN21CNSISInstallerUpacker16IsMatchPackerSigEPb
00115d42 T _ZN21CNSISInstallerUpacker6Is64OSEv
00115b92 T _ZN21CNSISInstallerUpacker6UnpackEPKcS1_
00115b6e T _ZN21CNSISInstallerUpacker9PrintInfoEv
0011588e T _ZN21CNSISInstallerUpackerC1Ev
0011588e T _ZN21CNSISInstallerUpackerC2Ev
00115922 T _ZN21CNSISInstallerUpackerD0Ev
001158ea T _ZN21CNSISInstallerUpackerD1Ev
001158ea T _ZN21CNSISInstallerUpackerD2Ev
0013c82a W _ZN21CUpdateArchiveCommandD1Ev
0013c82a W _ZN21CUpdateArchiveCommandD2Ev
00159f80 T _ZN22CArchiveUpdateCallback10GetRawPropEjjPPKvPjS3_
0015b248 T _ZN22CArchiveUpdateCallback10GetStream2EjPP19ISequentialInStreamj
0015a612 T _ZN22CArchiveUpdateCallback11GetPropertyEjjP14tagPROPVARIANT
0015a4fc T _ZN22CArchiveUpdateCallback11GetRootPropEjP14tagPROPVARIANT
0015a112 T _ZN22CArchiveUpdateCallback12SetCompletedEPKy
0015a190 T _ZN22CArchiveUpdateCallback12SetRatioInfoEPKyS1_
0015a03e T _ZN22CArchiveUpdateCallback13GetVolumeSizeEjPy
00159f0e T _ZN22CArchiveUpdateCallback14GetNumRawPropsEPj
00159f32 T _ZN22CArchiveUpdateCallback14GetRawPropInfoEjPPwPj
00159f54 T _ZN22CArchiveUpdateCallback14GetRootRawPropEjPPKvPjS3_
0015bacc W _ZN22CArchiveUpdateCallback14QueryInterfaceERK4GUIDPPv
0015ae8a T _ZN22CArchiveUpdateCallback15GetVolumeStreamEjPP20ISequentialOutStream
0015aa38 T _ZN22CArchiveUpdateCallback15ReportOperationEjjj
0015a412 T _ZN22CArchiveUpdateCallback17GetUpdateItemInfoEjPiS0_Pj
0015a210 T _ZN22CArchiveUpdateCallback18SetOperationResultEi
0015ace4 T _ZN22CArchiveUpdateCallback19ReportExtractResultEjji
0015a306 T _ZN22CArchiveUpdateCallback21CryptoGetTextPasswordEPPw
0015a076 T _ZN22CArchiveUpdateCallback21InFileStream_On_ErrorEmj
0015a286 T _ZN22CArchiveUpdateCallback22CryptoGetTextPassword2EPiPPw
0015b0fc T _ZN22CArchiveUpdateCallback23InFileStream_On_DestroyEm
0015bd3e W _ZN22CArchiveUpdateCallback6AddRefEv
0015bd7e W _ZN22CArchiveUpdateCallback7ReleaseEv
0015a092 T _ZN22CArchiveUpdateCallback8SetTotalEy
00159eec T _ZN22CArchiveUpdateCallback9GetParentEjPjS0_
0015a384 T _ZN22CArchiveUpdateCallback9GetStreamEjPP19ISequentialInStream
0015b8ce T _ZN22CArchiveUpdateCallbackC1Ev
0015b8ce T _ZN22CArchiveUpdateCallbackC2Ev
0015bfec W _ZN22CArchiveUpdateCallbackD0Ev
0015bddc W _ZN22CArchiveUpdateCallbackD1Ev
0015bddc W _ZN22CArchiveUpdateCallbackD2Ev
0016f9f0 W _ZN22CLimitedCachedInStream14QueryInterfaceERK4GUIDPPv
0016f27a T _ZN22CLimitedCachedInStream4ReadEPvjPj
0016f0e8 T _ZN22CLimitedCachedInStream4SeekExjPy
0016fa9c W _ZN22CLimitedCachedInStream6AddRefEv
0016faaa W _ZN22CLimitedCachedInStream7ReleaseEv
0016fe0e W _ZN22CLimitedCachedInStreamD0Ev
0016fd60 W _ZN22CLimitedCachedInStreamD1Ev
0016fd60 W _ZN22CLimitedCachedInStreamD2Ev
0012d02a T _ZN22CUpdateCallbackConsole10CheckBreakEv
0012db3c T _ZN22CUpdateCallbackConsole10OpenResultEPK7CCodecsRK12CArchiveLinkPKwi
0012dee8 T _ZN22CUpdateCallbackConsole11SetNumItemsEy
0012cefe T _ZN22CUpdateCallbackConsole12ScanProgressERK13CDirItemsStatRK7UStringb
0012d042 T _ZN22CUpdateCallbackConsole12SetCompletedEPKy
0012d036 T _ZN22CUpdateCallbackConsole12SetRatioInfoEPKyS1_
0012d9cc T _ZN22CUpdateCallbackConsole12StartArchiveEPKwb
0012d566 T _ZN22CUpdateCallbackConsole13FinishArchiveERK18CFinishArchiveStat
0012e500 T _ZN22CUpdateCallbackConsole13OpenFileErrorERK7UStringj
0012d300 T _ZN22CUpdateCallbackConsole13StartScanningEv
0012d366 T _ZN22CUpdateCallbackConsole14FinishScanningERK13CDirItemsStat
0012e90e T _ZN22CUpdateCallbackConsole14ShowDeleteFileEPKwb
0012e586 T _ZN22CUpdateCallbackConsole16ReadingFileErrorERK7UStringj
0012da90 T _ZN22CUpdateCallbackConsole16StartOpenArchiveEPKw
0012cf70 T _ZN22CUpdateCallbackConsole18SetOperationResultEi
0012d6a8 T _ZN22CUpdateCallbackConsole19ReportExtractResultEiiPKw
0012d0be T _ZN22CUpdateCallbackConsole21CryptoGetTextPasswordEPPw
0012e826 T _ZN22CUpdateCallbackConsole21ReportUpdateOpeartionEjPKwb
0012d1d4 T _ZN22CUpdateCallbackConsole22CryptoGetTextPassword2EPiPPw
0012d804 T _ZN22CUpdateCallbackConsole22DeletingAfterArchivingERK7UStringb
0012ceb2 T _ZN22CUpdateCallbackConsole28FinishDeletingAfterArchivingEv
0012cfa0 T _ZN22CUpdateCallbackConsole8SetTotalEy
0012d452 T _ZN22CUpdateCallbackConsole8WriteSfxEPKwy
0012e78a T _ZN22CUpdateCallbackConsole9GetStreamEPKwbbj
0012e318 T _ZN22CUpdateCallbackConsole9ScanErrorERK7UStringj
00129c46 W _ZN22CUpdateCallbackConsoleC1Ev
00129c46 W _ZN22CUpdateCallbackConsoleC2Ev
0012a456 W _ZN22CUpdateCallbackConsoleD1Ev
0012a456 W _ZN22CUpdateCallbackConsoleD2Ev
001176ec T _ZN22CWiseInstallerUnpacker11GetEnumTypeEv
00117354 T _ZN22CWiseInstallerUnpacker16IsMatchPackerSigEPb
001176f6 T _ZN22CWiseInstallerUnpacker6UnpackEPKcS1_
001176d2 T _ZN22CWiseInstallerUnpacker9PrintInfoEv
0011729c T _ZN22CWiseInstallerUnpackerC1Ev
0011729c T _ZN22CWiseInstallerUnpackerC2Ev
00117330 T _ZN22CWiseInstallerUnpackerD0Ev
001172f8 T _ZN22CWiseInstallerUnpackerD1Ev
001172f8 T _ZN22CWiseInstallerUnpackerD2Ev
00173024 T _ZN23CArchiveExtractCallback12SetCompletedEPKy
00173dee T _ZN23CArchiveExtractCallback12SetDirsTimesEv
00172eba T _ZN23CArchiveExtractCallback12SetRatioInfoEPKyS1_
0017384a T _ZN23CArchiveExtractCallback13GetUnpackSizeEv
0017664a W _ZN23CArchiveExtractCallback14QueryInterfaceERK4GUIDPPv
00172dde T _ZN23CArchiveExtractCallback16PrepareOperationEi
00173b54 T _ZN23CArchiveExtractCallback16SendMessageErrorEPKcRK7UString
00173d04 T _ZN23CArchiveExtractCallback17SendMessageError2EPKcRK7UStringS4_
00173872 T _ZN23CArchiveExtractCallback18SetOperationResultEi
00174be2 T _ZN23CArchiveExtractCallback19ReportExtractResultEjji
00172f40 T _ZN23CArchiveExtractCallback21CryptoGetTextPasswordEPPw
001736ce T _ZN23CArchiveExtractCallback22CreateComplexDirectoryERK13CObjectVectorI7UStringERS1_
00173bf8 T _ZN23CArchiveExtractCallback31SendMessageError_with_LastErrorEPKcRK7UString
0017323c T _ZN23CArchiveExtractCallback4InitERK17CExtractNtOptionsPKN9NWildcard11CCensorNodeEPK4CArcP29IFolderArchiveExtractCallbackbbRK7UStringRK13CObjectVectorISC_Eby
0017674a W _ZN23CArchiveExtractCallback6AddRefEv
0017377a T _ZN23CArchiveExtractCallback7GetTimeEijR9_FILETIMERb
0017676e W _ZN23CArchiveExtractCallback7ReleaseEv
00172d28 T _ZN23CArchiveExtractCallback8SetTotalEy
00174f62 T _ZN23CArchiveExtractCallback9GetStreamEjPP20ISequentialOutStreami
0017428a T _ZN23CArchiveExtractCallbackC1Ev
0017428a T _ZN23CArchiveExtractCallbackC2Ev
00176d3a W _ZN23CArchiveExtractCallbackD0Ev
00176854 W _ZN23CArchiveExtractCallbackD1Ev
00176854 W _ZN23CArchiveExtractCallbackD2Ev
0015d778 T _ZN23CExtractCallbackConsole10BeforeOpenEPKwb
0015eb20 T _ZN23CExtractCallbackConsole10OpenResultEPK7CCodecsRK12CArchiveLinkPKwi
0015d200 T _ZN23CExtractCallbackConsole11SetPasswordERK7UString
0015e256 T _ZN23CExtractCallbackConsole12AskOverwriteEPKwPK9_FILETIMEPKyS1_S4_S6_Pi
0015d672 T _ZN23CExtractCallbackConsole12MessageErrorEPKw
0015d316 T _ZN23CExtractCallbackConsole12SetCompletedEPKy
0015db66 T _ZN23CExtractCallbackConsole13ExtractResultEi
0015f0f6 W _ZN23CExtractCallbackConsole14QueryInterfaceERK4GUIDPPv
0015d492 T _ZN23CExtractCallbackConsole15ThereAreNoFilesEv
0015d8aa T _ZN23CExtractCallbackConsole16PrepareOperationEPKwiiPKy
0015e64c T _ZN23CExtractCallbackConsole18SetOperationResultEii
0015d392 T _ZN23CExtractCallbackConsole19ReportExtractResultEiiPKw
0015d3dc T _ZN23CExtractCallbackConsole21CryptoGetTextPasswordEPPw
0015f1e8 W _ZN23CExtractCallbackConsole6AddRefEv
0015f20a W _ZN23CExtractCallbackConsole7ReleaseEv
0015d29e T _ZN23CExtractCallbackConsole8SetTotalEy
0015f2f2 W _ZN23CExtractCallbackConsoleD0Ev
0015f24a W _ZN23CExtractCallbackConsoleD1Ev
0015f24a W _ZN23CExtractCallbackConsoleD2Ev
00153e0a T _ZN25CUpdateProduceCallbackImp14ShowDeleteFileEj
00114160 T _ZN26CAdvancedInstallerUnpacker11GetEnumTypeEv
00113f08 T _ZN26CAdvancedInstallerUnpacker16IsMatchPackerSigEPb
0011416a T _ZN26CAdvancedInstallerUnpacker6UnpackEPKcS1_
00114146 T _ZN26CAdvancedInstallerUnpacker9PrintInfoEv
00113e80 T _ZN26CAdvancedInstallerUnpackerC1Ev
00113e80 T _ZN26CAdvancedInstallerUnpackerC2Ev
00113ee4 T _ZN26CAdvancedInstallerUnpackerD0Ev
00113eac T _ZN26CAdvancedInstallerUnpackerD1Ev
00113eac T _ZN26CAdvancedInstallerUnpackerD2Ev
0016f4d8 W _ZN26CLimitedSequentialInStream14QueryInterfaceERK4GUIDPPv
0016e8f0 T _ZN26CLimitedSequentialInStream4ReadEPvjPj
0016f55e W _ZN26CLimitedSequentialInStream6AddRefEv
0016f56c W _ZN26CLimitedSequentialInStream7ReleaseEv
0016fd00 W _ZN26CLimitedSequentialInStreamD0Ev
0016fc4c W _ZN26CLimitedSequentialInStreamD1Ev
0016fc4c W _ZN26CLimitedSequentialInStreamD2Ev
001489da T _ZN27CArchiveOpenCallback_Offset11GetPropertyEjP14tagPROPVARIANT
00147e60 T _ZN27CArchiveOpenCallback_Offset12SetCompletedEPKyS1_
00152ab4 W _ZN27CArchiveOpenCallback_Offset14QueryInterfaceERK4GUIDPPv
00148048 T _ZN27CArchiveOpenCallback_Offset21CryptoGetTextPasswordEPPw
00152ba4 W _ZN27CArchiveOpenCallback_Offset6AddRefEv
00152bc0 W _ZN27CArchiveOpenCallback_Offset7ReleaseEv
00147e5a T _ZN27CArchiveOpenCallback_Offset8SetTotalEPKyS1_
00147ed2 T _ZN27CArchiveOpenCallback_Offset9GetStreamEPKwPP9IInStream
00152e1a W _ZN27CArchiveOpenCallback_OffsetD0Ev
00152d30 W _ZN27CArchiveOpenCallback_OffsetD1Ev
00152d30 W _ZN27CArchiveOpenCallback_OffsetD2Ev
0016f84a W _ZN27CLimitedSequentialOutStream14QueryInterfaceERK4GUIDPPv
0016eed4 T _ZN27CLimitedSequentialOutStream5WriteEPKvjPj
0016f8d0 W _ZN27CLimitedSequentialOutStream6AddRefEv
0016f8de W _ZN27CLimitedSequentialOutStream7ReleaseEv
0016fd30 W _ZN27CLimitedSequentialOutStreamD0Ev
0016fc04 W _ZN27CLimitedSequentialOutStreamD1Ev
0016fc04 W _ZN27CLimitedSequentialOutStreamD2Ev
00172310 W _ZN29CSequentialOutStreamSizeCount14QueryInterfaceERK4GUIDPPv
001717cc T _ZN29CSequentialOutStreamSizeCount5WriteEPKvjPj
00172396 W _ZN29CSequentialOutStreamSizeCount6AddRefEv
001723a4 W _ZN29CSequentialOutStreamSizeCount7ReleaseEv
00172540 W _ZN29CSequentialOutStreamSizeCountD0Ev
001724b6 W _ZN29CSequentialOutStreamSizeCountD1Ev
001724b6 W _ZN29CSequentialOutStreamSizeCountD2Ev
00147f0a T _ZN32CExtractCallback_To_OpenCallback12SetCompletedEPKy
00147f10 T _ZN32CExtractCallback_To_OpenCallback12SetRatioInfoEPKyS1_
00152bfa W _ZN32CExtractCallback_To_OpenCallback14QueryInterfaceERK4GUIDPPv
00147f9a T _ZN32CExtractCallback_To_OpenCallback16PrepareOperationEi
00147fa0 T _ZN32CExtractCallback_To_OpenCallback18SetOperationResultEi
00152cb4 W _ZN32CExtractCallback_To_OpenCallback6AddRefEv
00152cca W _ZN32CExtractCallback_To_OpenCallback7ReleaseEv
00147f04 T _ZN32CExtractCallback_To_OpenCallback8SetTotalEy
00147f8a T _ZN32CExtractCallback_To_OpenCallback9GetStreamEjPP20ISequentialOutStreami
00152ddc W _ZN32CExtractCallback_To_OpenCallbackD0Ev
00152cfe W _ZN32CExtractCallback_To_OpenCallbackD1Ev
00152cfe W _ZN32CExtractCallback_To_OpenCallbackD2Ev
0014fac8 T _ZN4CArc10OpenStreamERK12COpenOptions
0014bee2 T _ZN4CArc11OpenStream2ERK12COpenOptions
0014af7a T _ZN4CArc13PrepareToOpenERK12COpenOptionsjR9CMyComPtrI10IInArchiveE
0014b1f4 T _ZN4CArc14CheckZerosTailERK12COpenOptionsy
0014aad4 T _ZN4CArc14ReadBasicPropsEP10IInArchiveyi
0014fe2a T _ZN4CArc16OpenStreamOrFileER12COpenOptions
0014b578 T _ZN4CArc6ReOpenERK12COpenOptions
00152fd2 W _ZN4CArcD1Ev
00152fd2 W _ZN4CArcD2Ev
001146a4 T _ZN5C7zip11GetEnumTypeEv
001144f2 T _ZN5C7zip16IsMatchPackerSigEPb
00114854 T _ZN5C7zip6Is64OSEv
001146ae T _ZN5C7zip6UnpackEPKcS1_
0011468a T _ZN5C7zip9PrintInfoEv
0011443a T _ZN5C7zipC1Ev
0011443a T _ZN5C7zipC2Ev
001144ce T _ZN5C7zipD0Ev
00114496 T _ZN5C7zipD1Ev
00114496 T _ZN5C7zipD2Ev
00170456 T _ZN6CProps9AddProp32Ejj
001307fa T _ZN7AString10RemoveCharEc
0012ffac T _ZN7AString11InsertSpaceERjj
0012ff24 T _ZN7AString11SetStartLenEj
00130996 T _ZN7AString13DeleteFrontalEj
00130728 T _ZN7AString13InsertAtFrontEc
00130580 T _ZN7AString15SetFrom_CalcLenEPKcj
00130370 T _ZN7AString20SetFromWStr_if_AsciiEPKw
0013043e T _ZN7AString21Add_Space_if_NotEmptyEv
0012ff72 T _ZN7AString4GrowEj
0013045c T _ZN7AString6Add_LFEv
0013089a T _ZN7AString6DeleteEj
001308c4 T _ZN7AString6DeleteEjj
0012ff4e T _ZN7AString6Grow_1Ev
00130770 T _ZN7AString6InsertEjPKc
001307bc T _ZN7AString6InsertEjRKS_
0012fe44 T _ZN7AString7ReAllocEj
0013083c T _ZN7AString7ReplaceEcc
0013090a T _ZN7AString7ReplaceERKS_S1_
00130524 T _ZN7AString7SetFromEPKcj
0012fec2 T _ZN7AString8ReAlloc2Ej
0013067e T _ZN7AString8TrimLeftEv
00130408 T _ZN7AString9Add_SpaceEv
001306d2 T _ZN7AString9TrimRightEv
0013023a T _ZN7AStringaSEc
0013028e T _ZN7AStringaSEPKc
0013030a T _ZN7AStringaSERKS_
00130190 T _ZN7AStringC1Ec
0012ffe8 T _ZN7AStringC1EjRKS_
001301b8 T _ZN7AStringC1EPKc
00130068 T _ZN7AStringC1EPKcjS1_j
00130206 T _ZN7AStringC1ERKS_
00130024 T _ZN7AStringC1ERKS_c
00130162 T _ZN7AStringC1Ev
00130190 T _ZN7AStringC2Ec
0012ffe8 T _ZN7AStringC2EjRKS_
001301b8 T _ZN7AStringC2EPKc
00130068 T _ZN7AStringC2EPKcjS1_j
00130206 T _ZN7AStringC2ERKS_
00130024 T _ZN7AStringC2ERKS_c
00130162 T _ZN7AStringC2Ev
0016c656 W _ZN7AStringD1Ev
0016c656 W _ZN7AStringD2Ev
00130492 T _ZN7AStringpLEPKc
001304e4 T _ZN7AStringpLERKS_
0015339c W _ZN7CBufferIhE5AllocEj
00144b5e T _ZN7CCodecs10LoadCodecsEv
001453b4 T _ZN7CCodecs11GetCodec_IdEjRy
00145512 T _ZN7CCodecs11GetHasherIdEj
001445be T _ZN7CCodecs11GetPropertyEjjP14tagPROPVARIANT
00145a16 T _ZN7CCodecs11LoadFormatsEv
0014414a T _ZN7CCodecs12CreateHasherEjPP7IHasher
00144052 T _ZN7CCodecs13CreateDecoderEjPK4GUIDPPv
001440aa T _ZN7CCodecs13CreateEncoderEjPK4GUIDPPv
00145458 T _ZN7CCodecs13GetCodec_NameEj
001455ac T _ZN7CCodecs13GetHasherNameEj
00144112 T _ZN7CCodecs13GetHasherPropEjjP14tagPROPVARIANT
00144102 T _ZN7CCodecs13GetNumHashersEv
0014403e T _ZN7CCodecs13GetNumMethodsEPj
0014766a W _ZN7CCodecs14QueryInterfaceERK4GUIDPPv
001452ea T _ZN7CCodecs17GetHasherLibIndexEj
001468e0 T _ZN7CCodecs18LoadDllsFromFolderERK7UString
0014531e T _ZN7CCodecs19GetCodec_NumStreamsEj
00145666 T _ZN7CCodecs19GetHasherDigestSizeEj
00146b8e T _ZN7CCodecs4LoadEv
00147724 W _ZN7CCodecs6AddRefEv
00146676 T _ZN7CCodecs7LoadDllERK7UStringbPb
0014773a W _ZN7CCodecs7ReleaseEv
00144eba T _ZN7CCodecs9CloseLibsEv
001479e8 W _ZN7CCodecsD0Ev
0014776e W _ZN7CCodecsD1Ev
0014776e W _ZN7CCodecsD2Ev
00116fc2 T _ZN7CWinRar11GetEnumTypeEv
00116df4 T _ZN7CWinRar16IsMatchPackerSigEPb
00116fcc T _ZN7CWinRar6UnpackEPKcS1_
00116fa8 T _ZN7CWinRar9PrintInfoEv
00116d3c T _ZN7CWinRarC1Ev
00116d3c T _ZN7CWinRarC2Ev
00116dd0 T _ZN7CWinRarD0Ev
00116d98 T _ZN7CWinRarD1Ev
00116d98 T _ZN7CWinRarD2Ev
00118fc2 T _ZN7CWinZip11GetEnumTypeEv
00119306 T _ZN7CWinZip14DumpPEFromRsrcERKNSt7__cxx1112basic_stringIcSt11char_traitsIcESaIcEEE
00119a2a W _ZN7CWinZip15ResetExtractNumEv
00118c0c T _ZN7CWinZip16IsMatchPackerSigEPb
00119666 T _ZN7CWinZip17GetFileInRsrcInfoEN7peparse16nested_file_typeEPFbPvERSt6vectorI16NESTED_FILE_INFOSaIS6_EE
001194b6 T _ZN7CWinZip18DumpWinZipFromRsrcERKNSt7__cxx1112basic_stringIcSt11char_traitsIcESaIcEEE
001192a4 T _ZN7CWinZip18ExtractPEAndWinzipERKNSt7__cxx1112basic_stringIcSt11char_traitsIcESaIcEEES7_
0011973c T _ZN7CWinZip26CreateTempOutputPathStringERKNSt7__cxx1112basic_stringIcSt11char_traitsIcESaIcEEERS5_
00118fcc T _ZN7CWinZip6UnpackEPKcS1_
00118fa8 T _ZN7CWinZip9PrintInfoEv
001189f4 T _ZN7CWinZipC1Ev
001189f4 T _ZN7CWinZipC2Ev
00118ac0 T _ZN7CWinZipD0Ev
00118a7a T _ZN7CWinZipD1Ev
00118a7a T _ZN7CWinZipD2Ev
000e9fa0 T _ZN7peparse10from_utf16ERKNSt7__cxx1112basic_stringIDsSt11char_traitsIDsESaIDsEEE
000f490a T _ZN7peparse10getExportsEPNS_10_parsed_peE
000f59a2 T _ZN7peparse10getImportsEPNS_10_parsed_peE
000f9420 T _ZN7peparse10IterRelocsEPNS_10_parsed_peEPFiPvRKyRKNS_10reloc_typeEES2_
0010300c W _ZN7peparse10_parsed_peC1Ev
0010300c W _ZN7peparse10_parsed_peC2Ev
0010309a W _ZN7peparse10_parsed_peD1Ev
0010309a W _ZN7peparse10_parsed_peD2Ev
00102fd4 W _ZN7peparse10_pe_headerC1Ev
00102fd4 W _ZN7peparse10_pe_headerC2Ev
00102ff0 W _ZN7peparse10_pe_headerD1Ev
00102ff0 W _ZN7peparse10_pe_headerD2Ev
000ea98e T _ZN7peparse10readChar16EPNS_15_bounded_bufferEjRDs
000eb8b4 T _ZN7peparse11GetPEErrLocB5cxx11Ev
000ebab7 T _ZN7peparse11getSecForVAERKSt6vectorINS_7sectionESaIS1_EEyRS1_
000ed346 T _ZN7peparse11getSectionsEPNS_15_bounded_bufferES1_RNS_12nt_header_32ERSt6vectorINS_7sectionESaIS5_EE
000f94eb T _ZN7peparse11IterSymbolsEPNS_10_parsed_peEPFiPvRKNSt7__cxx1112basic_stringIcSt11char_traitsIcESaIcEEERKjRKsRKtRKhSI_ES2_
00102f9c W _ZN7peparse11rich_headerC1Ev
00102f9c W _ZN7peparse11rich_headerC2Ev
00102fb8 W _ZN7peparse11rich_headerD1Ev
00102fb8 W _ZN7peparse11rich_headerD2Ev
000eb3a5 T _ZN7peparse11splitBufferEPNS_15_bounded_bufferEjj
000eb440 T _ZN7peparse12deleteBufferEPNS_15_bounded_bufferE
000ed1d2 T _ZN7peparse12getResourcesEPNS_15_bounded_bufferES1_St6vectorINS_7sectionESaIS3_EERS2_INS_8resourceESaIS6_EE
000f9784 T _ZN7peparse12ReadByteAtVAEPNS_10_parsed_peEyRh
000f1afc T _ZN7peparse12readNtHeaderEPNS_15_bounded_bufferERNS_12nt_header_32E
0010ffcc W _ZN7peparse13aux_symbol_f4C1EOS0_
00109cca W _ZN7peparse13aux_symbol_f4C1ERKS0_
00102f64 W _ZN7peparse13aux_symbol_f4C1Ev
0010ffcc W _ZN7peparse13aux_symbol_f4C2EOS0_
00109cca W _ZN7peparse13aux_symbol_f4C2ERKS0_
00102f64 W _ZN7peparse13aux_symbol_f4C2Ev
00102f80 W _ZN7peparse13aux_symbol_f4D1Ev
00102f80 W _ZN7peparse13aux_symbol_f4D2Ev
000f992e T _ZN7peparse13GetEntryPointEPNS_10_parsed_peERy
000f2852 T _ZN7peparse13readDosHeaderEPNS_15_bounded_bufferERNS_10dos_headerE
000eb826 T _ZN7peparse14GetPEErrStringB5cxx11Ev
000f55eb T _ZN7peparse14getRelocationsEPNS_10_parsed_peE
000f6c0e T _ZN7peparse14getSymbolTableEPNS_10_parsed_peE
000f14b5 T _ZN7peparse14readFileHeaderEPNS_15_bounded_bufferERNS_11file_headerE
000f2320 T _ZN7peparse14readRichHeaderEPNS_15_bounded_bufferEjRNS_11rich_headerE
000f9351 T _ZN7peparse15IterImpVAStringEPNS_10_parsed_peEPFiPvRKyRKNSt7__cxx1112basic_stringIcSt11char_traitsIcESaIcEEESC_ES2_
000f8fcd T _ZN7peparse15ParsePEFromFileEPKc
000f913b T _ZN7peparse16DestructParsedPEEPNS_10_parsed_peE
000eb70e T _ZN7peparse17GetRichObjectTypeB5cxx11Et
000f8764 T _ZN7peparse17ParsePEFromBufferEPNS_15_bounded_bufferE
000ebdc9 T _ZN7peparse17parse_resource_idEPNS_15_bounded_bufferEjRNSt7__cxx1112basic_stringIcSt11char_traitsIcESaIcEEE
000f9aab T _ZN7peparse18GetMachineAsStringEPNS_10_parsed_peE
000eb795 T _ZN7peparse18GetRichProductNameB5cxx11Et
00103028 W _ZN7peparse18parsed_pe_internalC1Ev
00103028 W _ZN7peparse18parsed_pe_internalC2Ev
00103190 W _ZN7peparse18parsed_pe_internalD1Ev
00103190 W _ZN7peparse18parsed_pe_internalD2Ev
000f9104 T _ZN7peparse18ParsePEFromPointerEPhj
000edfda T _ZN7peparse18readOptionalHeaderEPNS_15_bounded_bufferERNS_18optional_header_32E
00101fde W _ZN7peparse18resource_dir_entryC1Ev
00101fde W _ZN7peparse18resource_dir_entryC2Ev
00102d34 W _ZN7peparse18resource_dir_entryD1Ev
00102d34 W _ZN7peparse18resource_dir_entryD2Ev
000f9b2b T _ZN7peparse20GetSubsystemAsStringEPNS_10_parsed_peE
000ebf12 T _ZN7peparse20parse_resource_tableEPNS_15_bounded_bufferEjjjPNS_18resource_dir_entryERSt6vectorINS_8resourceESaIS5_EE
000eabb0 T _ZN7peparse20readFileToFileBufferEPKc
000efab6 T _ZN7peparse20readOptionalHeader64EPNS_15_bounded_bufferERNS_18optional_header_64E
000f21f6 T _ZN7peparse21calculateRichChecksumEPKNS_15_bounded_bufferERNS_10_pe_headerE
000f9c0d T _ZN7peparse21GetDataDirectoryEntryEPNS_10_parsed_peENS_19data_directory_kindERSt6vectorIhSaIhEE
000eb18d T _ZN7peparse21makeBufferFromPointerEPhj
000eb8d4 T _ZN7peparse30GetSymbolTableStorageClassNameEh
002bd124 B _ZN7peparse3errE
000eb4ab T _ZN7peparse6bufLenEPNS_15_bounded_bufferE
0010fdae W _ZN7peparse6symbolC1EOS0_
0010934c W _ZN7peparse6symbolC1ERKS0_
00102e80 W _ZN7peparse6symbolC1Ev
0010fdae W _ZN7peparse6symbolC2EOS0_
0010934c W _ZN7peparse6symbolC2ERKS0_
00102e80 W _ZN7peparse6symbolC2Ev
00102ef2 W _ZN7peparse6symbolD1Ev
00102ef2 W _ZN7peparse6symbolD2Ev
002bd128 B _ZN7peparse7err_locB5cxx11E
000f96aa T _ZN7peparse7IterSecEPNS_10_parsed_peEPFiPvRKyRKNSt7__cxx1112basic_stringIcSt11char_traitsIcESaIcEEERKNS_20image_section_headerEPKNS_15_bounded_bufferEES2_
0010b9b6 W _ZN7peparse7sectionaSEOS0_
00102cb6 W _ZN7peparse7sectionaSERKS0_
0010b93a W _ZN7peparse7sectionC1EOS0_
00102c22 W _ZN7peparse7sectionC1ERKS0_
00102db0 W _ZN7peparse7sectionC1Ev
0010b93a W _ZN7peparse7sectionC2EOS0_
00102c22 W _ZN7peparse7sectionC2ERKS0_
00102db0 W _ZN7peparse7sectionC2Ev
00102c9e W _ZN7peparse7sectionD1Ev
00102c9e W _ZN7peparse7sectionD2Ev
000eb81c T _ZN7peparse8GetPEErrEv
000ebc4e T _ZN7peparse8IterRichEPNS_10_parsed_peEPFiPvRKNS_10rich_entryEES2_
000ebd07 T _ZN7peparse8IterRsrcEPNS_10_parsed_peEPFiPvRKNS_8resourceEES2_
000ea194 T _ZN7peparse8readByteEPNS_15_bounded_bufferEjRh
000ea36d T _ZN7peparse8readWordEPNS_15_bounded_bufferEjRt
0010f7c0 W _ZN7peparse8resourceC1EOS0_
001030b6 W _ZN7peparse8resourceC1ERKS0_
0010208c W _ZN7peparse8resourceC1Ev
0010f7c0 W _ZN7peparse8resourceC2EOS0_
001030b6 W _ZN7peparse8resourceC2ERKS0_
0010208c W _ZN7peparse8resourceC2Ev
00102d74 W _ZN7peparse8resourceD1Ev
00102d74 W _ZN7peparse8resourceD2Ev
000fc532 T _ZN7peparse9CPEParser11GetManifestEv
000fb860 T _ZN7peparse9CPEParser11GetPEPESizeEPj
000fbc48 T _ZN7peparse9CPEParser11HasNestedPEEv
000fa596 T _ZN7peparse9CPEParser12GetNPEBufferEPKc
000fc0e2 T _ZN7peparse9CPEParser12HasNestedZipEv
000fbea8 T _ZN7peparse9CPEParser12IsMatchPESigEPKcj
000fb606 T _ZN7peparse9CPEParser13GetPEFileSizeEPj
000fa894 T _ZN7peparse9CPEParser14GetOverlaySizeEPj
000fb48c T _ZN7peparse9CPEParser15GetEPFileOffsetEPj
000fb2d4 T _ZN7peparse9CPEParser15GetEPVirtOffsetEPj
000fa780 T _ZN7peparse9CPEParser15GetNPEBufferPtrEv
000fbc68 T _ZN7peparse9CPEParser15HasNestedWinzipEv
000faeb6 T _ZN7peparse9CPEParser16GetOverlayOffsetEPj
000fc01c T _ZN7peparse9CPEParser16IsMatchWinZipSigEPKcj
000fc4d8 T _ZN7peparse9CPEParser16IsOverlayPresentEv
000fc7d4 T _ZN7peparse9CPEParser18GetVersionInfoNameE12VERSION_INFORNSt7__cxx1112basic_stringIcSt11char_traitsIcESaIcEEE
000fbc88 T _ZN7peparse9CPEParser18TraverseNestedFileENS_16nested_file_typeEbPFbPvEPci
000fcc80 T _ZN7peparse9CPEParser19GetNestedFileInRsrcENS_16nested_file_typeEPFbPvEPci
000fcc3c T _ZN7peparse9CPEParser19HasNestedFileInRsrcENS_16nested_file_typeE
000fbaa4 T _ZN7peparse9CPEParser22VirtOffsetToFileOffsetEjPj
000fc946 T _ZN7peparse9CPEParser29SearchVersionInfoNameInBufferEPKhj12VERSION_INFORNSt7__cxx1112basic_stringIcSt11char_traitsIcESaIcEEE
000fa7b4 T _ZN7peparse9CPEParser5ClearEv
000fa38e T _ZN7peparse9CPEParser5ParseEPKc
00103202 W _ZN7peparse9CPEParser8DecToHexEh
000fc1f0 T _ZN7peparse9CPEParser8ReadByteEjPh
000fa7a6 T _ZN7peparse9CPEParser9GetBufferEv
000fc0ec T _ZN7peparse9CPEParser9ReadDWordEjPj
000fa332 T _ZN7peparse9CPEParserC1Ev
000fa332 T _ZN7peparse9CPEParserC2Ev
000fa360 T _ZN7peparse9CPEParserD1Ev
000fa360 T _ZN7peparse9CPEParserD2Ev
0010faa6 W _ZN7peparse9exportentC1EOS0_
00108920 W _ZN7peparse9exportentC1ERKS0_
00102dc8 W _ZN7peparse9exportentC1Ev
0010faa6 W _ZN7peparse9exportentC2EOS0_
00108920 W _ZN7peparse9exportentC2ERKS0_
00102dc8 W _ZN7peparse9exportentC2Ev
00102df6 W _ZN7peparse9exportentD1Ev
00102df6 W _ZN7peparse9exportentD2Ev
000f4361 T _ZN7peparse9getHeaderEPNS_15_bounded_bufferERNS_10_pe_headerERS1_
0010fbae W _ZN7peparse9importentC1EOS0_
00108dec W _ZN7peparse9importentC1ERKS0_
00102e24 W _ZN7peparse9importentC1Ev
0010fbae W _ZN7peparse9importentC2EOS0_
00108dec W _ZN7peparse9importentC2ERKS0_
00102e24 W _ZN7peparse9importentC2Ev
00102e52 W _ZN7peparse9importentD1Ev
00102e52 W _ZN7peparse9importentD2Ev
000f95db T _ZN7peparse9IterExpVAEPNS_10_parsed_peEPFiPvRKyRKNSt7__cxx1112basic_stringIcSt11char_traitsIcESaIcEEESC_ES2_
000ea576 T _ZN7peparse9readDwordEPNS_15_bounded_bufferEjRj
000ea77b T _ZN7peparse9readQwordEPNS_15_bounded_bufferEjRy
0013150a T _ZN7UString10RemoveCharEw
00130b70 T _ZN7UString11InsertSpaceEjj
00130fa8 T _ZN7UString11SetFromBstrEPw
00130ad2 T _ZN7UString11SetStartLenEj
001311b8 T _ZN7UString12SetFromAsciiEPKc
001316b4 T _ZN7UString13DeleteFrontalEj
00131434 T _ZN7UString13InsertAtFrontEw
0013105a T _ZN7UString21Add_Space_if_NotEmptyEv
00130b36 T _ZN7UString4GrowEj
00131078 T _ZN7UString6Add_LFEv
0013159e T _ZN7UString6DeleteEj
001315dc T _ZN7UString6DeleteEjj
00130b12 T _ZN7UString6Grow_1Ev
0013147c T _ZN7UString6InsertEjPKw
001314ca T _ZN7UString6InsertEjRKS_
001309cc T _ZN7UString7ReAllocEj
00131628 T _ZN7UString7ReplaceERKS_S1_
0013154e T _ZN7UString7ReplaceEww
00131144 T _ZN7UString7SetFromEPKwj
00131256 T _ZN7UString8AddAsciiEPKc
00130a58 T _ZN7UString8ReAlloc2Ej
00131388 T _ZN7UString8TrimLeftEv
0013101e T _ZN7UString9Add_SpaceEv
001313e4 T _ZN7UString9TrimRightEv
00130ea6 T _ZN7UStringaSEPKw
00130f30 T _ZN7UStringaSERKS_
00130e4c T _ZN7UStringaSEw
00130bb2 T _ZN7UStringC1EjPKw
00130c06 T _ZN7UStringC1EjRKS_
00130dd6 T _ZN7UStringC1EPKw
00130c86 T _ZN7UStringC1EPKwjS1_j
00130e1c T _ZN7UStringC1ERKS_
00130c44 T _ZN7UStringC1ERKS_w
00130d80 T _ZN7UStringC1Ev
00130db0 T _ZN7UStringC1Ew
00130bb2 T _ZN7UStringC2EjPKw
00130c06 T _ZN7UStringC2EjRKS_
00130dd6 T _ZN7UStringC2EPKw
00130c86 T _ZN7UStringC2EPKwjS1_j
00130e1c T _ZN7UStringC2ERKS_
00130c44 T _ZN7UStringC2ERKS_w
00130d80 T _ZN7UStringC2Ev
00130db0 T _ZN7UStringC2Ew
00128a08 W _ZN7UStringD1Ev
00128a08 W _ZN7UStringD2Ev
001310b4 T _ZN7UStringpLEPKw
00131106 T _ZN7UStringpLERKS_
00176816 W _ZN7UStringpLEw
0011db5c W _ZN8Cab_InfoC1EOS_
0011c2fe W _ZN8Cab_InfoC1ERKS_
0011c46c W _ZN8Cab_InfoC1Ev
0011db5c W _ZN8Cab_InfoC2EOS_
0011c2fe W _ZN8Cab_InfoC2ERKS_
0011c46c W _ZN8Cab_InfoC2Ev
0011c40c W _ZN8Cab_InfoD1Ev
0011c40c W _ZN8Cab_InfoD2Ev
0017658a W _ZN8CGetProp14QueryInterfaceERK4GUIDPPv
00176610 W _ZN8CGetProp6AddRefEv
00172d06 T _ZN8CGetProp7GetPropEjP14tagPROPVARIANT
0017661e W _ZN8CGetProp7ReleaseEv
001767d6 W _ZN8CGetPropD0Ev
001767b0 W _ZN8CGetPropD1Ev
001767b0 W _ZN8CGetPropD2Ev
00152ece W _ZN8NArchive7NParser10CParseItemC1Ev
00152ece W _ZN8NArchive7NParser10CParseItemC2Ev
00152f78 W _ZN8NArchive7NParser10CParseItemD1Ev
00152f78 W _ZN8NArchive7NParser10CParseItemD2Ev
00148b2c T _ZN8NArchive7NParser8CHandler11GetPropertyEjjP14tagPROPVARIANT
00148f5e T _ZN8NArchive7NParser8CHandler14AddUnknownItemEy
001529b0 W _ZN8NArchive7NParser8CHandler14QueryInterfaceERK4GUIDPPv
00147de6 T _ZN8NArchive7NParser8CHandler15GetPropertyInfoEjPPwPjPt
00147e46 T _ZN8NArchive7NParser8CHandler16GetNumberOfItemsEPj
00147e36 T _ZN8NArchive7NParser8CHandler18GetArchivePropertyEjP14tagPROPVARIANT
00147dd6 T _ZN8NArchive7NParser8CHandler21GetNumberOfPropertiesEPj
00147e30 T _ZN8NArchive7NParser8CHandler22GetArchivePropertyInfoEjPPwPjPt
00147e20 T _ZN8NArchive7NParser8CHandler28GetNumberOfArchivePropertiesEPj
00147fa6 T _ZN8NArchive7NParser8CHandler4OpenEP9IInStreamPKyP20IArchiveOpenCallback
00148a74 T _ZN8NArchive7NParser8CHandler5CloseEv
00152a6a W _ZN8NArchive7NParser8CHandler6AddRefEv
001492fc T _ZN8NArchive7NParser8CHandler7AddItemERKNS0_10CParseItemE
0014836c T _ZN8NArchive7NParser8CHandler7ExtractEPKjjiP23IArchiveExtractCallback
00152a80 W _ZN8NArchive7NParser8CHandler7ReleaseEv
00148946 T _ZN8NArchive7NParser8CHandler9GetStreamEjPP19ISequentialInStream
0015329a W _ZN8NArchive7NParser8CHandlerD0Ev
001531a6 W _ZN8NArchive7NParser8CHandlerD1Ev
001531a6 W _ZN8NArchive7NParser8CHandlerD2Ev
0012e986 W _ZN8NWindows16NSynchronization16CCriticalSectionD1Ev
0012e986 W _ZN8NWindows16NSynchronization16CCriticalSectionD2Ev
0016d27e T _ZN8NWindows4NCOM12CPropVariant12InternalCopyEPK14tagPROPVARIANT
0016ced2 T _ZN8NWindows4NCOM12CPropVariant13InternalClearEv
0016cdd8 T _ZN8NWindows4NCOM12CPropVariant4CopyEPK14tagPROPVARIANT
0016cdb6 T _ZN8NWindows4NCOM12CPropVariant5ClearEv
0016ce4c T _ZN8NWindows4NCOM12CPropVariant6AttachEP14tagPROPVARIANT
0016ce8c T _ZN8NWindows4NCOM12CPropVariant6DetachEP14tagPROPVARIANT
0016d334 T _ZN8NWindows4NCOM12CPropVariant7CompareERKS1_
0016d0f4 T _ZN8NWindows4NCOM12CPropVariant9AllocBstrEj
0016d0be T _ZN8NWindows4NCOM12CPropVariantaSEb
0016d156 T _ZN8NWindows4NCOM12CPropVariantaSEh
0016d188 T _ZN8NWindows4NCOM12CPropVariantaSEi
0016d1b6 T _ZN8NWindows4NCOM12CPropVariantaSEj
0016d068 T _ZN8NWindows4NCOM12CPropVariantaSEPKc
0016cf02 T _ZN8NWindows4NCOM12CPropVariantaSEPKw
0016cf78 T _ZN8NWindows4NCOM12CPropVariantaSEPw
0016d31a T _ZN8NWindows4NCOM12CPropVariantaSERK14tagPROPVARIANT
0016cfac T _ZN8NWindows4NCOM12CPropVariantaSERK7UString
0016d00a T _ZN8NWindows4NCOM12CPropVariantaSERK8UString2
0016d248 T _ZN8NWindows4NCOM12CPropVariantaSERK9_FILETIME
0016d300 T _ZN8NWindows4NCOM12CPropVariantaSERKS1_
0016d216 T _ZN8NWindows4NCOM12CPropVariantaSEx
0016d1e4 T _ZN8NWindows4NCOM12CPropVariantaSEy
0016cf5e T _ZN8NWindows4NCOM12CPropVariantC1EPKw
0016cf92 T _ZN8NWindows4NCOM12CPropVariantC1EPw
0016d2cc T _ZN8NWindows4NCOM12CPropVariantC1ERK14tagPROPVARIANT
0016d2e6 T _ZN8NWindows4NCOM12CPropVariantC1ERKS1_
0016cf5e T _ZN8NWindows4NCOM12CPropVariantC2EPKw
0016cf92 T _ZN8NWindows4NCOM12CPropVariantC2EPw
0016d2cc T _ZN8NWindows4NCOM12CPropVariantC2ERK14tagPROPVARIANT
0016d2e6 T _ZN8NWindows4NCOM12CPropVariantC2ERKS1_
0016cd0c T _ZN8NWindows4NCOM17PropVarEm_Set_StrEP14tagPROPVARIANTPKc
0016cd49 T _ZN8NWindows4NCOM17PropVariant_ClearEP14tagPROPVARIANT
0016cc3c T _ZN8NWindows4NCOM18AllocBstrFromAsciiEPKc
0016ccb3 T _ZN8NWindows4NCOM20PropVarEm_Alloc_BstrEP14tagPROPVARIANTj
0016b6af T _ZN8NWindows4NDLL18GetModuleDirPrefixEv
00133104 T _ZN8NWindows4NDLL8CLibrary4FreeEv
00133164 T _ZN8NWindows4NDLL8CLibrary4LoadEPKw
00133bfe T _ZN8NWindows5NFile3NIO7CInFile4OpenEPKwb
00133bd6 T _ZN8NWindows5NFile3NIO7CInFile4OpenEPKwjjj
00133c26 T _ZN8NWindows5NFile3NIO7CInFile4ReadEPvjRj
00133d06 T _ZN8NWindows5NFile3NIO7CInFile8ReadPartEPvjRj
001651e8 W _ZN8NWindows5NFile3NIO7CInFileD0Ev
001651d0 W _ZN8NWindows5NFile3NIO7CInFileD1Ev
001651d0 W _ZN8NWindows5NFile3NIO7CInFileD2Ev
00133d8a T _ZN8NWindows5NFile3NIO8COutFile12CreateAlwaysEPKwj
00133f22 T _ZN8NWindows5NFile3NIO8COutFile12SetEndOfFileEv
00133d4a T _ZN8NWindows5NFile3NIO8COutFile4OpenEPKwj
00133d22 T _ZN8NWindows5NFile3NIO8COutFile4OpenEPKwjjj
00133e7c T _ZN8NWindows5NFile3NIO8COutFile5WriteEPKvjRj
00133d6a T _ZN8NWindows5NFile3NIO8COutFile6CreateEPKwb
00133da0 T _ZN8NWindows5NFile3NIO8COutFile7SetTimeEPK9_FILETIMES5_S5_
00133e64 T _ZN8NWindows5NFile3NIO8COutFile8SetMTimeEPK9_FILETIME
00133f82 T _ZN8NWindows5NFile3NIO8COutFile9SetLengthEy
00133f06 T _ZN8NWindows5NFile3NIO8COutFile9WritePartEPKvjRj
001599aa W _ZN8NWindows5NFile3NIO8COutFileD0Ev
00159992 W _ZN8NWindows5NFile3NIO8COutFileD1Ev
00159992 W _ZN8NWindows5NFile3NIO8COutFileD2Ev
00133ad8 T _ZN8NWindows5NFile3NIO9CFileBase4SeekExjRy
00133bb8 T _ZN8NWindows5NFile3NIO9CFileBase4SeekEyRy
00133540 T _ZN8NWindows5NFile3NIO9CFileBase5CloseEv
001336ce T _ZN8NWindows5NFile3NIO9CFileBase6CreateEPKwjjjjb
001336b2 T _ZN8NWindows5NFile3NIO9CFileBaseD0Ev
0013365e T _ZN8NWindows5NFile3NIO9CFileBaseD1Ev
0013365e T _ZN8NWindows5NFile3NIO9CFileBaseD2Ev
00169d92 T _ZN8NWindows5NFile4NDir10MyMoveFileEPKwS3_
00169b74 T _ZN8NWindows5NFile4NDir10SetDirTimeEPKwPK9_FILETIMES6_S6_
0016a562 T _ZN8NWindows5NFile4NDir13GetCurrentDirER7UString
0016a74e T _ZN8NWindows5NFile4NDir13MyGetTempPathER7UString
0016a4c1 T _ZN8NWindows5NFile4NDir13SetCurrentDirEPKw
0016a98f T _ZN8NWindows5NFile4NDir13SetFileAttribEPKwjP13CObjectVectorINS1_15CDelayedSymLinkEE
0016b606 T _ZN8NWindows5NFile4NDir15CDelayedSymLink6CreateEv
0016a910 T _ZN8NWindows5NFile4NDir15CDelayedSymLinkC1EPKc
0016a910 T _ZN8NWindows5NFile4NDir15CDelayedSymLinkC2EPKc
0016a1e0 T _ZN8NWindows5NFile4NDir16CreateComplexDirEPKw
0016a434 T _ZN8NWindows5NFile4NDir16DeleteFileAlwaysEPKw
0016a6cd T _ZN8NWindows5NFile4NDir16GetOnlyDirPrefixEPKwR7UString
0016a4ad T _ZN8NWindows5NFile4NDir17MyGetFullPathNameEPKwR7UString
0016a668 T _ZN8NWindows5NFile4NDir19GetFullPathAndSplitEPKwR7UStringS5_
0016acb2 T _ZN8NWindows5NFile4NDir21RemoveDirWithSubItemsERK7UString
0016b0f4 T _ZN8NWindows5NFile4NDir27RemoveDirectoryWithSubItemsERK7UString
0016b51a T _ZN8NWindows5NFile4NDir8CTempDir6CreateEPKw
0016b4ec T _ZN8NWindows5NFile4NDir8CTempDir6RemoveEv
00169f89 T _ZN8NWindows5NFile4NDir9CreateDirEPKw
0016a7d0 T _ZN8NWindows5NFile4NDir9CTempFile24CreateRandomInTempFolderEPKwPNS0_3NIO8COutFileE
0016a794 T _ZN8NWindows5NFile4NDir9CTempFile6CreateEPKwPNS0_3NIO8COutFileE
0016a8c4 T _ZN8NWindows5NFile4NDir9CTempFile6MoveToEPKwb
0016a768 T _ZN8NWindows5NFile4NDir9CTempFile6RemoveEv
00169d19 T _ZN8NWindows5NFile4NDir9RemoveDirEPKw
0016c5e8 T _ZN8NWindows5NFile5NFind11CEnumerator4NextERNS1_9CFileInfoE
0016c61c T _ZN8NWindows5NFile5NFind11CEnumerator4NextERNS1_9CFileInfoERb
0016c5b4 T _ZN8NWindows5NFile5NFind11CEnumerator7NextAnyERNS1_9CFileInfoE
0013f2fc W _ZN8NWindows5NFile5NFind11CEnumeratorD1Ev
0013f2fc W _ZN8NWindows5NFile5NFind11CEnumeratorD2Ev
0016c495 T _ZN8NWindows5NFile5NFind12DoesDirExistEPKw
0016c250 T _ZN8NWindows5NFile5NFind13CFileInfoBase9ClearBaseEv
0016c3fc T _ZN8NWindows5NFile5NFind13DoesFileExistEPKw
0016c52b T _ZN8NWindows5NFile5NFind18DoesFileOrDirExistEPKw
0016c29c T _ZN8NWindows5NFile5NFind9CFileInfo4FindEPKwb
0016be5c T _ZN8NWindows5NFile5NFind9CFindFile5CloseEv
0016c1d4 T _ZN8NWindows5NFile5NFind9CFindFile8FindNextERNS1_9CFileInfoE
0016be96 T _ZN8NWindows5NFile5NFind9CFindFile9FindFirstEPKwRNS1_9CFileInfoEb
0013f288 W _ZN8NWindows5NFile5NFind9CFindFileD1Ev
0013f288 W _ZN8NWindows5NFile5NFind9CFindFileD2Ev
0016cc25 T _ZN8NWindows5NFile5NName11GetFullPathEPKwR7UString
0016c956 T _ZN8NWindows5NFile5NName11GetFullPathEPKwS3_R7UString
0016c902 T _ZN8NWindows5NFile5NName11IsDrivePathEPKw
0016c927 T _ZN8NWindows5NFile5NName14IsAbsolutePathEPKw
0016c932 T _ZN8NWindows5NFile5NName17GetRootPrefixSizeEPKw
0016c8ba T _ZN8NWindows5NFile5NName22NormalizeDirPathPrefixER7UString
0016c883 T _ZN8NWindows5NFile5NName9FindSeparEPKw
0016dff2 T _ZN8NWindows5NTime17DosTimeToFileTimeEjR9_FILETIME
0016daa8 T _ZN8NWindows5NTime17FileTimeToDosTimeERK9_FILETIMERj
0016e092 T _ZN8NWindows5NTime17GetCurUtcFileTimeER9_FILETIME
0016dde1 T _ZN8NWindows5NTime18FileTimeToUnixTimeERK9_FILETIMERj
0016dd13 T _ZN8NWindows5NTime18UnixTimeToFileTimeEjR9_FILETIME
0016de5c T _ZN8NWindows5NTime19GetSecondsSince1601EjjjjjjRy
0016dda9 T _ZN8NWindows5NTime20FileTimeToUnixTime64ERK9_FILETIME
0016dd3c T _ZN8NWindows5NTime20UnixTime64ToFileTimeExR9_FILETIME
0013339c T _ZN8NWindows6NError15MyFormatMessageEj
0016d9ae T _ZN8NWindows7NSystem10GetRamSizeERy
0016d996 T _ZN8NWindows7NSystem21GetNumberOfProcessorsEv
00131746 T _ZN8UString211SetStartLenEj
0013189a T _ZN8UString212SetFromAsciiEPKc
001316ee T _ZN8UString28ReAlloc2Ej
00131810 T _ZN8UString2aSEPKw
00131936 T _ZN8UString2aSERKS_
00131782 T _ZN8UString2C1EPKw
001317c8 T _ZN8UString2C1ERKS_
00131782 T _ZN8UString2C2EPKw
001317c8 T _ZN8UString2C2ERKS_
0013cdc0 T _ZN9CDirItems11ReserveDownEv
0013d204 T _ZN9CDirItems12EnumerateDirEiiRK7UString
0013cc0e T _ZN9CDirItems12ScanProgressERK7UString
0013c9b4 T _ZN9CDirItems14AddDirFileInfoEiiiRKN8NWindows5NFile5NFind9CFileInfoE
0013d588 T _ZN9CDirItems15EnumerateItems2ERK7UStringS2_RK13CObjectVectorIS0_EPS4_
0013d102 T _ZN9CDirItems16DeleteLastPrefixEv
0013cbf0 T _ZN9CDirItems8AddErrorERK7UString
0013cbbe T _ZN9CDirItems8AddErrorERK7UStringj
0013cf54 T _ZN9CDirItems9AddPrefixEiiRK7UString
0013d148 T _ZN9CDirItemsC1Ev
0013d148 T _ZN9CDirItemsC2Ev
0013c8ce W _ZN9CDirItemsD1Ev
0013c8ce W _ZN9CDirItemsD2Ev
001533e8 W _ZN9CMyComPtrI10IInArchiveEaSERKS1_
00159d82 W _ZN9CMyComPtrI20ISequentialOutStreamEaSERKS1_
0011a214 W _ZN9__gnu_cxx13new_allocatorI16NESTED_FILE_INFOE10deallocateEPS1_j
0011a1f6 W _ZN9__gnu_cxx13new_allocatorI16NESTED_FILE_INFOE7destroyIS1_EEvPT_
0011a268 W _ZN9__gnu_cxx13new_allocatorI16NESTED_FILE_INFOE8allocateEjPKv
00119f24 W _ZN9__gnu_cxx13new_allocatorI16NESTED_FILE_INFOE9constructIS1_IRKS1_EEEvPT_DpOT0_
00119f24 W _ZN9__gnu_cxx13new_allocatorI16NESTED_FILE_INFOE9constructIS1_JRKS1_EEEvPT_DpOT0_
0011a20e W _ZN9__gnu_cxx13new_allocatorI16NESTED_FILE_INFOEC1Ev
0011a20e W _ZN9__gnu_cxx13new_allocatorI16NESTED_FILE_INFOEC2Ev
0011a12a W _ZN9__gnu_cxx13new_allocatorI16NESTED_FILE_INFOED1Ev
0011a12a W _ZN9__gnu_cxx13new_allocatorI16NESTED_FILE_INFOED2Ev
0011d7ac W _ZN9__gnu_cxx13new_allocatorI8Cab_InfoE10deallocateEPS1_j
0011d78e W _ZN9__gnu_cxx13new_allocatorI8Cab_InfoE7destroyIS1_EEvPT_
0011d8d0 W _ZN9__gnu_cxx13new_allocatorI8Cab_InfoE8allocateEjPKv
0011d30c W _ZN9__gnu_cxx13new_allocatorI8Cab_InfoE9constructIS1_IRKS1_EEEvPT_DpOT0_
0011d30c W _ZN9__gnu_cxx13new_allocatorI8Cab_InfoE9constructIS1_JRKS1_EEEvPT_DpOT0_
0011d7a6 W _ZN9__gnu_cxx13new_allocatorI8Cab_InfoEC1Ev
0011d7a6 W _ZN9__gnu_cxx13new_allocatorI8Cab_InfoEC2Ev
0011d542 W _ZN9__gnu_cxx13new_allocatorI8Cab_InfoED1Ev
0011d542 W _ZN9__gnu_cxx13new_allocatorI8Cab_InfoED2Ev
0010cd9e W _ZN9__gnu_cxx13new_allocatorIcE10deallocateEPcj
0010e650 W _ZN9__gnu_cxx13new_allocatorIcE7destroyIcEEvPT_
0010f3ae W _ZN9__gnu_cxx13new_allocatorIcE8allocateEjPKv
0010cb58 W _ZN9__gnu_cxx13new_allocatorIcE9constructIcIcEEEvPT_DpOT0_
0010cb58 W _ZN9__gnu_cxx13new_allocatorIcE9constructIcJcEEEvPT_DpOT0_
0010d42c W _ZN9__gnu_cxx13new_allocatorIDsE10deallocateEPDsj
0010d462 W _ZN9__gnu_cxx13new_allocatorIDsE8allocateEjPKv
0010b6de W _ZN9__gnu_cxx13new_allocatorIDsEC1ERKS1_
001080d6 W _ZN9__gnu_cxx13new_allocatorIDsEC1Ev
0010b6de W _ZN9__gnu_cxx13new_allocatorIDsEC2ERKS1_
001080d6 W _ZN9__gnu_cxx13new_allocatorIDsEC2Ev
001080dc W _ZN9__gnu_cxx13new_allocatorIDsED1Ev
001080dc W _ZN9__gnu_cxx13new_allocatorIDsED2Ev
0010f334 W _ZN9__gnu_cxx13new_allocatorIhE10deallocateEPhj
0011008c W _ZN9__gnu_cxx13new_allocatorIhE8allocateEjPKv
0010d73e W _ZN9__gnu_cxx13new_allocatorIN7peparse10rich_entryEE10deallocateEPS2_j
0010baac W _ZN9__gnu_cxx13new_allocatorIN7peparse10rich_entryEE7destroyIS2_EEvPT_
0010d6d8 W _ZN9__gnu_cxx13new_allocatorIN7peparse10rich_entryEE8allocateEjPKv
0010870c W _ZN9__gnu_cxx13new_allocatorIN7peparse10rich_entryEE9constructIS2_IRKS2_EEEvPT_DpOT0_
0010870c W _ZN9__gnu_cxx13new_allocatorIN7peparse10rich_entryEE9constructIS2_JRKS2_EEEvPT_DpOT0_
0010e3c0 W _ZN9__gnu_cxx13new_allocatorIN7peparse10rich_entryEEC1Ev
0010e3c0 W _ZN9__gnu_cxx13new_allocatorIN7peparse10rich_entryEEC2Ev
0010c6fc W _ZN9__gnu_cxx13new_allocatorIN7peparse10rich_entryEED1Ev
0010c6fc W _ZN9__gnu_cxx13new_allocatorIN7peparse10rich_entryEED2Ev
0010d94a W _ZN9__gnu_cxx13new_allocatorIN7peparse13aux_symbol_f1EE10deallocateEPS2_j
0010c4d4 W _ZN9__gnu_cxx13new_allocatorIN7peparse13aux_symbol_f1EE7destroyIS2_EEvPT_
0010e16a W _ZN9__gnu_cxx13new_allocatorIN7peparse13aux_symbol_f1EE8allocateEjPKv
001096f0 W _ZN9__gnu_cxx13new_allocatorIN7peparse13aux_symbol_f1EE9constructIS2_IRKS2_EEEvPT_DpOT0_
001096f0 W _ZN9__gnu_cxx13new_allocatorIN7peparse13aux_symbol_f1EE9constructIS2_JRKS2_EEEvPT_DpOT0_
0010fc38 W _ZN9__gnu_cxx13new_allocatorIN7peparse13aux_symbol_f1EEC1ERKS3_
0010d944 W _ZN9__gnu_cxx13new_allocatorIN7peparse13aux_symbol_f1EEC1Ev
0010fc38 W _ZN9__gnu_cxx13new_allocatorIN7peparse13aux_symbol_f1EEC2ERKS3_
0010d944 W _ZN9__gnu_cxx13new_allocatorIN7peparse13aux_symbol_f1EEC2Ev
0010bcdc W _ZN9__gnu_cxx13new_allocatorIN7peparse13aux_symbol_f1EED1Ev
0010bcdc W _ZN9__gnu_cxx13new_allocatorIN7peparse13aux_symbol_f1EED2Ev
0010d968 W _ZN9__gnu_cxx13new_allocatorIN7peparse13aux_symbol_f2EE10deallocateEPS2_j
0010c552 W _ZN9__gnu_cxx13new_allocatorIN7peparse13aux_symbol_f2EE7destroyIS2_EEvPT_
0010e1e6 W _ZN9__gnu_cxx13new_allocatorIN7peparse13aux_symbol_f2EE8allocateEjPKv
001098ea W _ZN9__gnu_cxx13new_allocatorIN7peparse13aux_symbol_f2EE9constructIS2_IRKS2_EEEvPT_DpOT0_
001098ea W _ZN9__gnu_cxx13new_allocatorIN7peparse13aux_symbol_f2EE9constructIS2_JRKS2_EEEvPT_DpOT0_
0010fc5a W _ZN9__gnu_cxx13new_allocatorIN7peparse13aux_symbol_f2EEC1ERKS3_
0010d962 W _ZN9__gnu_cxx13new_allocatorIN7peparse13aux_symbol_f2EEC1Ev
0010fc5a W _ZN9__gnu_cxx13new_allocatorIN7peparse13aux_symbol_f2EEC2ERKS3_
0010d962 W _ZN9__gnu_cxx13new_allocatorIN7peparse13aux_symbol_f2EEC2Ev
0010bd1e W _ZN9__gnu_cxx13new_allocatorIN7peparse13aux_symbol_f2EED1Ev
0010bd1e W _ZN9__gnu_cxx13new_allocatorIN7peparse13aux_symbol_f2EED2Ev
0010d986 W _ZN9__gnu_cxx13new_allocatorIN7peparse13aux_symbol_f3EE10deallocateEPS2_j
0010c5d0 W _ZN9__gnu_cxx13new_allocatorIN7peparse13aux_symbol_f3EE7destroyIS2_EEvPT_
0010e262 W _ZN9__gnu_cxx13new_allocatorIN7peparse13aux_symbol_f3EE8allocateEjPKv
00109ada W _ZN9__gnu_cxx13new_allocatorIN7peparse13aux_symbol_f3EE9constructIS2_IRKS2_EEEvPT_DpOT0_
00109ada W _ZN9__gnu_cxx13new_allocatorIN7peparse13aux_symbol_f3EE9constructIS2_JRKS2_EEEvPT_DpOT0_
0010fc7c W _ZN9__gnu_cxx13new_allocatorIN7peparse13aux_symbol_f3EEC1ERKS3_
0010d980 W _ZN9__gnu_cxx13new_allocatorIN7peparse13aux_symbol_f3EEC1Ev
0010fc7c W _ZN9__gnu_cxx13new_allocatorIN7peparse13aux_symbol_f3EEC2ERKS3_
0010d980 W _ZN9__gnu_cxx13new_allocatorIN7peparse13aux_symbol_f3EEC2Ev
0010bd60 W _ZN9__gnu_cxx13new_allocatorIN7peparse13aux_symbol_f3EED1Ev
0010bd60 W _ZN9__gnu_cxx13new_allocatorIN7peparse13aux_symbol_f3EED2Ev
0010d9a4 W _ZN9__gnu_cxx13new_allocatorIN7peparse13aux_symbol_f4EE10deallocateEPS2_j
0010c64e W _ZN9__gnu_cxx13new_allocatorIN7peparse13aux_symbol_f4EE7destroyIS2_EEvPT_
0010e2de W _ZN9__gnu_cxx13new_allocatorIN7peparse13aux_symbol_f4EE8allocateEjPKv
00109d10 W _ZN9__gnu_cxx13new_allocatorIN7peparse13aux_symbol_f4EE9constructIS2_IRKS2_EEEvPT_DpOT0_
00109d10 W _ZN9__gnu_cxx13new_allocatorIN7peparse13aux_symbol_f4EE9constructIS2_JRKS2_EEEvPT_DpOT0_
0010fc9e W _ZN9__gnu_cxx13new_allocatorIN7peparse13aux_symbol_f4EEC1ERKS3_
0010d99e W _ZN9__gnu_cxx13new_allocatorIN7peparse13aux_symbol_f4EEC1Ev
0010fc9e W _ZN9__gnu_cxx13new_allocatorIN7peparse13aux_symbol_f4EEC2ERKS3_
0010d99e W _ZN9__gnu_cxx13new_allocatorIN7peparse13aux_symbol_f4EEC2Ev
0010bda2 W _ZN9__gnu_cxx13new_allocatorIN7peparse13aux_symbol_f4EED1Ev
0010bda2 W _ZN9__gnu_cxx13new_allocatorIN7peparse13aux_symbol_f4EED2Ev
0010d9e0 W _ZN9__gnu_cxx13new_allocatorIN7peparse13aux_symbol_f5EE10deallocateEPS2_j
0010c6de W _ZN9__gnu_cxx13new_allocatorIN7peparse13aux_symbol_f5EE7destroyIS2_EEvPT_
0010e35a W _ZN9__gnu_cxx13new_allocatorIN7peparse13aux_symbol_f5EE8allocateEjPKv
00109f2a W _ZN9__gnu_cxx13new_allocatorIN7peparse13aux_symbol_f5EE9constructIS2_IRKS2_EEEvPT_DpOT0_
00109f2a W _ZN9__gnu_cxx13new_allocatorIN7peparse13aux_symbol_f5EE9constructIS2_JRKS2_EEEvPT_DpOT0_
0010fd48 W _ZN9__gnu_cxx13new_allocatorIN7peparse13aux_symbol_f5EEC1ERKS3_
0010d9da W _ZN9__gnu_cxx13new_allocatorIN7peparse13aux_symbol_f5EEC1Ev
0010fd48 W _ZN9__gnu_cxx13new_allocatorIN7peparse13aux_symbol_f5EEC2ERKS3_
0010d9da W _ZN9__gnu_cxx13new_allocatorIN7peparse13aux_symbol_f5EEC2Ev
0010be0e W _ZN9__gnu_cxx13new_allocatorIN7peparse13aux_symbol_f5EED1Ev
0010be0e W _ZN9__gnu_cxx13new_allocatorIN7peparse13aux_symbol_f5EED2Ev
0010d886 W _ZN9__gnu_cxx13new_allocatorIN7peparse5relocEE10deallocateEPS2_j
0010bbf4 W _ZN9__gnu_cxx13new_allocatorIN7peparse5relocEE7destroyIS2_EEvPT_
0010d81a W _ZN9__gnu_cxx13new_allocatorIN7peparse5relocEE8allocateEjPKv
00108bce W _ZN9__gnu_cxx13new_allocatorIN7peparse5relocEE9constructIS2_IRKS2_EEEvPT_DpOT0_
00108bce W _ZN9__gnu_cxx13new_allocatorIN7peparse5relocEE9constructIS2_JRKS2_EEEvPT_DpOT0_
0010e438 W _ZN9__gnu_cxx13new_allocatorIN7peparse5relocEEC1Ev
0010e438 W _ZN9__gnu_cxx13new_allocatorIN7peparse5relocEEC2Ev
0010c808 W _ZN9__gnu_cxx13new_allocatorIN7peparse5relocEED1Ev
0010c808 W _ZN9__gnu_cxx13new_allocatorIN7peparse5relocEED2Ev
0010e13c W _ZN9__gnu_cxx13new_allocatorIN7peparse6symbolEE10deallocateEPS2_j
0010c428 W _ZN9__gnu_cxx13new_allocatorIN7peparse6symbolEE7destroyIS2_EEvPT_
0010e0d6 W _ZN9__gnu_cxx13new_allocatorIN7peparse6symbolEE8allocateEjPKv
001094b2 W _ZN9__gnu_cxx13new_allocatorIN7peparse6symbolEE9constructIS2_IRKS2_EEEvPT_DpOT0_
001094b2 W _ZN9__gnu_cxx13new_allocatorIN7peparse6symbolEE9constructIS2_JRKS2_EEEvPT_DpOT0_
0010e464 W _ZN9__gnu_cxx13new_allocatorIN7peparse6symbolEEC1Ev
0010e464 W _ZN9__gnu_cxx13new_allocatorIN7peparse6symbolEEC2Ev
0010c87c W _ZN9__gnu_cxx13new_allocatorIN7peparse6symbolEED1Ev
0010c87c W _ZN9__gnu_cxx13new_allocatorIN7peparse6symbolEED2Ev
0010d5b0 W _ZN9__gnu_cxx13new_allocatorIN7peparse7sectionEE10deallocateEPS2_j
0010b8a6 W _ZN9__gnu_cxx13new_allocatorIN7peparse7sectionEE7destroyIS2_EEvPT_
0010d54a W _ZN9__gnu_cxx13new_allocatorIN7peparse7sectionEE8allocateEjPKv
001084b2 W _ZN9__gnu_cxx13new_allocatorIN7peparse7sectionEE9constructIS2_IRKS2_EEEvPT_DpOT0_
001084b2 W _ZN9__gnu_cxx13new_allocatorIN7peparse7sectionEE9constructIS2_JRKS2_EEEvPT_DpOT0_
0010c8b4 W _ZN9__gnu_cxx13new_allocatorIN7peparse7sectionEEC1ERKS3_
0010e3c6 W _ZN9__gnu_cxx13new_allocatorIN7peparse7sectionEEC1Ev
0010c8b4 W _ZN9__gnu_cxx13new_allocatorIN7peparse7sectionEEC2ERKS3_
0010e3c6 W _ZN9__gnu_cxx13new_allocatorIN7peparse7sectionEEC2Ev
0010a40e W _ZN9__gnu_cxx13new_allocatorIN7peparse7sectionEED1Ev
0010a40e W _ZN9__gnu_cxx13new_allocatorIN7peparse7sectionEED2Ev
0010d51c W _ZN9__gnu_cxx13new_allocatorIN7peparse8resourceEE10deallocateEPS2_j
0010b7fa W _ZN9__gnu_cxx13new_allocatorIN7peparse8resourceEE7destroyIS2_EEvPT_
0010d4b6 W _ZN9__gnu_cxx13new_allocatorIN7peparse8resourceEE8allocateEjPKv
00108294 W _ZN9__gnu_cxx13new_allocatorIN7peparse8resourceEE9constructIS2_IRKS2_EEEvPT_DpOT0_
00108294 W _ZN9__gnu_cxx13new_allocatorIN7peparse8resourceEE9constructIS2_JRKS2_EEEvPT_DpOT0_
0010e3ec W _ZN9__gnu_cxx13new_allocatorIN7peparse8resourceEEC1Ev
0010e3ec W _ZN9__gnu_cxx13new_allocatorIN7peparse8resourceEEC2Ev
0010c768 W _ZN9__gnu_cxx13new_allocatorIN7peparse8resourceEED1Ev
0010c768 W _ZN9__gnu_cxx13new_allocatorIN7peparse8resourceEED2Ev
0010d7e4 W _ZN9__gnu_cxx13new_allocatorIN7peparse9exportentEE10deallocateEPS2_j
0010bb48 W _ZN9__gnu_cxx13new_allocatorIN7peparse9exportentEE7destroyIS2_EEvPT_
0010d774 W _ZN9__gnu_cxx13new_allocatorIN7peparse9exportentEE8allocateEjPKv
00108990 W _ZN9__gnu_cxx13new_allocatorIN7peparse9exportentEE9constructIS2_IRKS2_EEEvPT_DpOT0_
00108990 W _ZN9__gnu_cxx13new_allocatorIN7peparse9exportentEE9constructIS2_JRKS2_EEEvPT_DpOT0_
0010e43e W _ZN9__gnu_cxx13new_allocatorIN7peparse9exportentEEC1Ev
0010e43e W _ZN9__gnu_cxx13new_allocatorIN7peparse9exportentEEC2Ev
0010c82c W _ZN9__gnu_cxx13new_allocatorIN7peparse9exportentEED1Ev
0010c82c W _ZN9__gnu_cxx13new_allocatorIN7peparse9exportentEED2Ev
0010d92c W _ZN9__gnu_cxx13new_allocatorIN7peparse9importentEE10deallocateEPS2_j
0010bc90 W _ZN9__gnu_cxx13new_allocatorIN7peparse9importentEE7destroyIS2_EEvPT_
0010d8bc W _ZN9__gnu_cxx13new_allocatorIN7peparse9importentEE8allocateEjPKv
00108e5c W _ZN9__gnu_cxx13new_allocatorIN7peparse9importentEE9constructIS2_IRKS2_EEEvPT_DpOT0_
00108e5c W _ZN9__gnu_cxx13new_allocatorIN7peparse9importentEE9constructIS2_JRKS2_EEEvPT_DpOT0_
0010e412 W _ZN9__gnu_cxx13new_allocatorIN7peparse9importentEEC1Ev
0010e412 W _ZN9__gnu_cxx13new_allocatorIN7peparse9importentEEC2Ev
0010c7b8 W _ZN9__gnu_cxx13new_allocatorIN7peparse9importentEED1Ev
0010c7b8 W _ZN9__gnu_cxx13new_allocatorIN7peparse9importentEED2Ev
0011d7e8 W _ZN9__gnu_cxx13new_allocatorINSt7__cxx1112basic_stringIcSt11char_traitsIcESaIcEEEE10deallocateEPS6_j
0011d6fe W _ZN9__gnu_cxx13new_allocatorINSt7__cxx1112basic_stringIcSt11char_traitsIcESaIcEEEE7destroyIS6_EEvPT_
0011d846 W _ZN9__gnu_cxx13new_allocatorINSt7__cxx1112basic_stringIcSt11char_traitsIcESaIcEEEE8allocateEjPKv
0011d0f2 W _ZN9__gnu_cxx13new_allocatorINSt7__cxx1112basic_stringIcSt11char_traitsIcESaIcEEEE9constructIS6_IRKS6_EEEvPT_DpOT0_
0011d0f2 W _ZN9__gnu_cxx13new_allocatorINSt7__cxx1112basic_stringIcSt11char_traitsIcESaIcEEEE9constructIS6_JRKS6_EEEvPT_DpOT0_
0011d7e2 W _ZN9__gnu_cxx13new_allocatorINSt7__cxx1112basic_stringIcSt11char_traitsIcESaIcEEEEC1Ev
0011d7e2 W _ZN9__gnu_cxx13new_allocatorINSt7__cxx1112basic_stringIcSt11char_traitsIcESaIcEEEEC2Ev
0011d5b2 W _ZN9__gnu_cxx13new_allocatorINSt7__cxx1112basic_stringIcSt11char_traitsIcESaIcEEEED1Ev
0011d5b2 W _ZN9__gnu_cxx13new_allocatorINSt7__cxx1112basic_stringIcSt11char_traitsIcESaIcEEEED2Ev
0010e7f6 W _ZN9__gnu_cxx13new_allocatorISt13_Rb_tree_nodeISt4pairIKtKNSt7__cxx1112basic_stringIcSt11char_traitsIcESaIcEEEEEE10deallocateEPSC_j
0010e7de W _ZN9__gnu_cxx13new_allocatorISt13_Rb_tree_nodeISt4pairIKtKNSt7__cxx1112basic_stringIcSt11char_traitsIcESaIcEEEEEE7destroyISB_EEvPT_
00110c0e W _ZN9__gnu_cxx13new_allocatorISt13_Rb_tree_nodeISt4pairIKtKNSt7__cxx1112basic_stringIcSt11char_traitsIcESaIcEEEEEE8allocateEjPKv
00110c74 W _ZN9__gnu_cxx13new_allocatorISt13_Rb_tree_nodeISt4pairIKtKNSt7__cxx1112basic_stringIcSt11char_traitsIcESaIcEEEEEE9constructISB_IRKSB_EEEvPT_DpOT0_
00110c74 W _ZN9__gnu_cxx13new_allocatorISt13_Rb_tree_nodeISt4pairIKtKNSt7__cxx1112basic_stringIcSt11char_traitsIcESaIcEEEEEE9constructISB_JRKSB_EEEvPT_DpOT0_
0010d0b2 W _ZN9__gnu_cxx13new_allocatorISt13_Rb_tree_nodeISt4pairIKtKNSt7__cxx1112basic_stringIcSt11char_traitsIcESaIcEEEEEEC1ERKSD_
0010afd6 W _ZN9__gnu_cxx13new_allocatorISt13_Rb_tree_nodeISt4pairIKtKNSt7__cxx1112basic_stringIcSt11char_traitsIcESaIcEEEEEEC1Ev
0010d0b2 W _ZN9__gnu_cxx13new_allocatorISt13_Rb_tree_nodeISt4pairIKtKNSt7__cxx1112basic_stringIcSt11char_traitsIcESaIcEEEEEEC2ERKSD_
0010afd6 W _ZN9__gnu_cxx13new_allocatorISt13_Rb_tree_nodeISt4pairIKtKNSt7__cxx1112basic_stringIcSt11char_traitsIcESaIcEEEEEEC2Ev
00107bbc W _ZN9__gnu_cxx13new_allocatorISt13_Rb_tree_nodeISt4pairIKtKNSt7__cxx1112basic_stringIcSt11char_traitsIcESaIcEEEEEED1Ev
00107bbc W _ZN9__gnu_cxx13new_allocatorISt13_Rb_tree_nodeISt4pairIKtKNSt7__cxx1112basic_stringIcSt11char_traitsIcESaIcEEEEEED2Ev
0010e73e W _ZN9__gnu_cxx13new_allocatorISt13_Rb_tree_nodeISt4pairIKtNSt7__cxx1112basic_stringIcSt11char_traitsIcESaIcEEEEEE10deallocateEPSB_j
0010e726 W _ZN9__gnu_cxx13new_allocatorISt13_Rb_tree_nodeISt4pairIKtNSt7__cxx1112basic_stringIcSt11char_traitsIcESaIcEEEEEE7destroyISA_EEvPT_
00110b46 W _ZN9__gnu_cxx13new_allocatorISt13_Rb_tree_nodeISt4pairIKtNSt7__cxx1112basic_stringIcSt11char_traitsIcESaIcEEEEEE8allocateEjPKv
00110bac W _ZN9__gnu_cxx13new_allocatorISt13_Rb_tree_nodeISt4pairIKtNSt7__cxx1112basic_stringIcSt11char_traitsIcESaIcEEEEEE9constructISA_IRKSA_EEEvPT_DpOT0_
00110bac W _ZN9__gnu_cxx13new_allocatorISt13_Rb_tree_nodeISt4pairIKtNSt7__cxx1112basic_stringIcSt11char_traitsIcESaIcEEEEEE9constructISA_JRKSA_EEEvPT_DpOT0_
0010cdcc W _ZN9__gnu_cxx13new_allocatorISt13_Rb_tree_nodeISt4pairIKtNSt7__cxx1112basic_stringIcSt11char_traitsIcESaIcEEEEEEC1ERKSC_
0010a9fa W _ZN9__gnu_cxx13new_allocatorISt13_Rb_tree_nodeISt4pairIKtNSt7__cxx1112basic_stringIcSt11char_traitsIcESaIcEEEEEEC1Ev
0010cdcc W _ZN9__gnu_cxx13new_allocatorISt13_Rb_tree_nodeISt4pairIKtNSt7__cxx1112basic_stringIcSt11char_traitsIcESaIcEEEEEEC2ERKSC_
0010a9fa W _ZN9__gnu_cxx13new_allocatorISt13_Rb_tree_nodeISt4pairIKtNSt7__cxx1112basic_stringIcSt11char_traitsIcESaIcEEEEEEC2Ev
001079ea W _ZN9__gnu_cxx13new_allocatorISt13_Rb_tree_nodeISt4pairIKtNSt7__cxx1112basic_stringIcSt11char_traitsIcESaIcEEEEEED1Ev
001079ea W _ZN9__gnu_cxx13new_allocatorISt13_Rb_tree_nodeISt4pairIKtNSt7__cxx1112basic_stringIcSt11char_traitsIcESaIcEEEEEED2Ev
00107a32 W _ZN9__gnu_cxx13new_allocatorISt4pairIKtKNSt7__cxx1112basic_stringIcSt11char_traitsIcESaIcEEEEEC1ERKSB_
00104e2a W _ZN9__gnu_cxx13new_allocatorISt4pairIKtKNSt7__cxx1112basic_stringIcSt11char_traitsIcESaIcEEEEEC1Ev
00107a32 W _ZN9__gnu_cxx13new_allocatorISt4pairIKtKNSt7__cxx1112basic_stringIcSt11char_traitsIcESaIcEEEEEC2ERKSB_
00104e2a W _ZN9__gnu_cxx13new_allocatorISt4pairIKtKNSt7__cxx1112basic_stringIcSt11char_traitsIcESaIcEEEEEC2Ev
00104e30 W _ZN9__gnu_cxx13new_allocatorISt4pairIKtKNSt7__cxx1112basic_stringIcSt11char_traitsIcESaIcEEEEED1Ev
00104e30 W _ZN9__gnu_cxx13new_allocatorISt4pairIKtKNSt7__cxx1112basic_stringIcSt11char_traitsIcESaIcEEEEED2Ev
00107860 W _ZN9__gnu_cxx13new_allocatorISt4pairIKtNSt7__cxx1112basic_stringIcSt11char_traitsIcESaIcEEEEEC1ERKSA_
00104c62 W _ZN9__gnu_cxx13new_allocatorISt4pairIKtNSt7__cxx1112basic_stringIcSt11char_traitsIcESaIcEEEEEC1Ev
00107860 W _ZN9__gnu_cxx13new_allocatorISt4pairIKtNSt7__cxx1112basic_stringIcSt11char_traitsIcESaIcEEEEEC2ERKSA_
00104c62 W _ZN9__gnu_cxx13new_allocatorISt4pairIKtNSt7__cxx1112basic_stringIcSt11char_traitsIcESaIcEEEEEC2Ev
00104c68 W _ZN9__gnu_cxx13new_allocatorISt4pairIKtNSt7__cxx1112basic_stringIcSt11char_traitsIcESaIcEEEEED1Ev
00104c68 W _ZN9__gnu_cxx13new_allocatorISt4pairIKtNSt7__cxx1112basic_stringIcSt11char_traitsIcESaIcEEEEED2Ev
00191c00 W _ZN9__gnu_cxx13__scoped_lockD1Ev
00191c00 W _ZN9__gnu_cxx13__scoped_lockD2Ev
001dc640 W _ZN9__gnu_cxx13stdio_filebufIcSt11char_traitsIcEE2fdEv
001dc670 W _ZN9__gnu_cxx13stdio_filebufIcSt11char_traitsIcEE4fileEv
001dc610 W _ZN9__gnu_cxx13stdio_filebufIcSt11char_traitsIcEE4swapERS3_
001dc490 W _ZN9__gnu_cxx13stdio_filebufIcSt11char_traitsIcEEC1EiSt13_Ios_Openmodej
001dc550 W _ZN9__gnu_cxx13stdio_filebufIcSt11char_traitsIcEEC1EP8_IO_FILESt13_Ios_Openmodej
001dc460 W _ZN9__gnu_cxx13stdio_filebufIcSt11char_traitsIcEEC1Ev
001dc490 W _ZN9__gnu_cxx13stdio_filebufIcSt11char_traitsIcEEC2EiSt13_Ios_Openmodej
001dc550 W _ZN9__gnu_cxx13stdio_filebufIcSt11char_traitsIcEEC2EP8_IO_FILESt13_Ios_Openmodej
001dc460 W _ZN9__gnu_cxx13stdio_filebufIcSt11char_traitsIcEEC2Ev
001dc3b0 W _ZN9__gnu_cxx13stdio_filebufIcSt11char_traitsIcEED0Ev
001dc360 W _ZN9__gnu_cxx13stdio_filebufIcSt11char_traitsIcEED1Ev
001dc360 W _ZN9__gnu_cxx13stdio_filebufIcSt11char_traitsIcEED2Ev
001dca90 W _ZN9__gnu_cxx13stdio_filebufIwSt11char_traitsIwEE2fdEv
001dcac0 W _ZN9__gnu_cxx13stdio_filebufIwSt11char_traitsIwEE4fileEv
001dca60 W _ZN9__gnu_cxx13stdio_filebufIwSt11char_traitsIwEE4swapERS3_
001dc8e0 W _ZN9__gnu_cxx13stdio_filebufIwSt11char_traitsIwEEC1EiSt13_Ios_Openmodej
001dc9a0 W _ZN9__gnu_cxx13stdio_filebufIwSt11char_traitsIwEEC1EP8_IO_FILESt13_Ios_Openmodej
001dc8b0 W _ZN9__gnu_cxx13stdio_filebufIwSt11char_traitsIwEEC1Ev
001dc8e0 W _ZN9__gnu_cxx13stdio_filebufIwSt11char_traitsIwEEC2EiSt13_Ios_Openmodej
001dc9a0 W _ZN9__gnu_cxx13stdio_filebufIwSt11char_traitsIwEEC2EP8_IO_FILESt13_Ios_Openmodej
001dc8b0 W _ZN9__gnu_cxx13stdio_filebufIwSt11char_traitsIwEEC2Ev
001dc430 W _ZN9__gnu_cxx13stdio_filebufIwSt11char_traitsIwEED0Ev
001dc3e0 W _ZN9__gnu_cxx13stdio_filebufIwSt11char_traitsIwEED1Ev
001dc3e0 W _ZN9__gnu_cxx13stdio_filebufIwSt11char_traitsIwEED2Ev
0010d9f7 W _ZN9__gnu_cxx14__alloc_traitsISaIN7peparse13aux_symbol_f1EEE17_S_select_on_copyERKS3_
0010db50 W _ZN9__gnu_cxx14__alloc_traitsISaIN7peparse13aux_symbol_f2EEE17_S_select_on_copyERKS3_
0010dcaa W _ZN9__gnu_cxx14__alloc_traitsISaIN7peparse13aux_symbol_f3EEE17_S_select_on_copyERKS3_
0010de04 W _ZN9__gnu_cxx14__alloc_traitsISaIN7peparse13aux_symbol_f4EEE17_S_select_on_copyERKS3_
0010df5e W _ZN9__gnu_cxx14__alloc_traitsISaIN7peparse13aux_symbol_f5EEE17_S_select_on_copyERKS3_
00107544 W _ZN9__gnu_cxx14__alloc_traitsISaIN7peparse7sectionEEE17_S_select_on_copyERKS3_
00223b80 T _ZN9__gnu_cxx15__concat_size_tEPcjj
00223c20 T _ZN9__gnu_cxx15__snprintf_liteEPcjPKcS0_
0010e7c8 W _ZN9__gnu_cxx16__aligned_membufISt4pairIKtKNSt7__cxx1112basic_stringIcSt11char_traitsIcESaIcEEEEE6_M_ptrEv
0010f644 W _ZN9__gnu_cxx16__aligned_membufISt4pairIKtKNSt7__cxx1112basic_stringIcSt11char_traitsIcESaIcEEEEE7_M_addrEv
0010f574 W _ZN9__gnu_cxx16__aligned_membufISt4pairIKtKNSt7__cxx1112basic_stringIcSt11char_traitsIcESaIcEEEEEC1Ev
0010f574 W _ZN9__gnu_cxx16__aligned_membufISt4pairIKtKNSt7__cxx1112basic_stringIcSt11char_traitsIcESaIcEEEEEC2Ev
0010e710 W _ZN9__gnu_cxx16__aligned_membufISt4pairIKtNSt7__cxx1112basic_stringIcSt11char_traitsIcESaIcEEEEE6_M_ptrEv
0010f548 W _ZN9__gnu_cxx16__aligned_membufISt4pairIKtNSt7__cxx1112basic_stringIcSt11char_traitsIcESaIcEEEEE7_M_addrEv
0010f478 W _ZN9__gnu_cxx16__aligned_membufISt4pairIKtNSt7__cxx1112basic_stringIcSt11char_traitsIcESaIcEEEEEC1Ev
0010f478 W _ZN9__gnu_cxx16__aligned_membufISt4pairIKtNSt7__cxx1112basic_stringIcSt11char_traitsIcESaIcEEEEEC2Ev
001102c7 W _ZN9__gnu_cxx17__is_null_pointerIhEEbPT_
00110a6a W _ZN9__gnu_cxx17__is_null_pointerINS_17__normal_iteratorIPcSt6vectorIcSaIcEEEEEEbT_
00119c92 W _ZN9__gnu_cxx17__normal_iteratorIP16NESTED_FILE_INFOSt6vectorIS1_SaIS1_EEEC1ERKS2_
00119c92 W _ZN9__gnu_cxx17__normal_iteratorIP16NESTED_FILE_INFOSt6vectorIS1_SaIS1_EEEC2ERKS2_
00119b88 W _ZN9__gnu_cxx17__normal_iteratorIP16NESTED_FILE_INFOSt6vectorIS1_SaIS1_EEEppEv
0011c8b6 W _ZN9__gnu_cxx17__normal_iteratorIP8Cab_InfoSt6vectorIS1_SaIS1_EEEC1ERKS2_
0011c8b6 W _ZN9__gnu_cxx17__normal_iteratorIP8Cab_InfoSt6vectorIS1_SaIS1_EEEC2ERKS2_
0011c59a W _ZN9__gnu_cxx17__normal_iteratorIP8Cab_InfoSt6vectorIS1_SaIS1_EEEppEv
001052d6 W _ZN9__gnu_cxx17__normal_iteratorIPcNSt7__cxx1112basic_stringIcSt11char_traitsIcESaIcEEEEC1ERKS1_
001052d6 W _ZN9__gnu_cxx17__normal_iteratorIPcNSt7__cxx1112basic_stringIcSt11char_traitsIcESaIcEEEEC2ERKS1_
00106064 W _ZN9__gnu_cxx17__normal_iteratorIPcNSt7__cxx1112basic_stringIcSt11char_traitsIcESaIcEEEEppEv
0010780a W _ZN9__gnu_cxx17__normal_iteratorIPcSt6vectorIcSaIcEEEC1ERKS1_
0010780a W _ZN9__gnu_cxx17__normal_iteratorIPcSt6vectorIcSaIcEEEC2ERKS1_
0011132e W _ZN9__gnu_cxx17__normal_iteratorIPcSt6vectorIcSaIcEEEppEv
0010384e W _ZN9__gnu_cxx17__normal_iteratorIPKcNSt7__cxx1112basic_stringIcSt11char_traitsIcESaIcEEEEC1IPcEERKNS0_IT_NS_11__enable_ifIXsrSt10__are_sameISC_SB_E7__valueES8_E6__typeEEE
0010384e W _ZN9__gnu_cxx17__normal_iteratorIPKcNSt7__cxx1112basic_stringIcSt11char_traitsIcESaIcEEEEC2IPcEERKNS0_IT_NS_11__enable_ifIXsrSt10__are_sameISC_SB_E7__valueES8_E6__typeEEE
0010ed74 W _ZN9__gnu_cxx17__normal_iteratorIPKN7peparse13aux_symbol_f1ESt6vectorIS2_SaIS2_EEEC1ERKS4_
0010ed74 W _ZN9__gnu_cxx17__normal_iteratorIPKN7peparse13aux_symbol_f1ESt6vectorIS2_SaIS2_EEEC2ERKS4_
0010ee54 W _ZN9__gnu_cxx17__normal_iteratorIPKN7peparse13aux_symbol_f2ESt6vectorIS2_SaIS2_EEEC1ERKS4_
0010ee54 W _ZN9__gnu_cxx17__normal_iteratorIPKN7peparse13aux_symbol_f2ESt6vectorIS2_SaIS2_EEEC2ERKS4_
0010ef34 W _ZN9__gnu_cxx17__normal_iteratorIPKN7peparse13aux_symbol_f3ESt6vectorIS2_SaIS2_EEEC1ERKS4_
0010ef34 W _ZN9__gnu_cxx17__normal_iteratorIPKN7peparse13aux_symbol_f3ESt6vectorIS2_SaIS2_EEEC2ERKS4_
0010f014 W _ZN9__gnu_cxx17__normal_iteratorIPKN7peparse13aux_symbol_f4ESt6vectorIS2_SaIS2_EEEC1ERKS4_
0010f014 W _ZN9__gnu_cxx17__normal_iteratorIPKN7peparse13aux_symbol_f4ESt6vectorIS2_SaIS2_EEEC2ERKS4_
00110672 W _ZN9__gnu_cxx17__normal_iteratorIPKN7peparse13aux_symbol_f4ESt6vectorIS2_SaIS2_EEEppEv
0010f0f4 W _ZN9__gnu_cxx17__normal_iteratorIPKN7peparse13aux_symbol_f5ESt6vectorIS2_SaIS2_EEEC1ERKS4_
0010f0f4 W _ZN9__gnu_cxx17__normal_iteratorIPKN7peparse13aux_symbol_f5ESt6vectorIS2_SaIS2_EEEC2ERKS4_
00105372 W _ZN9__gnu_cxx17__normal_iteratorIPKN7peparse7sectionESt6vectorIS2_SaIS2_EEEC1ERKS4_
00105372 W _ZN9__gnu_cxx17__normal_iteratorIPKN7peparse7sectionESt6vectorIS2_SaIS2_EEEC2ERKS4_
001039ec W _ZN9__gnu_cxx17__normal_iteratorIPKN7peparse7sectionESt6vectorIS2_SaIS2_EEEppEv
0011f006 W _ZN9__gnu_cxx17__normal_iteratorIPKNSt7__cxx1112basic_stringIcSt11char_traitsIcESaIcEEESt6vectorIS6_SaIS6_EEEC1ERKS8_
0011c6b4 W _ZN9__gnu_cxx17__normal_iteratorIPKNSt7__cxx1112basic_stringIcSt11char_traitsIcESaIcEEESt6vectorIS6_SaIS6_EEEC1IPS6_EERKNS0_IT_NS_11__enable_ifIXsrSt10__are_sameISF_SE_E7__valueESB_E6__typeEEE
0011f006 W _ZN9__gnu_cxx17__normal_iteratorIPKNSt7__cxx1112basic_stringIcSt11char_traitsIcESaIcEEESt6vectorIS6_SaIS6_EEEC2ERKS8_
0011c6b4 W _ZN9__gnu_cxx17__normal_iteratorIPKNSt7__cxx1112basic_stringIcSt11char_traitsIcESaIcEEESt6vectorIS6_SaIS6_EEEC2IPS6_EERKNS0_IT_NS_11__enable_ifIXsrSt10__are_sameISF_SE_E7__valueESB_E6__typeEEE
0011f2c2 W _ZN9__gnu_cxx17__normal_iteratorIPKNSt7__cxx1112basic_stringIcSt11char_traitsIcESaIcEEESt6vectorIS6_SaIS6_EEEppEv
0010538a W _ZN9__gnu_cxx17__normal_iteratorIPN7peparse10rich_entryESt6vectorIS2_SaIS2_EEEC1ERKS3_
0010538a W _ZN9__gnu_cxx17__normal_iteratorIPN7peparse10rich_entryESt6vectorIS2_SaIS2_EEEC2ERKS3_
00103a80 W _ZN9__gnu_cxx17__normal_iteratorIPN7peparse10rich_entryESt6vectorIS2_SaIS2_EEEppEv
00107636 W _ZN9__gnu_cxx17__normal_iteratorIPN7peparse5relocESt6vectorIS2_SaIS2_EEEC1ERKS3_
00107636 W _ZN9__gnu_cxx17__normal_iteratorIPN7peparse5relocESt6vectorIS2_SaIS2_EEEC2ERKS3_
0010487c W _ZN9__gnu_cxx17__normal_iteratorIPN7peparse5relocESt6vectorIS2_SaIS2_EEEppEv
0010764e W _ZN9__gnu_cxx17__normal_iteratorIPN7peparse6symbolESt6vectorIS2_SaIS2_EEEC1ERKS3_
0010764e W _ZN9__gnu_cxx17__normal_iteratorIPN7peparse6symbolESt6vectorIS2_SaIS2_EEEC2ERKS3_
00104910 W _ZN9__gnu_cxx17__normal_iteratorIPN7peparse6symbolESt6vectorIS2_SaIS2_EEEppEv
00105a28 W _ZN9__gnu_cxx17__normal_iteratorIPN7peparse7sectionESt6vectorIS2_SaIS2_EEEC1ERKS3_
00105a28 W _ZN9__gnu_cxx17__normal_iteratorIPN7peparse7sectionESt6vectorIS2_SaIS2_EEEC2ERKS3_
0010ea04 W _ZN9__gnu_cxx17__normal_iteratorIPN7peparse7sectionESt6vectorIS2_SaIS2_EEEmmEv
00104754 W _ZN9__gnu_cxx17__normal_iteratorIPN7peparse7sectionESt6vectorIS2_SaIS2_EEEppEv
001053a2 W _ZN9__gnu_cxx17__normal_iteratorIPN7peparse8resourceESt6vectorIS2_SaIS2_EEEC1ERKS3_
001053a2 W _ZN9__gnu_cxx17__normal_iteratorIPN7peparse8resourceESt6vectorIS2_SaIS2_EEEC2ERKS3_
00103b14 W _ZN9__gnu_cxx17__normal_iteratorIPN7peparse8resourceESt6vectorIS2_SaIS2_EEEppEv
00107666 W _ZN9__gnu_cxx17__normal_iteratorIPN7peparse9exportentESt6vectorIS2_SaIS2_EEEC1ERKS3_
00107666 W _ZN9__gnu_cxx17__normal_iteratorIPN7peparse9exportentESt6vectorIS2_SaIS2_EEEC2ERKS3_
001049a4 W _ZN9__gnu_cxx17__normal_iteratorIPN7peparse9exportentESt6vectorIS2_SaIS2_EEEppEv
0010761e W _ZN9__gnu_cxx17__normal_iteratorIPN7peparse9importentESt6vectorIS2_SaIS2_EEEC1ERKS3_
0010761e W _ZN9__gnu_cxx17__normal_iteratorIPN7peparse9importentESt6vectorIS2_SaIS2_EEEC2ERKS3_
001047e8 W _ZN9__gnu_cxx17__normal_iteratorIPN7peparse9importentESt6vectorIS2_SaIS2_EEEppEv
0011c96a W _ZN9__gnu_cxx17__normal_iteratorIPNSt7__cxx1112basic_stringIcSt11char_traitsIcESaIcEEESt6vectorIS6_SaIS6_EEEC1ERKS7_
0011c96a W _ZN9__gnu_cxx17__normal_iteratorIPNSt7__cxx1112basic_stringIcSt11char_traitsIcESaIcEEESt6vectorIS6_SaIS6_EEEC2ERKS7_
0011d670 W _ZN9__gnu_cxx17__normal_iteratorIPNSt7__cxx1112basic_stringIcSt11char_traitsIcESaIcEEESt6vectorIS6_SaIS6_EEEppEv
001dc8a0 W _ZN9__gnu_cxx18stdio_sync_filebufIcSt11char_traitsIcEE4fileEv
001dc7c0 W _ZN9__gnu_cxx18stdio_sync_filebufIcSt11char_traitsIcEE4swapERS3_
001dbda0 W _ZN9__gnu_cxx18stdio_sync_filebufIcSt11char_traitsIcEE4syncEv
001dbcf0 W _ZN9__gnu_cxx18stdio_sync_filebufIcSt11char_traitsIcEE5uflowEv
001dc0f0 W _ZN9__gnu_cxx18stdio_sync_filebufIcSt11char_traitsIcEE6xsgetnEPci
001dc0c0 W _ZN9__gnu_cxx18stdio_sync_filebufIcSt11char_traitsIcEE6xsputnEPKci
001dbde0 W _ZN9__gnu_cxx18stdio_sync_filebufIcSt11char_traitsIcEE7seekoffExSt12_Ios_SeekdirSt13_Ios_Openmode
001dc1e0 W _ZN9__gnu_cxx18stdio_sync_filebufIcSt11char_traitsIcEE7seekposESt4fposI11__mbstate_tESt13_Ios_Openmode
001dc190 W _ZN9__gnu_cxx18stdio_sync_filebufIcSt11char_traitsIcEE8overflowEi
001dbd50 W _ZN9__gnu_cxx18stdio_sync_filebufIcSt11char_traitsIcEE9pbackfailEi
001dbd20 W _ZN9__gnu_cxx18stdio_sync_filebufIcSt11char_traitsIcEE9underflowEv
001dc770 W _ZN9__gnu_cxx18stdio_sync_filebufIcSt11char_traitsIcEEaSEOS3_
001dc720 W _ZN9__gnu_cxx18stdio_sync_filebufIcSt11char_traitsIcEEC1EOS3_
001dc6a0 W _ZN9__gnu_cxx18stdio_sync_filebufIcSt11char_traitsIcEEC1EP8_IO_FILE
001dc720 W _ZN9__gnu_cxx18stdio_sync_filebufIcSt11char_traitsIcEEC2EOS3_
001dc6a0 W _ZN9__gnu_cxx18stdio_sync_filebufIcSt11char_traitsIcEEC2EP8_IO_FILE
001dbc40 W _ZN9__gnu_cxx18stdio_sync_filebufIcSt11char_traitsIcEED0Ev
001dbc10 W _ZN9__gnu_cxx18stdio_sync_filebufIcSt11char_traitsIcEED1Ev
001dbc10 W _ZN9__gnu_cxx18stdio_sync_filebufIcSt11char_traitsIcEED2Ev
001dccf0 W _ZN9__gnu_cxx18stdio_sync_filebufIwSt11char_traitsIwEE4fileEv
001dcc10 W _ZN9__gnu_cxx18stdio_sync_filebufIwSt11char_traitsIwEE4swapERS3_
001dbdc0 W _ZN9__gnu_cxx18stdio_sync_filebufIwSt11char_traitsIwEE4syncEv
001dbf00 W _ZN9__gnu_cxx18stdio_sync_filebufIwSt11char_traitsIwEE5uflowEv
001dbf30 W _ZN9__gnu_cxx18stdio_sync_filebufIwSt11char_traitsIwEE6xsgetnEPwi
001dc060 W _ZN9__gnu_cxx18stdio_sync_filebufIwSt11char_traitsIwEE6xsputnEPKwi
001dbe70 W _ZN9__gnu_cxx18stdio_sync_filebufIwSt11char_traitsIwEE7seekoffExSt12_Ios_SeekdirSt13_Ios_Openmode
001dc2a0 W _ZN9__gnu_cxx18stdio_sync_filebufIwSt11char_traitsIwEE7seekposESt4fposI11__mbstate_tESt13_Ios_Openmode
001dc140 W _ZN9__gnu_cxx18stdio_sync_filebufIwSt11char_traitsIwEE8overflowEj
001dbff0 W _ZN9__gnu_cxx18stdio_sync_filebufIwSt11char_traitsIwEE9pbackfailEj
001dbfc0 W _ZN9__gnu_cxx18stdio_sync_filebufIwSt11char_traitsIwEE9underflowEv
001dcbc0 W _ZN9__gnu_cxx18stdio_sync_filebufIwSt11char_traitsIwEEaSEOS3_
001dcb70 W _ZN9__gnu_cxx18stdio_sync_filebufIwSt11char_traitsIwEEC1EOS3_
001dcaf0 W _ZN9__gnu_cxx18stdio_sync_filebufIwSt11char_traitsIwEEC1EP8_IO_FILE
001dcb70 W _ZN9__gnu_cxx18stdio_sync_filebufIwSt11char_traitsIwEEC2EOS3_
001dcaf0 W _ZN9__gnu_cxx18stdio_sync_filebufIwSt11char_traitsIwEEC2EP8_IO_FILE
001dbcb0 W _ZN9__gnu_cxx18stdio_sync_filebufIwSt11char_traitsIwEED0Ev
001dbc80 W _ZN9__gnu_cxx18stdio_sync_filebufIwSt11char_traitsIwEED1Ev
001dbc80 W _ZN9__gnu_cxx18stdio_sync_filebufIwSt11char_traitsIwEED2Ev
0022c4e0 T _ZN9__gnu_cxx20recursive_init_errorD0Ev
0022c4b0 T _ZN9__gnu_cxx20recursive_init_errorD1Ev
0022c4b0 T _ZN9__gnu_cxx20recursive_init_errorD2Ev
0018f530 W _ZN9__gnu_cxx24__concurrence_lock_errorD0Ev
0018f4d0 W _ZN9__gnu_cxx24__concurrence_lock_errorD1Ev
0018f4d0 W _ZN9__gnu_cxx24__concurrence_lock_errorD2Ev
0018f570 W _ZN9__gnu_cxx26__concurrence_unlock_errorD0Ev
0018f500 W _ZN9__gnu_cxx26__concurrence_unlock_errorD1Ev
0018f500 W _ZN9__gnu_cxx26__concurrence_unlock_errorD2Ev
00223ad0 T _ZN9__gnu_cxx26__throw_insufficient_spaceEPKcS1_
00214290 T _ZN9__gnu_cxx27__verbose_terminate_handlerEv
0018f5b0 W _ZN9__gnu_cxx30__throw_concurrence_lock_errorEv
00107e40 W _ZN9__gnu_cxx5__ops16_Iter_equals_valIKiEC1ERS2_
00107e40 W _ZN9__gnu_cxx5__ops16_Iter_equals_valIKiEC2ERS2_
0010b61a W _ZN9__gnu_cxx5__ops16_Iter_equals_valIKiEclIPhEEbT_
0011cf1c W _ZN9__gnu_cxx5__ops16_Iter_equals_valIKNSt7__cxx1112basic_stringIcSt11char_traitsIcESaIcEEEEC1ERS8_
0011cf1c W _ZN9__gnu_cxx5__ops16_Iter_equals_valIKNSt7__cxx1112basic_stringIcSt11char_traitsIcESaIcEEEEC2ERS8_
0011d642 W _ZN9__gnu_cxx5__ops16_Iter_equals_valIKNSt7__cxx1112basic_stringIcSt11char_traitsIcESaIcEEEEclINS_17__normal_iteratorIPS7_St6vectorIS7_SaIS7_EEEEEEbT_
0011f294 W _ZN9__gnu_cxx5__ops16_Iter_equals_valIKNSt7__cxx1112basic_stringIcSt11char_traitsIcESaIcEEEEclINS_17__normal_iteratorIPS8_St6vectorIS7_SaIS7_EEEEEEbT_
0010525e W _ZN9__gnu_cxx5__ops17__iter_equals_valIKiEENS0_16_Iter_equals_valIT_EERS4_
0011c97a W _ZN9__gnu_cxx5__ops17__iter_equals_valIKNSt7__cxx1112basic_stringIcSt11char_traitsIcESaIcEEEEENS0_16_Iter_equals_valIT_EERSA_
001dbbf0 W _ZN9__gnu_cxxeqIPcNSt7__cxx1112basic_stringIcSt11char_traitsIcESaIcEEEEEbRKNS_17__normal_iteratorIT_T0_EESD_
00213dd0 W _ZN9__gnu_cxxeqIPcSsEEbRKNS_17__normal_iteratorIT_T0_EES7_
001dbc00 W _ZN9__gnu_cxxeqIPKcNSt7__cxx1112basic_stringIcSt11char_traitsIcESaIcEEEEEbRKNS_17__normal_iteratorIT_T0_EESE_
00213de0 W _ZN9__gnu_cxxeqIPKcSsEEbRKNS_17__normal_iteratorIT_T0_EES8_
001f1d70 W _ZN9__gnu_cxxeqIPKwNSt7__cxx1112basic_stringIwSt11char_traitsIwESaIwEEEEEbRKNS_17__normal_iteratorIT_T0_EESE_
0022b4f0 W _ZN9__gnu_cxxeqIPKwSbIwSt11char_traitsIwESaIwEEEEbRKNS_17__normal_iteratorIT_T0_EESC_
0010d621 W _ZN9__gnu_cxxeqIPN7peparse7sectionESt6vectorIS2_SaIS2_EEEEbRKNS_17__normal_iteratorIT_T0_EESC_
001f1d60 W _ZN9__gnu_cxxeqIPwNSt7__cxx1112basic_stringIwSt11char_traitsIwESaIwEEEEEbRKNS_17__normal_iteratorIT_T0_EESD_
0022b4e0 W _ZN9__gnu_cxxeqIPwSbIwSt11char_traitsIwESaIwEEEEbRKNS_17__normal_iteratorIT_T0_EESB_
0010e9d3 W _ZN9__gnu_cxxltIPN7peparse7sectionESt6vectorIS2_SaIS2_EEEEbRKNS_17__normal_iteratorIT_T0_EESC_
001119c4 W _ZN9__gnu_cxxmiIPcSt6vectorIcSaIcEEEENS_17__normal_iteratorIT_T0_E15difference_typeERKS8_SB_
0010b695 W _ZN9__gnu_cxxmiIPKcNSt7__cxx1112basic_stringIcSt11char_traitsIcESaIcEEEEENS_17__normal_iteratorIT_T0_E15difference_typeERKSC_SF_
001052ee W _ZN9__gnu_cxxmiIPKcPcNSt7__cxx1112basic_stringIcSt11char_traitsIcESaIcEEEEEDTmicldtfp_4baseEcldtfp0_4baseEERKNS_17__normal_iteratorIT_T1_EERKNSB_IT0_SD_EE
0011f258 W _ZN9__gnu_cxxmiIPKNSt7__cxx1112basic_stringIcSt11char_traitsIcESaIcEEESt6vectorIS6_SaIS6_EEEENS_17__normal_iteratorIT_T0_E15difference_typeERKSF_SI_
001086d0 W _ZN9__gnu_cxxmiIPN7peparse7sectionESt6vectorIS2_SaIS2_EEEENS_17__normal_iteratorIT_T0_E15difference_typeERKSA_SD_
0011d606 W _ZN9__gnu_cxxmiIPNSt7__cxx1112basic_stringIcSt11char_traitsIcESaIcEEESt6vectorIS6_SaIS6_EEEENS_17__normal_iteratorIT_T0_E15difference_typeERKSE_SH_
00119b56 W _ZN9__gnu_cxxneIP16NESTED_FILE_INFOSt6vectorIS1_SaIS1_EEEEbRKNS_17__normal_iteratorIT_T0_EESB_
0011c568 W _ZN9__gnu_cxxneIP8Cab_InfoSt6vectorIS1_SaIS1_EEEEbRKNS_17__normal_iteratorIT_T0_EESB_
00106032 W _ZN9__gnu_cxxneIPcNSt7__cxx1112basic_stringIcSt11char_traitsIcESaIcEEEEEbRKNS_17__normal_iteratorIT_T0_EESD_
00110a74 W _ZN9__gnu_cxxneIPcSt6vectorIcSaIcEEEEbRKNS_17__normal_iteratorIT_T0_EESA_
00110640 W _ZN9__gnu_cxxneIPKN7peparse13aux_symbol_f4ESt6vectorIS2_SaIS2_EEEEbRKNS_17__normal_iteratorIT_T0_EESD_
001039ba W _ZN9__gnu_cxxneIPKN7peparse7sectionESt6vectorIS2_SaIS2_EEEEbRKNS_17__normal_iteratorIT_T0_EESD_
0011c6d2 W _ZN9__gnu_cxxneIPKNSt7__cxx1112basic_stringIcSt11char_traitsIcESaIcEEEPS6_St6vectorIS6_SaIS6_EEEEbRKNS_17__normal_iteratorIT_T1_EERKNSD_IT0_SF_EE
0011ef32 W _ZN9__gnu_cxxneIPKNSt7__cxx1112basic_stringIcSt11char_traitsIcESaIcEEESt6vectorIS6_SaIS6_EEEEbRKNS_17__normal_iteratorIT_T0_EESH_
00103a4e W _ZN9__gnu_cxxneIPN7peparse10rich_entryESt6vectorIS2_SaIS2_EEEEbRKNS_17__normal_iteratorIT_T0_EESC_
0010484a W _ZN9__gnu_cxxneIPN7peparse5relocESt6vectorIS2_SaIS2_EEEEbRKNS_17__normal_iteratorIT_T0_EESC_
001048de W _ZN9__gnu_cxxneIPN7peparse6symbolESt6vectorIS2_SaIS2_EEEEbRKNS_17__normal_iteratorIT_T0_EESC_
00104722 W _ZN9__gnu_cxxneIPN7peparse7sectionESt6vectorIS2_SaIS2_EEEEbRKNS_17__normal_iteratorIT_T0_EESC_
00103ae2 W _ZN9__gnu_cxxneIPN7peparse8resourceESt6vectorIS2_SaIS2_EEEEbRKNS_17__normal_iteratorIT_T0_EESC_
00104972 W _ZN9__gnu_cxxneIPN7peparse9exportentESt6vectorIS2_SaIS2_EEEEbRKNS_17__normal_iteratorIT_T0_EESC_
001047b6 W _ZN9__gnu_cxxneIPN7peparse9importentESt6vectorIS2_SaIS2_EEEEbRKNS_17__normal_iteratorIT_T0_EESC_
00172602 T _ZN9NCompress10CCopyCoder11SetInStreamEP19ISequentialInStream
00172b0a W _ZN9NCompress10CCopyCoder14QueryInterfaceERK4GUIDPPv
00172656 T _ZN9NCompress10CCopyCoder15ReleaseInStreamEv
001726fa T _ZN9NCompress10CCopyCoder24GetInStreamProcessedSizeEPy
001727d4 T _ZN9NCompress10CCopyCoder4CodeEP19ISequentialInStreamP20ISequentialOutStreamPKyS6_P21ICompressProgressInfo
0017268a T _ZN9NCompress10CCopyCoder4ReadEPvjPj
00172c38 W _ZN9NCompress10CCopyCoder6AddRefEv
00172c5c W _ZN9NCompress10CCopyCoder7ReleaseEv
001727a4 T _ZN9NCompress10CCopyCoderD0Ev
0017271c T _ZN9NCompress10CCopyCoderD1Ev
0017271c T _ZN9NCompress10CCopyCoderD2Ev
00172972 T _ZN9NCompress10CopyStreamEP19ISequentialInStreamP20ISequentialOutStreamP21ICompressProgressInfo
00172a25 T _ZN9NCompress20CopyStream_ExactSizeEP19ISequentialInStreamP20ISequentialOutStreamyP21ICompressProgressInfo
00165ff2 T _ZN9NWildcard11CCensorNode13AddItemSimpleEbRNS_5CItemE
001666fe T _ZN9NWildcard11CCensorNode13ExtendExcludeERKS0_
001677dc T _ZN9NWildcard11CCensorNode7AddItemEbRK7UStringbbbb
00167126 T _ZN9NWildcard11CCensorNode7AddItemEbRNS_5CItemEi
001678e2 T _ZN9NWildcard11CCensorNode8AddItem2EbRK7UStringbb
00169250 W _ZN9NWildcard11CCensorNodeC1ERKS0_
00169250 W _ZN9NWildcard11CCensorNodeC2ERKS0_
00128a26 W _ZN9NWildcard11CCensorNodeD1Ev
00128a26 W _ZN9NWildcard11CCensorNodeD2Ev
00166560 T _ZN9NWildcard16IsDriveColonNameEPKw
00166589 T _ZN9NWildcard30GetNumPrefixParts_if_DrivePathER13CObjectVectorI7UStringE
00168c40 W _ZN9NWildcard5CPairD1Ev
00168c40 W _ZN9NWildcard5CPairD2Ev
00166606 T _ZN9NWildcard7CCensor10AddPreItemEbRK7UStringbb
001670b0 T _ZN9NWildcard7CCensor13ExtendExcludeEv
00168ba4 T _ZN9NWildcard7CCensor16AddPathsToCensorENS_15ECensorPathModeE
00167c6e T _ZN9NWildcard7CCensor7AddItemENS_15ECensorPathModeEbRK7UStringbb
00131ca5 T _Znaj
0018fae0 T _ZnajRKSt9nothrow_t
00144b12 T _ZNK10CArcInfoEx13FindExtensionERK7UString
001790ec T _ZNK10CBenchInfo17GetRatingPerUsageEy
001791fc T _ZNK10CBenchInfo8GetSpeedEy
00178fde T _ZNK10CBenchInfo8GetUsageEv
0018fe90 T _ZNK10__cxxabiv117__class_type_info10__do_catchEPKSt9type_infoPPvj
0018fd70 T _ZNK10__cxxabiv117__class_type_info11__do_upcastEPKS0_PKvRNS0_15__upcast_resultE
0018fc70 T _ZNK10__cxxabiv117__class_type_info11__do_upcastEPKS0_PPv
0018fdd0 T _ZNK10__cxxabiv117__class_type_info12__do_dyncastEiNS0_10__sub_kindEPKS0_PKvS3_S5_RNS0_16__dyncast_resultE
0018fcf0 T _ZNK10__cxxabiv117__class_type_info20__do_find_public_srcEiPKvPKS0_S2_
00214100 T _ZNK10__cxxabiv117__pbase_type_info10__do_catchEPKSt9type_infoPPvj
00214070 W _ZNK10__cxxabiv117__pbase_type_info15__pointer_catchEPKS0_PPvj
001903a0 T _ZNK10__cxxabiv119__pointer_type_info14__is_pointer_pEv
00190410 T _ZNK10__cxxabiv119__pointer_type_info15__pointer_catchEPKNS_17__pbase_type_infoEPPvj
00190690 T _ZNK10__cxxabiv120__si_class_type_info11__do_upcastEPKNS_17__class_type_infoEPKvRNS1_15__upcast_resultE
001904f0 T _ZNK10__cxxabiv120__si_class_type_info12__do_dyncastEiNS_17__class_type_info10__sub_kindEPKS1_PKvS4_S6_RNS1_16__dyncast_resultE
00190600 T _ZNK10__cxxabiv120__si_class_type_info20__do_find_public_srcEiPKvPKNS_17__class_type_infoES2_
0018f110 T _ZNK10__cxxabiv121__vmi_class_type_info11__do_upcastEPKNS_17__class_type_infoEPKvRNS1_15__upcast_resultE
0018e9e0 T _ZNK10__cxxabiv121__vmi_class_type_info12__do_dyncastEiNS_17__class_type_info10__sub_kindEPKS1_PKvS4_S6_RNS1_16__dyncast_resultE
0018e900 T _ZNK10__cxxabiv121__vmi_class_type_info20__do_find_public_srcEiPKvPKNS_17__class_type_infoES2_
00138898 T _ZNK11CArcCommand11GetPathModeEv
001388b4 T _ZNK11CArcCommand17IsFromUpdateGroupEv
00138888 T _ZNK11CArcCommand18IsFromExtractGroupEv
0011f704 T _ZNK11CFileAssist11DumpToLocalEPKcjjS1_
0011f60a T _ZNK11CFileAssist9CreateDirEPKc
00154e4a T _ZNK11CRenamePair10GetNewPathEbRK7UStringRS0_
00154a7a T _ZNK12CArchivePath11GetTempPathEv
00154926 T _ZNK12CArchivePath12GetFinalPathEv
001549d0 T _ZNK12CArchivePath15GetFinalVolPathEv
00170786 T _ZNK12CMethodProps8FindPropEj
001707c6 T _ZNK12CMethodProps8GetLevelEv
0011e6ac T _ZNK14CCmdLineParser12IsExistParamEPKc
0011eb6a T _ZNK14CCmdLineParser13GetOutputPathB5cxx11Ev
0011e880 T _ZNK14CCmdLineParser13GetParamIndexEPKcPj
0011eb5e T _ZNK14CCmdLineParser13GetTargetPathB5cxx11Ev
0011eb52 T _ZNK14CCmdLineParser15IsOnlyRecognizeEv
00120f08 T _ZNK14CUnpackManager12IsExistedDirER4stat
00120f3c T _ZNK14CUnpackManager13GetOutputPathB5cxx11Ev
00120f22 T _ZNK14CUnpackManager13GetTargetPathB5cxx11Ev
00120f56 T _ZNK14CUnpackManager15IsOnlyRecognizeEv
00120ec4 T _ZNK14CUnpackManager17IsValidOutputPathEPKc
00173db8 T _ZNK16CExtrRefSortPair7CompareERKS_
00171e04 T _ZNK19CDynBufSeqOutStream12CopyToBufferER7CBufferIhE
0011bf34 T _ZNK19CShieldInstUnpacker19CreateCabOutputPathEPKc
0014a0f2 T _ZNK4CArc11GetItemPathEjR7UString
0014a810 T _ZNK4CArc11GetItemSizeEjRyRb
0014a90c T _ZNK4CArc12GetItemMTimeEjR9_FILETIMERb
0014a2ac T _ZNK4CArc12GetItemPath2EjR7UString
00149faa T _ZNK4CArc18GetDefaultItemPathEjR7UString
00149b2a T _ZNK4CArc19GetItemPathToParentEjjR13CObjectVectorI7UStringE
0014a37c T _ZNK4CArc7GetItemEjR12CReadArcItem
00170572 T _ZNK6CProps13SetCoderPropsEP27ICompressSetCoderPropertiesPKy
001305f6 T _ZNK7AString11ReverseFindEc
0013063e T _ZNK7AString21ReverseFind_PathSeparEv
0012fabc T _ZNK7AString25IsPrefixedBy_Ascii_NoCaseEPKc
001305c6 T _ZNK7AString4FindEPKcj
001452da T _ZNK7CCodecs17GetCodec_LibIndexEj
00145074 T _ZNK7CCodecs22FindFormatForExtensionERK7UString
00144f96 T _ZNK7CCodecs24FindFormatForArchiveNameERK7UString
001450ca T _ZNK7CCodecs24FindFormatForArchiveTypeERK7UString
00145116 T _ZNK7CCodecs24FindFormatForArchiveTypeERK7UStringR13CRecordVectorIiE
001452fa T _ZNK7CCodecs26GetCodec_DecoderIsAssignedEj
0014530c T _ZNK7CCodecs26GetCodec_EncoderIsAssignedEj
000fcca4 T _ZNK7peparse9CPEParser10GetRsrcNumEv
000fc2f4 T _ZNK7peparse9CPEParser10HasSecNameEPKc
000fcce8 T _ZNK7peparse9CPEParser11GetRsrcSizeEj
000fccb0 T _ZNK7peparse9CPEParser11GetRsrcTypeEj
000fc5ea T _ZNK7peparse9CPEParser11HasRsrcNameEPKc
000fcd20 T _ZNK7peparse9CPEParser13GetRsrcOffsetEj
000fcd58 T _ZNK7peparse9CPEParser14GetRsrcStrNameB5cxx11Ej
000fce32 T _ZNK7peparse9CPEParser17GetTargetFilePathEv
00131302 T _ZNK7UString11ReverseFindEw
00131346 T _ZNK7UString21ReverseFind_PathSeparEv
0012fb0e T _ZNK7UString25IsPrefixedBy_Ascii_NoCaseEPKc
001312ce T _ZNK7UString4FindEPKwj
00148eae T _ZNK8NArchive7NParser8CHandler13FindInsertPosERKNS0_10CParseItemE
0013313e T _ZNK8NWindows4NDLL8CLibrary7GetProcEPKc
00133a18 T _ZNK8NWindows5NFile3NIO9CFileBase9GetLengthERy
0016be1e T _ZNK8NWindows5NFile5NFind9CFileInfo6IsDotsEv
0013cd6c T _ZNK9CDirItems10GetLogPathEj
0013cd18 T _ZNK9CDirItems10GetPhyPathEj
0013cc38 T _ZNK9CDirItems15GetPrefixesPathERK13CRecordVectorIiEiRK7UString
0011a2ce W _ZNK9__gnu_cxx13new_allocatorI16NESTED_FILE_INFOE8max_sizeEv
0011d9ea W _ZNK9__gnu_cxx13new_allocatorI8Cab_InfoE8max_sizeEv
0010e694 W _ZNK9__gnu_cxx13new_allocatorIcE8max_sizeEv
0010e86e W _ZNK9__gnu_cxx13new_allocatorIDsE8max_sizeEv
00110a26 W _ZNK9__gnu_cxx13new_allocatorIhE8max_sizeEv
0010eb1c W _ZNK9__gnu_cxx13new_allocatorIN7peparse10rich_entryEE8max_sizeEv
0010f1d2 W _ZNK9__gnu_cxx13new_allocatorIN7peparse13aux_symbol_f1EE8max_sizeEv
0010f1f8 W _ZNK9__gnu_cxx13new_allocatorIN7peparse13aux_symbol_f2EE8max_sizeEv
0010f21e W _ZNK9__gnu_cxx13new_allocatorIN7peparse13aux_symbol_f3EE8max_sizeEv
0010f244 W _ZNK9__gnu_cxx13new_allocatorIN7peparse13aux_symbol_f4EE8max_sizeEv
0010f2f2 W _ZNK9__gnu_cxx13new_allocatorIN7peparse13aux_symbol_f5EE8max_sizeEv
0010ebf0 W _ZNK9__gnu_cxx13new_allocatorIN7peparse5relocEE8max_sizeEv
0010f124 W _ZNK9__gnu_cxx13new_allocatorIN7peparse6symbolEE8max_sizeEv
0010e926 W _ZNK9__gnu_cxx13new_allocatorIN7peparse7sectionEE8max_sizeEv
0010e878 W _ZNK9__gnu_cxx13new_allocatorIN7peparse8resourceEE8max_sizeEv
0010eb42 W _ZNK9__gnu_cxx13new_allocatorIN7peparse9exportentEE8max_sizeEv
0010ec16 W _ZNK9__gnu_cxx13new_allocatorIN7peparse9importentEE8max_sizeEv
0011d93c W _ZNK9__gnu_cxx13new_allocatorINSt7__cxx1112basic_stringIcSt11char_traitsIcESaIcEEEE8max_sizeEv
00111358 W _ZNK9__gnu_cxx13new_allocatorISt13_Rb_tree_nodeISt4pairIKtKNSt7__cxx1112basic_stringIcSt11char_traitsIcESaIcEEEEEE8max_sizeEv
0011134e W _ZNK9__gnu_cxx13new_allocatorISt13_Rb_tree_nodeISt4pairIKtNSt7__cxx1112basic_stringIcSt11char_traitsIcESaIcEEEEEE8max_sizeEv
00107e2a W _ZNK9__gnu_cxx16__aligned_membufISt4pairIKtKNSt7__cxx1112basic_stringIcSt11char_traitsIcESaIcEEEEE6_M_ptrEv
0010b612 W _ZNK9__gnu_cxx16__aligned_membufISt4pairIKtKNSt7__cxx1112basic_stringIcSt11char_traitsIcESaIcEEEEE7_M_addrEv
00107d18 W _ZNK9__gnu_cxx16__aligned_membufISt4pairIKtNSt7__cxx1112basic_stringIcSt11char_traitsIcESaIcEEEEE6_M_ptrEv
0010b596 W _ZNK9__gnu_cxx16__aligned_membufISt4pairIKtNSt7__cxx1112basic_stringIcSt11char_traitsIcESaIcEEEEE7_M_addrEv
00119ca2 W _ZNK9__gnu_cxx17__normal_iteratorIP16NESTED_FILE_INFOSt6vectorIS1_SaIS1_EEE4baseEv
00119b9e W _ZNK9__gnu_cxx17__normal_iteratorIP16NESTED_FILE_INFOSt6vectorIS1_SaIS1_EEEdeEv
0011c8c6 W _ZNK9__gnu_cxx17__normal_iteratorIP8Cab_InfoSt6vectorIS1_SaIS1_EEE4baseEv
0011c5b2 W _ZNK9__gnu_cxx17__normal_iteratorIP8Cab_InfoSt6vectorIS1_SaIS1_EEEdeEv
001052e6 W _ZNK9__gnu_cxx17__normal_iteratorIPcNSt7__cxx1112basic_stringIcSt11char_traitsIcESaIcEEEE4baseEv
0010607a W _ZNK9__gnu_cxx17__normal_iteratorIPcNSt7__cxx1112basic_stringIcSt11char_traitsIcESaIcEEEEdeEv
0011efb0 W _ZNK9__gnu_cxx17__normal_iteratorIPcNSt7__cxx1112basic_stringIcSt11char_traitsIcESaIcEEEEmiEi
00111300 W _ZNK9__gnu_cxx17__normal_iteratorIPcSt6vectorIcSaIcEEE4baseEv
00111344 W _ZNK9__gnu_cxx17__normal_iteratorIPcSt6vectorIcSaIcEEEdeEv
00107f88 W _ZNK9__gnu_cxx17__normal_iteratorIPKcNSt7__cxx1112basic_stringIcSt11char_traitsIcESaIcEEEE4baseEv
00111e08 W _ZNK9__gnu_cxx17__normal_iteratorIPKN7peparse13aux_symbol_f1ESt6vectorIS2_SaIS2_EEE4baseEv
00111e10 W _ZNK9__gnu_cxx17__normal_iteratorIPKN7peparse13aux_symbol_f2ESt6vectorIS2_SaIS2_EEE4baseEv
00111e18 W _ZNK9__gnu_cxx17__normal_iteratorIPKN7peparse13aux_symbol_f3ESt6vectorIS2_SaIS2_EEE4baseEv
00110f36 W _ZNK9__gnu_cxx17__normal_iteratorIPKN7peparse13aux_symbol_f4ESt6vectorIS2_SaIS2_EEE4baseEv
00110688 W _ZNK9__gnu_cxx17__normal_iteratorIPKN7peparse13aux_symbol_f4ESt6vectorIS2_SaIS2_EEEdeEv
00111e20 W _ZNK9__gnu_cxx17__normal_iteratorIPKN7peparse13aux_symbol_f5ESt6vectorIS2_SaIS2_EEE4baseEv
00105382 W _ZNK9__gnu_cxx17__normal_iteratorIPKN7peparse7sectionESt6vectorIS2_SaIS2_EEE4baseEv
00103a02 W _ZNK9__gnu_cxx17__normal_iteratorIPKN7peparse7sectionESt6vectorIS2_SaIS2_EEEdeEv
0011ca00 W _ZNK9__gnu_cxx17__normal_iteratorIPKNSt7__cxx1112basic_stringIcSt11char_traitsIcESaIcEEESt6vectorIS6_SaIS6_EEE4baseEv
0011f2d8 W _ZNK9__gnu_cxx17__normal_iteratorIPKNSt7__cxx1112basic_stringIcSt11char_traitsIcESaIcEEESt6vectorIS6_SaIS6_EEEdeEv
0010539a W _ZNK9__gnu_cxx17__normal_iteratorIPN7peparse10rich_entryESt6vectorIS2_SaIS2_EEE4baseEv
00103a96 W _ZNK9__gnu_cxx17__normal_iteratorIPN7peparse10rich_entryESt6vectorIS2_SaIS2_EEEdeEv
00107646 W _ZNK9__gnu_cxx17__normal_iteratorIPN7peparse5relocESt6vectorIS2_SaIS2_EEE4baseEv
00104892 W _ZNK9__gnu_cxx17__normal_iteratorIPN7peparse5relocESt6vectorIS2_SaIS2_EEEdeEv
0010765e W _ZNK9__gnu_cxx17__normal_iteratorIPN7peparse6symbolESt6vectorIS2_SaIS2_EEE4baseEv
00104926 W _ZNK9__gnu_cxx17__normal_iteratorIPN7peparse6symbolESt6vectorIS2_SaIS2_EEEdeEv
00107616 W _ZNK9__gnu_cxx17__normal_iteratorIPN7peparse7sectionESt6vectorIS2_SaIS2_EEE4baseEv
0010476a W _ZNK9__gnu_cxx17__normal_iteratorIPN7peparse7sectionESt6vectorIS2_SaIS2_EEEdeEv
0010d5c8 W _ZNK9__gnu_cxx17__normal_iteratorIPN7peparse7sectionESt6vectorIS2_SaIS2_EEEmiEi
0010b8da W _ZNK9__gnu_cxx17__normal_iteratorIPN7peparse7sectionESt6vectorIS2_SaIS2_EEEplEi
001053b2 W _ZNK9__gnu_cxx17__normal_iteratorIPN7peparse8resourceESt6vectorIS2_SaIS2_EEE4baseEv
00103b2a W _ZNK9__gnu_cxx17__normal_iteratorIPN7peparse8resourceESt6vectorIS2_SaIS2_EEEdeEv
00107676 W _ZNK9__gnu_cxx17__normal_iteratorIPN7peparse9exportentESt6vectorIS2_SaIS2_EEE4baseEv
001049ba W _ZNK9__gnu_cxx17__normal_iteratorIPN7peparse9exportentESt6vectorIS2_SaIS2_EEEdeEv
0010762e W _ZNK9__gnu_cxx17__normal_iteratorIPN7peparse9importentESt6vectorIS2_SaIS2_EEE4baseEv
001047fe W _ZNK9__gnu_cxx17__normal_iteratorIPN7peparse9importentESt6vectorIS2_SaIS2_EEEdeEv
0011c9f8 W _ZNK9__gnu_cxx17__normal_iteratorIPNSt7__cxx1112basic_stringIcSt11char_traitsIcESaIcEEESt6vectorIS6_SaIS6_EEE4baseEv
0011d81e W _ZNK9__gnu_cxx17__normal_iteratorIPNSt7__cxx1112basic_stringIcSt11char_traitsIcESaIcEEESt6vectorIS6_SaIS6_EEEdeEv
0018f490 W _ZNK9__gnu_cxx24__concurrence_lock_error4whatEv
0018f4b0 W _ZNK9__gnu_cxx26__concurrence_unlock_error4whatEv
00165fa6 T _ZNK9NWildcard11CCensorNode11FindSubNodeERK7UString
00165f66 T _ZNK9NWildcard11CCensorNode13AreAllAllowedEv
001679c4 T _ZNK9NWildcard11CCensorNode13CheckPathVectERK13CObjectVectorI7UStringEbRb
001663fc T _ZNK9NWildcard11CCensorNode15CheckPathToRootEbR13CObjectVectorI7UStringEb
0016639e T _ZNK9NWildcard11CCensorNode16CheckPathCurrentEbRK13CObjectVectorI7UStringEb
0016631a T _ZNK9NWildcard11CCensorNode16NeedCheckSubDirsEv
00166358 T _ZNK9NWildcard11CCensorNode20AreThereIncludeItemsEv
00165d54 T _ZNK9NWildcard5CItem13AreAllAllowedEv
00165d9e T _ZNK9NWildcard5CItem9CheckPathERK13CObjectVectorI7UStringEb
00166516 T _ZNK9NWildcard7CCensor10FindPrefixERK7UString
00227bc0 W _ZNKSbIwSt11char_traitsIwESaIwEE11_M_disjunctEPKw
002286a0 W _ZNKSbIwSt11char_traitsIwESaIwEE12find_last_ofEPKwj
002285f0 W _ZNKSbIwSt11char_traitsIwESaIwEE12find_last_ofEPKwjj
00228670 W _ZNKSbIwSt11char_traitsIwESaIwEE12find_last_ofERKS2_j
002286e0 W _ZNKSbIwSt11char_traitsIwESaIwEE12find_last_ofEwj
00228580 W _ZNKSbIwSt11char_traitsIwESaIwEE13find_first_ofEPKwj
002284d0 W _ZNKSbIwSt11char_traitsIwESaIwEE13find_first_ofEPKwjj
00228550 W _ZNKSbIwSt11char_traitsIwESaIwEE13find_first_ofERKS2_j
002285c0 W _ZNKSbIwSt11char_traitsIwESaIwEE13find_first_ofEwj
002281c0 W _ZNKSbIwSt11char_traitsIwESaIwEE13get_allocatorEv
00227b60 W _ZNKSbIwSt11char_traitsIwESaIwEE15_M_check_lengthEjjPKc
002288e0 W _ZNKSbIwSt11char_traitsIwESaIwEE16find_last_not_ofEPKwj
00228830 W _ZNKSbIwSt11char_traitsIwESaIwEE16find_last_not_ofEPKwjj
002288b0 W _ZNKSbIwSt11char_traitsIwESaIwEE16find_last_not_ofERKS2_j
00228920 W _ZNKSbIwSt11char_traitsIwESaIwEE16find_last_not_ofEwj
002287b0 W _ZNKSbIwSt11char_traitsIwESaIwEE17find_first_not_ofEPKwj
00228710 W _ZNKSbIwSt11char_traitsIwESaIwEE17find_first_not_ofEPKwjj
00228780 W _ZNKSbIwSt11char_traitsIwESaIwEE17find_first_not_ofERKS2_j
002287f0 W _ZNKSbIwSt11char_traitsIwESaIwEE17find_first_not_ofEwj
00228020 W _ZNKSbIwSt11char_traitsIwESaIwEE2atEj
00227f10 W _ZNKSbIwSt11char_traitsIwESaIwEE3endEv
00228070 W _ZNKSbIwSt11char_traitsIwESaIwEE4backEv
00227f70 W _ZNKSbIwSt11char_traitsIwESaIwEE4cendEv
00228080 W _ZNKSbIwSt11char_traitsIwESaIwEE4copyEPwjj
002281b0 W _ZNKSbIwSt11char_traitsIwESaIwEE4dataEv
002282f0 W _ZNKSbIwSt11char_traitsIwESaIwEE4findEPKwj
002281d0 W _ZNKSbIwSt11char_traitsIwESaIwEE4findEPKwjj
002282c0 W _ZNKSbIwSt11char_traitsIwESaIwEE4findERKS2_j
00228330 W _ZNKSbIwSt11char_traitsIwESaIwEE4findEwj
00227f50 W _ZNKSbIwSt11char_traitsIwESaIwEE4rendEv
00228cc0 W _ZNKSbIwSt11char_traitsIwESaIwEE4_Rep12_M_is_leakedEv
00228cd0 W _ZNKSbIwSt11char_traitsIwESaIwEE4_Rep12_M_is_sharedEv
00227fc0 W _ZNKSbIwSt11char_traitsIwESaIwEE4sizeEv
00227f00 W _ZNKSbIwSt11char_traitsIwESaIwEE5beginEv
00227fb0 W _ZNKSbIwSt11char_traitsIwESaIwEE5crendEv
002281a0 W _ZNKSbIwSt11char_traitsIwESaIwEE5c_strEv
00228000 W _ZNKSbIwSt11char_traitsIwESaIwEE5emptyEv
00228060 W _ZNKSbIwSt11char_traitsIwESaIwEE5frontEv
00228440 W _ZNKSbIwSt11char_traitsIwESaIwEE5rfindEPKwj
00228390 W _ZNKSbIwSt11char_traitsIwESaIwEE5rfindEPKwjj
00228410 W _ZNKSbIwSt11char_traitsIwESaIwEE5rfindERKS2_j
00228480 W _ZNKSbIwSt11char_traitsIwESaIwEE5rfindEwj
00227f60 W _ZNKSbIwSt11char_traitsIwESaIwEE6cbeginEv
00227fd0 W _ZNKSbIwSt11char_traitsIwESaIwEE6lengthEv
00227ae0 W _ZNKSbIwSt11char_traitsIwESaIwEE6_M_repEv
00227f30 W _ZNKSbIwSt11char_traitsIwESaIwEE6rbeginEv
0022ad20 W _ZNKSbIwSt11char_traitsIwESaIwEE6substrEjj
00228b70 W _ZNKSbIwSt11char_traitsIwESaIwEE7compareEjjPKw
00228c10 W _ZNKSbIwSt11char_traitsIwESaIwEE7compareEjjPKwj
002289c0 W _ZNKSbIwSt11char_traitsIwESaIwEE7compareEjjRKS2_
00228a50 W _ZNKSbIwSt11char_traitsIwESaIwEE7compareEjjRKS2_jj
00228b00 W _ZNKSbIwSt11char_traitsIwESaIwEE7compareEPKw
00228970 W _ZNKSbIwSt11char_traitsIwESaIwEE7compareERKS2_
00227f90 W _ZNKSbIwSt11char_traitsIwESaIwEE7crbeginEv
00227ac0 W _ZNKSbIwSt11char_traitsIwESaIwEE7_M_dataEv
00227b00 W _ZNKSbIwSt11char_traitsIwESaIwEE7_M_iendEv
00227ff0 W _ZNKSbIwSt11char_traitsIwESaIwEE8capacityEv
00227fe0 W _ZNKSbIwSt11char_traitsIwESaIwEE8max_sizeEv
00227b20 W _ZNKSbIwSt11char_traitsIwESaIwEE8_M_checkEjPKc
00227ba0 W _ZNKSbIwSt11char_traitsIwESaIwEE8_M_limitEjj
00227af0 W _ZNKSbIwSt11char_traitsIwESaIwEE9_M_ibeginEv
00228010 W _ZNKSbIwSt11char_traitsIwESaIwEEixEj
002049b0 W _ZNKSi6gcountEv
00206810 W _ZNKSi6sentrycvbEv
001e8520 W _ZNKSo6sentrycvbEv
00210530 W _ZNKSs11_M_disjunctEPKc
00211030 W _ZNKSs12find_last_ofEcj
00210ff0 W _ZNKSs12find_last_ofEPKcj
00210f40 W _ZNKSs12find_last_ofEPKcjj
00210fc0 W _ZNKSs12find_last_ofERKSsj
00210f10 W _ZNKSs13find_first_ofEcj
00210ed0 W _ZNKSs13find_first_ofEPKcj
00210e20 W _ZNKSs13find_first_ofEPKcjj
00210ea0 W _ZNKSs13find_first_ofERKSsj
00210b30 W _ZNKSs13get_allocatorEv
002104d0 W _ZNKSs15_M_check_lengthEjjPKc
00211270 W _ZNKSs16find_last_not_ofEcj
00211230 W _ZNKSs16find_last_not_ofEPKcj
00211180 W _ZNKSs16find_last_not_ofEPKcjj
00211200 W _ZNKSs16find_last_not_ofERKSsj
00211140 W _ZNKSs17find_first_not_ofEcj
00211100 W _ZNKSs17find_first_not_ofEPKcj
00211060 W _ZNKSs17find_first_not_ofEPKcjj
002110d0 W _ZNKSs17find_first_not_ofERKSsj
00210990 W _ZNKSs2atEj
00210880 W _ZNKSs3endEv
002109e0 W _ZNKSs4backEv
002108e0 W _ZNKSs4cendEv
002109f0 W _ZNKSs4copyEPcjj
00210b20 W _ZNKSs4dataEv
00210c80 W _ZNKSs4findEcj
00210c40 W _ZNKSs4findEPKcj
00210b40 W _ZNKSs4findEPKcjj
00210c10 W _ZNKSs4findERKSsj
002108c0 W _ZNKSs4rendEv
00211610 W _ZNKSs4_Rep12_M_is_leakedEv
00211620 W _ZNKSs4_Rep12_M_is_sharedEv
00210930 W _ZNKSs4sizeEv
00210870 W _ZNKSs5beginEv
00210920 W _ZNKSs5crendEv
00210b10 W _ZNKSs5c_strEv
00210970 W _ZNKSs5emptyEv
002109d0 W _ZNKSs5frontEv
00210dd0 W _ZNKSs5rfindEcj
00210d90 W _ZNKSs5rfindEPKcj
00210ce0 W _ZNKSs5rfindEPKcjj
00210d60 W _ZNKSs5rfindERKSsj
002108d0 W _ZNKSs6cbeginEv
00210940 W _ZNKSs6lengthEv
00210450 W _ZNKSs6_M_repEv
002108a0 W _ZNKSs6rbeginEv
00213690 W _ZNKSs6substrEjj
002114c0 W _ZNKSs7compareEjjPKc
00211560 W _ZNKSs7compareEjjPKcj
00211310 W _ZNKSs7compareEjjRKSs
002113a0 W _ZNKSs7compareEjjRKSsjj
00211450 W _ZNKSs7compareEPKc
002112c0 W _ZNKSs7compareERKSs
00210900 W _ZNKSs7crbeginEv
00210430 W _ZNKSs7_M_dataEv
00210470 W _ZNKSs7_M_iendEv
00210960 W _ZNKSs8capacityEv
00210950 W _ZNKSs8max_sizeEv
00210490 W _ZNKSs8_M_checkEjPKc
00210510 W _ZNKSs8_M_limitEjj
00210460 W _ZNKSs9_M_ibeginEv
00210980 W _ZNKSsixEj
002148b0 T _ZNKSt10bad_typeid4whatEv
002223f0 T _ZNKSt10error_code23default_error_conditionEv
00196f80 W _ZNKSt10moneypunctIcLb0EE10neg_formatEv
00196f10 W _ZNKSt10moneypunctIcLb0EE10pos_formatEv
00196d50 W _ZNKSt10moneypunctIcLb0EE11curr_symbolEv
00195df0 W _ZNKSt10moneypunctIcLb0EE11do_groupingEv
00196ed0 W _ZNKSt10moneypunctIcLb0EE11frac_digitsEv
00196c50 W _ZNKSt10moneypunctIcLb0EE13decimal_pointEv
001955a0 W _ZNKSt10moneypunctIcLb0EE13do_neg_formatEv
00195580 W _ZNKSt10moneypunctIcLb0EE13do_pos_formatEv
00196e50 W _ZNKSt10moneypunctIcLb0EE13negative_signEv
00196dd0 W _ZNKSt10moneypunctIcLb0EE13positive_signEv
00196c90 W _ZNKSt10moneypunctIcLb0EE13thousands_sepEv
00195e50 W _ZNKSt10moneypunctIcLb0EE14do_curr_symbolEv
00195570 W _ZNKSt10moneypunctIcLb0EE14do_frac_digitsEv
00195550 W _ZNKSt10moneypunctIcLb0EE16do_decimal_pointEv
00195f10 W _ZNKSt10moneypunctIcLb0EE16do_negative_signEv
00195eb0 W _ZNKSt10moneypunctIcLb0EE16do_positive_signEv
00195560 W _ZNKSt10moneypunctIcLb0EE16do_thousands_sepEv
00196cd0 W _ZNKSt10moneypunctIcLb0EE8groupingEv
00197440 W _ZNKSt10moneypunctIcLb1EE10neg_formatEv
001973d0 W _ZNKSt10moneypunctIcLb1EE10pos_formatEv
00197210 W _ZNKSt10moneypunctIcLb1EE11curr_symbolEv
00195f70 W _ZNKSt10moneypunctIcLb1EE11do_groupingEv
00197390 W _ZNKSt10moneypunctIcLb1EE11frac_digitsEv
00197110 W _ZNKSt10moneypunctIcLb1EE13decimal_pointEv
00195610 W _ZNKSt10moneypunctIcLb1EE13do_neg_formatEv
001955f0 W _ZNKSt10moneypunctIcLb1EE13do_pos_formatEv
00197310 W _ZNKSt10moneypunctIcLb1EE13negative_signEv
00197290 W _ZNKSt10moneypunctIcLb1EE13positive_signEv
00197150 W _ZNKSt10moneypunctIcLb1EE13thousands_sepEv
00195fd0 W _ZNKSt10moneypunctIcLb1EE14do_curr_symbolEv
001955e0 W _ZNKSt10moneypunctIcLb1EE14do_frac_digitsEv
001955c0 W _ZNKSt10moneypunctIcLb1EE16do_decimal_pointEv
00196090 W _ZNKSt10moneypunctIcLb1EE16do_negative_signEv
00196030 W _ZNKSt10moneypunctIcLb1EE16do_positive_signEv
001955d0 W _ZNKSt10moneypunctIcLb1EE16do_thousands_sepEv
00197190 W _ZNKSt10moneypunctIcLb1EE8groupingEv
001f4040 W _ZNKSt10moneypunctIwLb0EE10neg_formatEv
001f3fd0 W _ZNKSt10moneypunctIwLb0EE10pos_formatEv
001f3e10 W _ZNKSt10moneypunctIwLb0EE11curr_symbolEv
001f2f00 W _ZNKSt10moneypunctIwLb0EE11do_groupingEv
001f3f90 W _ZNKSt10moneypunctIwLb0EE11frac_digitsEv
001f3d10 W _ZNKSt10moneypunctIwLb0EE13decimal_pointEv
001f26e0 W _ZNKSt10moneypunctIwLb0EE13do_neg_formatEv
001f26c0 W _ZNKSt10moneypunctIwLb0EE13do_pos_formatEv
001f3f10 W _ZNKSt10moneypunctIwLb0EE13negative_signEv
001f3e90 W _ZNKSt10moneypunctIwLb0EE13positive_signEv
001f3d50 W _ZNKSt10moneypunctIwLb0EE13thousands_sepEv
001f3020 W _ZNKSt10moneypunctIwLb0EE14do_curr_symbolEv
001f26b0 W _ZNKSt10moneypunctIwLb0EE14do_frac_digitsEv
001f2690 W _ZNKSt10moneypunctIwLb0EE16do_decimal_pointEv
001f30e0 W _ZNKSt10moneypunctIwLb0EE16do_negative_signEv
001f3080 W _ZNKSt10moneypunctIwLb0EE16do_positive_signEv
001f26a0 W _ZNKSt10moneypunctIwLb0EE16do_thousands_sepEv
001f3d90 W _ZNKSt10moneypunctIwLb0EE8groupingEv
001f4500 W _ZNKSt10moneypunctIwLb1EE10neg_formatEv
001f4490 W _ZNKSt10moneypunctIwLb1EE10pos_formatEv
001f42d0 W _ZNKSt10moneypunctIwLb1EE11curr_symbolEv
001f2f60 W _ZNKSt10moneypunctIwLb1EE11do_groupingEv
001f4450 W _ZNKSt10moneypunctIwLb1EE11frac_digitsEv
001f41d0 W _ZNKSt10moneypunctIwLb1EE13decimal_pointEv
001f2750 W _ZNKSt10moneypunctIwLb1EE13do_neg_formatEv
001f2730 W _ZNKSt10moneypunctIwLb1EE13do_pos_formatEv
001f43d0 W _ZNKSt10moneypunctIwLb1EE13negative_signEv
001f4350 W _ZNKSt10moneypunctIwLb1EE13positive_signEv
001f4210 W _ZNKSt10moneypunctIwLb1EE13thousands_sepEv
001f3140 W _ZNKSt10moneypunctIwLb1EE14do_curr_symbolEv
001f2720 W _ZNKSt10moneypunctIwLb1EE14do_frac_digitsEv
001f2700 W _ZNKSt10moneypunctIwLb1EE16do_decimal_pointEv
001f3200 W _ZNKSt10moneypunctIwLb1EE16do_negative_signEv
001f31a0 W _ZNKSt10moneypunctIwLb1EE16do_positive_signEv
001f2710 W _ZNKSt10moneypunctIwLb1EE16do_thousands_sepEv
001f4250 W _ZNKSt10moneypunctIwLb1EE8groupingEv
0010b39e W _ZNKSt10_Select1stISt4pairIKtKNSt7__cxx1112basic_stringIcSt11char_traitsIcESaIcEEEEEclERKS9_
0010ae52 W _ZNKSt10_Select1stISt4pairIKtNSt7__cxx1112basic_stringIcSt11char_traitsIcESaIcEEEEEclERKS8_
0021e700 T _ZNKSt11logic_error4whatEv
00198670 W _ZNKSt11__timepunctIcE15_M_am_pm_formatEPKc
00198610 W _ZNKSt11__timepunctIcE15_M_date_formatsEPPKc
00198630 W _ZNKSt11__timepunctIcE15_M_time_formatsEPPKc
001986f0 W _ZNKSt11__timepunctIcE19_M_days_abbreviatedEPPKc
00198650 W _ZNKSt11__timepunctIcE20_M_date_time_formatsEPPKc
001987d0 W _ZNKSt11__timepunctIcE21_M_months_abbreviatedEPPKc
00219790 T _ZNKSt11__timepunctIcE6_M_putEPcjPKcPK2tm
001986a0 W _ZNKSt11__timepunctIcE7_M_daysEPPKc
00198680 W _ZNKSt11__timepunctIcE8_M_am_pmEPPKc
00198740 W _ZNKSt11__timepunctIcE9_M_monthsEPPKc
001f5720 W _ZNKSt11__timepunctIwE15_M_am_pm_formatEPKw
001f56c0 W _ZNKSt11__timepunctIwE15_M_date_formatsEPPKw
001f56e0 W _ZNKSt11__timepunctIwE15_M_time_formatsEPPKw
001f57a0 W _ZNKSt11__timepunctIwE19_M_days_abbreviatedEPPKw
001f5700 W _ZNKSt11__timepunctIwE20_M_date_time_formatsEPPKw
001f5880 W _ZNKSt11__timepunctIwE21_M_months_abbreviatedEPPKw
00219fd0 T _ZNKSt11__timepunctIwE6_M_putEPwjPKwPK2tm
001f5750 W _ZNKSt11__timepunctIwE7_M_daysEPPKw
001f5730 W _ZNKSt11__timepunctIwE8_M_am_pmEPPKw
001f57f0 W _ZNKSt11__timepunctIwE9_M_monthsEPPKw
0019ce80 W _ZNKSt11__use_cacheISt16__numpunct_cacheIcEEclERKSt6locale
001b3e20 W _ZNKSt11__use_cacheISt16__numpunct_cacheIwEEclERKSt6locale
0019c580 W _ZNKSt11__use_cacheISt18__moneypunct_cacheIcLb0EEEclERKSt6locale
0019beb0 W _ZNKSt11__use_cacheISt18__moneypunct_cacheIcLb1EEEclERKSt6locale
001f9380 W _ZNKSt11__use_cacheISt18__moneypunct_cacheIwLb0EEEclERKSt6locale
001f8d20 W _ZNKSt11__use_cacheISt18__moneypunct_cacheIwLb1EEEclERKSt6locale
0021ca80 T _ZNKSt12__basic_fileIcE7is_openEv
00227aa0 T _ZNKSt12future_error4whatEv
00121368 W _ZNKSt12__shared_ptrI14CUnpackManagerLN9__gnu_cxx12_Lock_policyE2EEcvbEv
001232c0 W _ZNKSt12__shared_ptrI14CUnpackManagerLN9__gnu_cxx12_Lock_policyE2EEptEv
0011a260 W _ZNKSt12_Vector_baseI16NESTED_FILE_INFOSaIS0_EE19_M_get_Tp_allocatorEv
0011d8c8 W _ZNKSt12_Vector_baseI8Cab_InfoSaIS0_EE19_M_get_Tp_allocatorEv
0010f3a6 W _ZNKSt12_Vector_baseIcSaIcEE19_M_get_Tp_allocatorEv
0010d6d0 W _ZNKSt12_Vector_baseIN7peparse10rich_entryESaIS1_EE19_M_get_Tp_allocatorEv
0010da3e W _ZNKSt12_Vector_baseIN7peparse13aux_symbol_f1ESaIS1_EE19_M_get_Tp_allocatorEv
0010db98 W _ZNKSt12_Vector_baseIN7peparse13aux_symbol_f2ESaIS1_EE19_M_get_Tp_allocatorEv
0010dcf2 W _ZNKSt12_Vector_baseIN7peparse13aux_symbol_f3ESaIS1_EE19_M_get_Tp_allocatorEv
0010de4c W _ZNKSt12_Vector_baseIN7peparse13aux_symbol_f4ESaIS1_EE19_M_get_Tp_allocatorEv
0010dfa6 W _ZNKSt12_Vector_baseIN7peparse13aux_symbol_f5ESaIS1_EE19_M_get_Tp_allocatorEv
0010d812 W _ZNKSt12_Vector_baseIN7peparse5relocESaIS1_EE19_M_get_Tp_allocatorEv
0010e0ce W _ZNKSt12_Vector_baseIN7peparse6symbolESaIS1_EE19_M_get_Tp_allocatorEv
0010758c W _ZNKSt12_Vector_baseIN7peparse7sectionESaIS1_EE19_M_get_Tp_allocatorEv
0010d4ae W _ZNKSt12_Vector_baseIN7peparse8resourceESaIS1_EE19_M_get_Tp_allocatorEv
0010d76c W _ZNKSt12_Vector_baseIN7peparse9exportentESaIS1_EE19_M_get_Tp_allocatorEv
0010d8b4 W _ZNKSt12_Vector_baseIN7peparse9importentESaIS1_EE19_M_get_Tp_allocatorEv
0011d83e W _ZNKSt12_Vector_baseINSt7__cxx1112basic_stringIcSt11char_traitsIcESaIcEEESaIS5_EE19_M_get_Tp_allocatorEv
0018ffd0 T _ZNKSt13bad_exception4whatEv
001de9f0 W _ZNKSt13basic_filebufIcSt11char_traitsIcEE7is_openEv
001e06b0 W _ZNKSt13basic_filebufIwSt11char_traitsIwEE7is_openEv
001e00e0 W _ZNKSt13basic_fstreamIcSt11char_traitsIcEE5rdbufEv
001e0120 W _ZNKSt13basic_fstreamIcSt11char_traitsIcEE7is_openEv
001e1db0 W _ZNKSt13basic_fstreamIwSt11char_traitsIwEE5rdbufEv
001e1df0 W _ZNKSt13basic_fstreamIwSt11char_traitsIwEE7is_openEv
00207e40 W _ZNKSt13basic_istreamIwSt11char_traitsIwEE6gcountEv
00209bd0 W _ZNKSt13basic_istreamIwSt11char_traitsIwEE6sentrycvbEv
001eb0e0 W _ZNKSt13basic_ostreamIwSt11char_traitsIwEE6sentrycvbEv
0011a42c W _ZNKSt13move_iteratorIP16NESTED_FILE_INFOE4baseEv
0011a3ae W _ZNKSt13move_iteratorIP16NESTED_FILE_INFOEdeEv
0011dcb0 W _ZNKSt13move_iteratorIP8Cab_InfoE4baseEv
0011db4a W _ZNKSt13move_iteratorIP8Cab_InfoEdeEv
00111dbe W _ZNKSt13move_iteratorIPcE4baseEv
00111362 W _ZNKSt13move_iteratorIPN7peparse10rich_entryEE4baseEv
0011181c W _ZNKSt13move_iteratorIPN7peparse13aux_symbol_f1EE4baseEv
00111872 W _ZNKSt13move_iteratorIPN7peparse13aux_symbol_f2EE4baseEv
001118ca W _ZNKSt13move_iteratorIPN7peparse13aux_symbol_f3EE4baseEv
0011124a W _ZNKSt13move_iteratorIPN7peparse13aux_symbol_f4EE4baseEv
0010ffba W _ZNKSt13move_iteratorIPN7peparse13aux_symbol_f4EEdeEv
00111922 W _ZNKSt13move_iteratorIPN7peparse13aux_symbol_f5EE4baseEv
001113ba W _ZNKSt13move_iteratorIPN7peparse5relocEE4baseEv
00110fc8 W _ZNKSt13move_iteratorIPN7peparse6symbolEE4baseEv
0010fd9c W _ZNKSt13move_iteratorIPN7peparse6symbolEEdeEv
00110ce0 W _ZNKSt13move_iteratorIPN7peparse7sectionEE4baseEv
0010f8d4 W _ZNKSt13move_iteratorIPN7peparse7sectionEEdeEv
00110cd6 W _ZNKSt13move_iteratorIPN7peparse8resourceEE4baseEv
0010f7ae W _ZNKSt13move_iteratorIPN7peparse8resourceEEdeEv
00110d38 W _ZNKSt13move_iteratorIPN7peparse9exportentEE4baseEv
0010fa94 W _ZNKSt13move_iteratorIPN7peparse9exportentEEdeEv
00110d90 W _ZNKSt13move_iteratorIPN7peparse9importentEE4baseEv
0010fb9c W _ZNKSt13move_iteratorIPN7peparse9importentEEdeEv
0011dca6 W _ZNKSt13move_iteratorIPNSt7__cxx1112basic_stringIcSt11char_traitsIcESaIcEEEE4baseEv
0011dacc W _ZNKSt13move_iteratorIPNSt7__cxx1112basic_stringIcSt11char_traitsIcESaIcEEEEdeEv
00105244 W _ZNKSt13_Rb_tree_nodeISt4pairIKtKNSt7__cxx1112basic_stringIcSt11char_traitsIcESaIcEEEEE9_M_valptrEv
0010510e W _ZNKSt13_Rb_tree_nodeISt4pairIKtNSt7__cxx1112basic_stringIcSt11char_traitsIcESaIcEEEEE9_M_valptrEv
0021e700 T _ZNKSt13runtime_error4whatEv
001dfa50 W _ZNKSt14basic_ifstreamIcSt11char_traitsIcEE5rdbufEv
001dfa90 W _ZNKSt14basic_ifstreamIcSt11char_traitsIcEE7is_openEv
001e1730 W _ZNKSt14basic_ifstreamIwSt11char_traitsIwEE5rdbufEv
001e1770 W _ZNKSt14basic_ifstreamIwSt11char_traitsIwEE7is_openEv
001dfd50 W _ZNKSt14basic_ofstreamIcSt11char_traitsIcEE5rdbufEv
001dfd90 W _ZNKSt14basic_ofstreamIcSt11char_traitsIcEE7is_openEv
001e1a20 W _ZNKSt14basic_ofstreamIwSt11char_traitsIwEE5rdbufEv
001e1a60 W _ZNKSt14basic_ofstreamIwSt11char_traitsIwEE7is_openEv
001ed800 W _ZNKSt15basic_streambufIcSt11char_traitsIcEE4gptrEv
001ed860 W _ZNKSt15basic_streambufIcSt11char_traitsIcEE4pptrEv
001ed7f0 W _ZNKSt15basic_streambufIcSt11char_traitsIcEE5ebackEv
001ed810 W _ZNKSt15basic_streambufIcSt11char_traitsIcEE5egptrEv
001ed870 W _ZNKSt15basic_streambufIcSt11char_traitsIcEE5epptrEv
001ed850 W _ZNKSt15basic_streambufIcSt11char_traitsIcEE5pbaseEv
001ed290 W _ZNKSt15basic_streambufIcSt11char_traitsIcEE6getlocEv
001ee0e0 W _ZNKSt15basic_streambufIwSt11char_traitsIwEE4gptrEv
001ee140 W _ZNKSt15basic_streambufIwSt11char_traitsIwEE4pptrEv
001ee0d0 W _ZNKSt15basic_streambufIwSt11char_traitsIwEE5ebackEv
001ee0f0 W _ZNKSt15basic_streambufIwSt11char_traitsIwEE5egptrEv
001ee150 W _ZNKSt15basic_streambufIwSt11char_traitsIwEE5epptrEv
001ee130 W _ZNKSt15basic_streambufIwSt11char_traitsIwEE5pbaseEv
001edb90 W _ZNKSt15basic_streambufIwSt11char_traitsIwEE6getlocEv
00235900 T _ZNKSt15__exception_ptr13exception_ptr20__cxa_exception_typeEv
00235820 T _ZNKSt15__exception_ptr13exception_ptr6_M_getEv
002358c0 T _ZNKSt15__exception_ptr13exception_ptrcvMS0_FvvEEv
002358b0 T _ZNKSt15__exception_ptr13exception_ptrntEv
001034fa W _ZNKSt16initializer_listISt4pairIKtKNSt7__cxx1112basic_stringIcSt11char_traitsIcESaIcEEEEE3endEv
001034ee W _ZNKSt16initializer_listISt4pairIKtKNSt7__cxx1112basic_stringIcSt11char_traitsIcESaIcEEEEE4sizeEv
001034e4 W _ZNKSt16initializer_listISt4pairIKtKNSt7__cxx1112basic_stringIcSt11char_traitsIcESaIcEEEEE5beginEv
0010334c W _ZNKSt16initializer_listISt4pairIKtNSt7__cxx1112basic_stringIcSt11char_traitsIcESaIcEEEEE3endEv
00103340 W _ZNKSt16initializer_listISt4pairIKtNSt7__cxx1112basic_stringIcSt11char_traitsIcESaIcEEEEE4sizeEv
00103336 W _ZNKSt16initializer_listISt4pairIKtNSt7__cxx1112basic_stringIcSt11char_traitsIcESaIcEEEEE5beginEv
001f2610 T _ZNKSt17bad_function_call4whatEv
0010e778 W _ZNKSt17_Rb_tree_iteratorISt4pairIKtKNSt7__cxx1112basic_stringIcSt11char_traitsIcESaIcEEEEEeqERKSA_
0010e6c0 W _ZNKSt17_Rb_tree_iteratorISt4pairIKtNSt7__cxx1112basic_stringIcSt11char_traitsIcESaIcEEEEEeqERKS9_
00223f50 T _ZNKSt19__codecvt_utf8_baseIDiE10do_unshiftER11__mbstate_tPcS3_RS3_
00223f60 T _ZNKSt19__codecvt_utf8_baseIDiE11do_encodingEv
00223f40 T _ZNKSt19__codecvt_utf8_baseIDiE13do_max_lengthEv
00223f70 T _ZNKSt19__codecvt_utf8_baseIDiE16do_always_noconvEv
00226020 T _ZNKSt19__codecvt_utf8_baseIDiE5do_inER11__mbstate_tPKcS4_RS4_PDiS6_RS6_
00224ed0 T _ZNKSt19__codecvt_utf8_baseIDiE6do_outER11__mbstate_tPKDiS4_RS4_PcS6_RS6_
00225ca0 T _ZNKSt19__codecvt_utf8_baseIDiE9do_lengthER11__mbstate_tPKcS4_j
00223f50 T _ZNKSt19__codecvt_utf8_baseIDsE10do_unshiftER11__mbstate_tPcS3_RS3_
00223f60 T _ZNKSt19__codecvt_utf8_baseIDsE11do_encodingEv
00223f80 T _ZNKSt19__codecvt_utf8_baseIDsE13do_max_lengthEv
00223f70 T _ZNKSt19__codecvt_utf8_baseIDsE16do_always_noconvEv
00225620 T _ZNKSt19__codecvt_utf8_baseIDsE5do_inER11__mbstate_tPKcS4_RS4_PDsS6_RS6_
00225180 T _ZNKSt19__codecvt_utf8_baseIDsE6do_outER11__mbstate_tPKDsS4_RS4_PcS6_RS6_
00225750 T _ZNKSt19__codecvt_utf8_baseIDsE9do_lengthER11__mbstate_tPKcS4_j
00223f50 T _ZNKSt19__codecvt_utf8_baseIwE10do_unshiftER11__mbstate_tPcS3_RS3_
00223f60 T _ZNKSt19__codecvt_utf8_baseIwE11do_encodingEv
00223f40 T _ZNKSt19__codecvt_utf8_baseIwE13do_max_lengthEv
00223f70 T _ZNKSt19__codecvt_utf8_baseIwE16do_always_noconvEv
002260a0 T _ZNKSt19__codecvt_utf8_baseIwE5do_inER11__mbstate_tPKcS4_RS4_PwS6_RS6_
00224f50 T _ZNKSt19__codecvt_utf8_baseIwE6do_outER11__mbstate_tPKwS4_RS4_PcS6_RS6_
00225cd0 T _ZNKSt19__codecvt_utf8_baseIwE9do_lengthER11__mbstate_tPKcS4_j
0019e7b0 W _ZNKSt19istreambuf_iteratorIcSt11char_traitsIcEE5equalERKS2_
0019e8a0 W _ZNKSt19istreambuf_iteratorIcSt11char_traitsIcEE6_M_getEv
001b3f30 W _ZNKSt19istreambuf_iteratorIwSt11char_traitsIwEE5equalERKS2_
001b4010 W _ZNKSt19istreambuf_iteratorIwSt11char_traitsIwEE6_M_getEv
00214830 T _ZNKSt20bad_array_new_length4whatEv
00223f50 T _ZNKSt20__codecvt_utf16_baseIDiE10do_unshiftER11__mbstate_tPcS3_RS3_
00223f60 T _ZNKSt20__codecvt_utf16_baseIDiE11do_encodingEv
00223f40 T _ZNKSt20__codecvt_utf16_baseIDiE13do_max_lengthEv
00223f70 T _ZNKSt20__codecvt_utf16_baseIDiE16do_always_noconvEv
00224690 T _ZNKSt20__codecvt_utf16_baseIDiE5do_inER11__mbstate_tPKcS4_RS4_PDiS6_RS6_
00225340 T _ZNKSt20__codecvt_utf16_baseIDiE6do_outER11__mbstate_tPKDiS4_RS4_PcS6_RS6_
00224830 T _ZNKSt20__codecvt_utf16_baseIDiE9do_lengthER11__mbstate_tPKcS4_j
00223f50 T _ZNKSt20__codecvt_utf16_baseIDsE10do_unshiftER11__mbstate_tPcS3_RS3_
00223f30 T _ZNKSt20__codecvt_utf16_baseIDsE11do_encodingEv
00223f80 T _ZNKSt20__codecvt_utf16_baseIDsE13do_max_lengthEv
00223f70 T _ZNKSt20__codecvt_utf16_baseIDsE16do_always_noconvEv
00224890 T _ZNKSt20__codecvt_utf16_baseIDsE5do_inER11__mbstate_tPKcS4_RS4_PDsS6_RS6_
002242f0 T _ZNKSt20__codecvt_utf16_baseIDsE6do_outER11__mbstate_tPKDsS4_RS4_PcS6_RS6_
002249a0 T _ZNKSt20__codecvt_utf16_baseIDsE9do_lengthER11__mbstate_tPKcS4_j
00223f50 T _ZNKSt20__codecvt_utf16_baseIwE10do_unshiftER11__mbstate_tPcS3_RS3_
00223f60 T _ZNKSt20__codecvt_utf16_baseIwE11do_encodingEv
00223f40 T _ZNKSt20__codecvt_utf16_baseIwE13do_max_lengthEv
00223f70 T _ZNKSt20__codecvt_utf16_baseIwE16do_always_noconvEv
00226120 T _ZNKSt20__codecvt_utf16_baseIwE5do_inER11__mbstate_tPKcS4_RS4_PwS6_RS6_
00224fd0 T _ZNKSt20__codecvt_utf16_baseIwE6do_outER11__mbstate_tPKwS4_RS4_PcS6_RS6_
00224860 T _ZNKSt20__codecvt_utf16_baseIwE9do_lengthER11__mbstate_tPKcS4_j
0010d0b8 W _ZNKSt23_Rb_tree_const_iteratorISt4pairIKtKNSt7__cxx1112basic_stringIcSt11char_traitsIcESaIcEEEEE13_M_const_castEv
00107dc0 W _ZNKSt23_Rb_tree_const_iteratorISt4pairIKtKNSt7__cxx1112basic_stringIcSt11char_traitsIcESaIcEEEEEeqERKSA_
001037c4 W _ZNKSt23_Rb_tree_const_iteratorISt4pairIKtKNSt7__cxx1112basic_stringIcSt11char_traitsIcESaIcEEEEEneERKSA_
001037d8 W _ZNKSt23_Rb_tree_const_iteratorISt4pairIKtKNSt7__cxx1112basic_stringIcSt11char_traitsIcESaIcEEEEEptEv
0010cdd2 W _ZNKSt23_Rb_tree_const_iteratorISt4pairIKtNSt7__cxx1112basic_stringIcSt11char_traitsIcESaIcEEEEE13_M_const_castEv
00107c96 W _ZNKSt23_Rb_tree_const_iteratorISt4pairIKtNSt7__cxx1112basic_stringIcSt11char_traitsIcESaIcEEEEEeqERKS9_
001036fc W _ZNKSt23_Rb_tree_const_iteratorISt4pairIKtNSt7__cxx1112basic_stringIcSt11char_traitsIcESaIcEEEEEneERKS9_
00103710 W _ZNKSt23_Rb_tree_const_iteratorISt4pairIKtNSt7__cxx1112basic_stringIcSt11char_traitsIcESaIcEEEEEptEv
00223f50 T _ZNKSt25__codecvt_utf8_utf16_baseIDiE10do_unshiftER11__mbstate_tPcS3_RS3_
00223f60 T _ZNKSt25__codecvt_utf8_utf16_baseIDiE11do_encodingEv
00223f80 T _ZNKSt25__codecvt_utf8_utf16_baseIDiE13do_max_lengthEv
00223f70 T _ZNKSt25__codecvt_utf8_utf16_baseIDiE16do_always_noconvEv
002259f0 T _ZNKSt25__codecvt_utf8_utf16_baseIDiE5do_inER11__mbstate_tPKcS4_RS4_PDiS6_RS6_
00224b90 T _ZNKSt25__codecvt_utf8_utf16_baseIDiE6do_outER11__mbstate_tPKDiS4_RS4_PcS6_RS6_
00225e50 T _ZNKSt25__codecvt_utf8_utf16_baseIDiE9do_lengthER11__mbstate_tPKcS4_j
00223f50 T _ZNKSt25__codecvt_utf8_utf16_baseIDsE10do_unshiftER11__mbstate_tPcS3_RS3_
00223f60 T _ZNKSt25__codecvt_utf8_utf16_baseIDsE11do_encodingEv
00223f80 T _ZNKSt25__codecvt_utf8_utf16_baseIDsE13do_max_lengthEv
00223f70 T _ZNKSt25__codecvt_utf8_utf16_baseIDsE16do_always_noconvEv
00225590 T _ZNKSt25__codecvt_utf8_utf16_baseIDsE5do_inER11__mbstate_tPKcS4_RS4_PDsS6_RS6_
002256b0 T _ZNKSt25__codecvt_utf8_utf16_baseIDsE6do_outER11__mbstate_tPKDsS4_RS4_PcS6_RS6_
00225e20 T _ZNKSt25__codecvt_utf8_utf16_baseIDsE9do_lengthER11__mbstate_tPKcS4_j
00223f50 T _ZNKSt25__codecvt_utf8_utf16_baseIwE10do_unshiftER11__mbstate_tPcS3_RS3_
00223f60 T _ZNKSt25__codecvt_utf8_utf16_baseIwE11do_encodingEv
00223f80 T _ZNKSt25__codecvt_utf8_utf16_baseIwE13do_max_lengthEv
00223f70 T _ZNKSt25__codecvt_utf8_utf16_baseIwE16do_always_noconvEv
00225820 T _ZNKSt25__codecvt_utf8_utf16_baseIwE5do_inER11__mbstate_tPKcS4_RS4_PwS6_RS6_
00224cd0 T _ZNKSt25__codecvt_utf8_utf16_baseIwE6do_outER11__mbstate_tPKwS4_RS4_PcS6_RS6_
00225e80 T _ZNKSt25__codecvt_utf8_utf16_baseIwE9do_lengthER11__mbstate_tPKcS4_j
0010377c W _ZNKSt3mapItKNSt7__cxx1112basic_stringIcSt11char_traitsIcESaIcEEESt4lessItESaISt4pairIKtS6_EEE3endEv
0010372a W _ZNKSt3mapItKNSt7__cxx1112basic_stringIcSt11char_traitsIcESaIcEEESt4lessItESaISt4pairIKtS6_EEE4findERSA_
001036b4 W _ZNKSt3mapItNSt7__cxx1112basic_stringIcSt11char_traitsIcESaIcEEESt4lessItESaISt4pairIKtS5_EEE3endEv
00103662 W _ZNKSt3mapItNSt7__cxx1112basic_stringIcSt11char_traitsIcESaIcEEESt4lessItESaISt4pairIKtS5_EEE4findERS9_
00222220 T _ZNKSt3_V214error_category10equivalentEiRKSt15error_condition
00221fc0 T _ZNKSt3_V214error_category10equivalentERKSt10error_codei
00222050 T _ZNKSt3_V214error_category10_M_messageB5cxx11Ei
00222da0 T _ZNKSt3_V214error_category10_M_messageEi
00221fa0 T _ZNKSt3_V214error_category23default_error_conditionEi
00107cf2 W _ZNKSt4lessItEclERKtS2_
00222830 T _ZNKSt5ctypeIcE10do_tolowerEc
00222840 T _ZNKSt5ctypeIcE10do_tolowerEPcPKc
002227f0 T _ZNKSt5ctypeIcE10do_toupperEc
00222800 T _ZNKSt5ctypeIcE10do_toupperEPcPKc
001ad580 T _ZNKSt5ctypeIcE13_M_widen_initEv
001ad430 T _ZNKSt5ctypeIcE14_M_narrow_initEv
00196960 W _ZNKSt5ctypeIcE5widenEPKcS2_Pc
00192fd0 W _ZNKSt5ctypeIcE8do_widenEc
00195dc0 W _ZNKSt5ctypeIcE8do_widenEPKcS2_Pc
00193fc0 W _ZNKSt5ctypeIcE9do_narrowEcc
001ac910 W _ZNKSt5ctypeIcE9do_narrowEPKcS2_cPc
001acee0 T _ZNKSt5ctypeIwE10do_scan_isEtPKwS2_
001acce0 T _ZNKSt5ctypeIwE10do_tolowerEPwPKw
001accb0 T _ZNKSt5ctypeIwE10do_tolowerEw
001acc60 T _ZNKSt5ctypeIwE10do_toupperEPwPKw
001acc30 T _ZNKSt5ctypeIwE10do_toupperEw
001acf40 T _ZNKSt5ctypeIwE11do_scan_notEtPKwS2_
001aca10 T _ZNKSt5ctypeIwE19_M_convert_to_wmaskEt
001acdf0 T _ZNKSt5ctypeIwE5do_isEPKwS2_Pt
001acd30 T _ZNKSt5ctypeIwE5do_isEtw
001acfa0 T _ZNKSt5ctypeIwE8do_widenEc
001acfc0 T _ZNKSt5ctypeIwE8do_widenEPKcS2_Pw
001ad090 T _ZNKSt5ctypeIwE9do_narrowEPKwS2_cPc
001ad000 T _ZNKSt5ctypeIwE9do_narrowEwc
00192730 T _ZNKSt6locale2id5_M_idEv
00191cd0 T _ZNKSt6locale4nameB5cxx11Ev
002272c0 T _ZNKSt6locale4nameEv
0020f910 T _ZNKSt6locale5facet11_M_cow_shimEPKNS_2idE
001abd90 T _ZNKSt6locale5facet11_M_sso_shimEPKNS_2idE
001aa220 W _ZNKSt6locale5facet19_M_remove_referenceEv
00192030 T _ZNKSt6localeeqERKS_
00119f60 W _ZNKSt6vectorI16NESTED_FILE_INFOSaIS0_EE12_M_check_lenEjPKc
0011a06a W _ZNKSt6vectorI16NESTED_FILE_INFOSaIS0_EE4sizeEv
0011a17e W _ZNKSt6vectorI16NESTED_FILE_INFOSaIS0_EE8max_sizeEv
0011d372 W _ZNKSt6vectorI8Cab_InfoSaIS0_EE12_M_check_lenEjPKc
0011d47c W _ZNKSt6vectorI8Cab_InfoSaIS0_EE4sizeEv
0011d716 W _ZNKSt6vectorI8Cab_InfoSaIS0_EE8max_sizeEv
0010cb8e W _ZNKSt6vectorIcSaIcEE12_M_check_lenEjPKc
0010cc98 W _ZNKSt6vectorIcSaIcEE4sizeEv
0010e5d8 W _ZNKSt6vectorIcSaIcEE8max_sizeEv
0010ca8c W _ZNKSt6vectorIhSaIhEE4sizeEv
0010c9d2 W _ZNKSt6vectorIhSaIhEE8capacityEv
0010874a W _ZNKSt6vectorIN7peparse10rich_entryESaIS1_EE12_M_check_lenEjPKc
00108854 W _ZNKSt6vectorIN7peparse10rich_entryESaIS1_EE4sizeEv
0010ba34 W _ZNKSt6vectorIN7peparse10rich_entryESaIS1_EE8max_sizeEv
00109738 W _ZNKSt6vectorIN7peparse13aux_symbol_f1ESaIS1_EE12_M_check_lenEjPKc
0010dae4 W _ZNKSt6vectorIN7peparse13aux_symbol_f1ESaIS1_EE3endEv
00109842 W _ZNKSt6vectorIN7peparse13aux_symbol_f1ESaIS1_EE4sizeEv
0010da94 W _ZNKSt6vectorIN7peparse13aux_symbol_f1ESaIS1_EE5beginEv
0010c45c W _ZNKSt6vectorIN7peparse13aux_symbol_f1ESaIS1_EE8max_sizeEv
00109928 W _ZNKSt6vectorIN7peparse13aux_symbol_f2ESaIS1_EE12_M_check_lenEjPKc
0010dc3e W _ZNKSt6vectorIN7peparse13aux_symbol_f2ESaIS1_EE3endEv
00109a32 W _ZNKSt6vectorIN7peparse13aux_symbol_f2ESaIS1_EE4sizeEv
0010dbee W _ZNKSt6vectorIN7peparse13aux_symbol_f2ESaIS1_EE5beginEv
0010c4da W _ZNKSt6vectorIN7peparse13aux_symbol_f2ESaIS1_EE8max_sizeEv
00109b18 W _ZNKSt6vectorIN7peparse13aux_symbol_f3ESaIS1_EE12_M_check_lenEjPKc
0010dd98 W _ZNKSt6vectorIN7peparse13aux_symbol_f3ESaIS1_EE3endEv
00109c22 W _ZNKSt6vectorIN7peparse13aux_symbol_f3ESaIS1_EE4sizeEv
0010dd48 W _ZNKSt6vectorIN7peparse13aux_symbol_f3ESaIS1_EE5beginEv
0010c558 W _ZNKSt6vectorIN7peparse13aux_symbol_f3ESaIS1_EE8max_sizeEv
00109d72 W _ZNKSt6vectorIN7peparse13aux_symbol_f4ESaIS1_EE12_M_check_lenEjPKc
0010def2 W _ZNKSt6vectorIN7peparse13aux_symbol_f4ESaIS1_EE3endEv
00109e7c W _ZNKSt6vectorIN7peparse13aux_symbol_f4ESaIS1_EE4sizeEv
0010dea2 W _ZNKSt6vectorIN7peparse13aux_symbol_f4ESaIS1_EE5beginEv
0010c5d6 W _ZNKSt6vectorIN7peparse13aux_symbol_f4ESaIS1_EE8max_sizeEv
00109f72 W _ZNKSt6vectorIN7peparse13aux_symbol_f5ESaIS1_EE12_M_check_lenEjPKc
0010e04c W _ZNKSt6vectorIN7peparse13aux_symbol_f5ESaIS1_EE3endEv
0010a07c W _ZNKSt6vectorIN7peparse13aux_symbol_f5ESaIS1_EE4sizeEv
0010dffc W _ZNKSt6vectorIN7peparse13aux_symbol_f5ESaIS1_EE5beginEv
0010c666 W _ZNKSt6vectorIN7peparse13aux_symbol_f5ESaIS1_EE8max_sizeEv
00108c10 W _ZNKSt6vectorIN7peparse5relocESaIS1_EE12_M_check_lenEjPKc
00108d1a W _ZNKSt6vectorIN7peparse5relocESaIS1_EE4sizeEv
0010bb7c W _ZNKSt6vectorIN7peparse5relocESaIS1_EE8max_sizeEv
00109514 W _ZNKSt6vectorIN7peparse6symbolESaIS1_EE12_M_check_lenEjPKc
0010961e W _ZNKSt6vectorIN7peparse6symbolESaIS1_EE4sizeEv
0010c3b0 W _ZNKSt6vectorIN7peparse6symbolESaIS1_EE8max_sizeEv
00108514 W _ZNKSt6vectorIN7peparse7sectionESaIS1_EE12_M_check_lenEjPKc
0010396a W _ZNKSt6vectorIN7peparse7sectionESaIS1_EE3endEv
00104a4c W _ZNKSt6vectorIN7peparse7sectionESaIS1_EE4sizeEv
0010391a W _ZNKSt6vectorIN7peparse7sectionESaIS1_EE5beginEv
0010b82e W _ZNKSt6vectorIN7peparse7sectionESaIS1_EE8max_sizeEv
001082f6 W _ZNKSt6vectorIN7peparse8resourceESaIS1_EE12_M_check_lenEjPKc
00104a2c W _ZNKSt6vectorIN7peparse8resourceESaIS1_EE4sizeEv
0010b766 W _ZNKSt6vectorIN7peparse8resourceESaIS1_EE8max_sizeEv
001089f2 W _ZNKSt6vectorIN7peparse9exportentESaIS1_EE12_M_check_lenEjPKc
00108afc W _ZNKSt6vectorIN7peparse9exportentESaIS1_EE4sizeEv
0010bad0 W _ZNKSt6vectorIN7peparse9exportentESaIS1_EE8max_sizeEv
00108ebe W _ZNKSt6vectorIN7peparse9importentESaIS1_EE12_M_check_lenEjPKc
00108fc8 W _ZNKSt6vectorIN7peparse9importentESaIS1_EE4sizeEv
0010bc18 W _ZNKSt6vectorIN7peparse9importentESaIS1_EE8max_sizeEv
0011d154 W _ZNKSt6vectorINSt7__cxx1112basic_stringIcSt11char_traitsIcESaIcEEESaIS5_EE12_M_check_lenEjPKc
0011ee86 W _ZNKSt6vectorINSt7__cxx1112basic_stringIcSt11char_traitsIcESaIcEEESaIS5_EE3endEv
0011d25e W _ZNKSt6vectorINSt7__cxx1112basic_stringIcSt11char_traitsIcESaIcEEESaIS5_EE4sizeEv
0011ee36 W _ZNKSt6vectorINSt7__cxx1112basic_stringIcSt11char_traitsIcESaIcEEESaIS5_EE5beginEv
0011d686 W _ZNKSt6vectorINSt7__cxx1112basic_stringIcSt11char_traitsIcESaIcEEESaIS5_EE8max_sizeEv
002194f0 T _ZNKSt7codecvtIcc11__mbstate_tE10do_unshiftERS0_PcS3_RS3_
002194e0 T _ZNKSt7codecvtIcc11__mbstate_tE11do_encodingEv
002194e0 T _ZNKSt7codecvtIcc11__mbstate_tE13do_max_lengthEv
002194b0 T _ZNKSt7codecvtIcc11__mbstate_tE16do_always_noconvEv
00219490 T _ZNKSt7codecvtIcc11__mbstate_tE5do_inERS0_PKcS4_RS4_PcS6_RS6_
00219490 T _ZNKSt7codecvtIcc11__mbstate_tE6do_outERS0_PKcS4_RS4_PcS6_RS6_
002194c0 T _ZNKSt7codecvtIcc11__mbstate_tE9do_lengthERS0_PKcS4_j
00223f50 T _ZNKSt7codecvtIDic11__mbstate_tE10do_unshiftERS0_PcS3_RS3_
00223f60 T _ZNKSt7codecvtIDic11__mbstate_tE11do_encodingEv
00223f40 T _ZNKSt7codecvtIDic11__mbstate_tE13do_max_lengthEv
00223f70 T _ZNKSt7codecvtIDic11__mbstate_tE16do_always_noconvEv
00225fa0 T _ZNKSt7codecvtIDic11__mbstate_tE5do_inERS0_PKcS4_RS4_PDiS6_RS6_
00225050 T _ZNKSt7codecvtIDic11__mbstate_tE6do_outERS0_PKDiS4_RS4_PcS6_RS6_
00225c70 T _ZNKSt7codecvtIDic11__mbstate_tE9do_lengthERS0_PKcS4_j
00223f50 T _ZNKSt7codecvtIDsc11__mbstate_tE10do_unshiftERS0_PcS3_RS3_
00223f60 T _ZNKSt7codecvtIDsc11__mbstate_tE11do_encodingEv
00223f80 T _ZNKSt7codecvtIDsc11__mbstate_tE13do_max_lengthEv
00223f70 T _ZNKSt7codecvtIDsc11__mbstate_tE16do_always_noconvEv
00225510 T _ZNKSt7codecvtIDsc11__mbstate_tE5do_inERS0_PKcS4_RS4_PDsS6_RS6_
00225230 T _ZNKSt7codecvtIDsc11__mbstate_tE6do_outERS0_PKDsS4_RS4_PcS6_RS6_
00225df0 T _ZNKSt7codecvtIDsc11__mbstate_tE9do_lengthERS0_PKcS4_j
002194f0 T _ZNKSt7codecvtIwc11__mbstate_tE10do_unshiftERS0_PcS3_RS3_
0021c6d0 T _ZNKSt7codecvtIwc11__mbstate_tE11do_encodingEv
0021c710 T _ZNKSt7codecvtIwc11__mbstate_tE13do_max_lengthEv
00219500 T _ZNKSt7codecvtIwc11__mbstate_tE16do_always_noconvEv
0021c4b0 T _ZNKSt7codecvtIwc11__mbstate_tE5do_inERS0_PKcS4_RS4_PwS6_RS6_
0021c240 T _ZNKSt7codecvtIwc11__mbstate_tE6do_outERS0_PKwS4_RS4_PcS6_RS6_
0021c750 T _ZNKSt7codecvtIwc11__mbstate_tE9do_lengthERS0_PKcS4_j
00196570 W _ZNKSt7collateIcE10do_compareEPKcS2_S2_S2_
0021bd30 T _ZNKSt7collateIcE10_M_compareEPKcS2_
00196720 W _ZNKSt7collateIcE12do_transformEPKcS2_
0021bd70 T _ZNKSt7collateIcE12_M_transformEPcPKcj
001993b0 W _ZNKSt7collateIcE4hashEPKcS2_
00199330 W _ZNKSt7collateIcE7compareEPKcS2_S2_S2_
001956f0 W _ZNKSt7collateIcE7do_hashEPKcS2_
00199360 W _ZNKSt7collateIcE9transformEPKcS2_
001f3710 W _ZNKSt7collateIwE10do_compareEPKwS2_S2_S2_
0021bda0 T _ZNKSt7collateIwE10_M_compareEPKwS2_
001f3880 W _ZNKSt7collateIwE12do_transformEPKwS2_
0021bde0 T _ZNKSt7collateIwE12_M_transformEPwPKwj
001f6460 W _ZNKSt7collateIwE4hashEPKwS2_
001f63e0 W _ZNKSt7collateIwE7compareEPKwS2_S2_S2_
001f2830 W _ZNKSt7collateIwE7do_hashEPKwS2_
001f6410 W _ZNKSt7collateIwE9transformEPKwS2_
001be6a0 W _ZNKSt7__cxx1110moneypunctIcLb0EE10neg_formatEv
001be630 W _ZNKSt7__cxx1110moneypunctIcLb0EE10pos_formatEv
001be410 W _ZNKSt7__cxx1110moneypunctIcLb0EE11curr_symbolEv
001bdc40 W _ZNKSt7__cxx1110moneypunctIcLb0EE11do_groupingEv
001be5f0 W _ZNKSt7__cxx1110moneypunctIcLb0EE11frac_digitsEv
001be2f0 W _ZNKSt7__cxx1110moneypunctIcLb0EE13decimal_pointEv
001bd420 W _ZNKSt7__cxx1110moneypunctIcLb0EE13do_neg_formatEv
001bd400 W _ZNKSt7__cxx1110moneypunctIcLb0EE13do_pos_formatEv
001be550 W _ZNKSt7__cxx1110moneypunctIcLb0EE13negative_signEv
001be4b0 W _ZNKSt7__cxx1110moneypunctIcLb0EE13positive_signEv
001be330 W _ZNKSt7__cxx1110moneypunctIcLb0EE13thousands_sepEv
001bdc90 W _ZNKSt7__cxx1110moneypunctIcLb0EE14do_curr_symbolEv
001bd3f0 W _ZNKSt7__cxx1110moneypunctIcLb0EE14do_frac_digitsEv
001bd3d0 W _ZNKSt7__cxx1110moneypunctIcLb0EE16do_decimal_pointEv
001bdd30 W _ZNKSt7__cxx1110moneypunctIcLb0EE16do_negative_signEv
001bdce0 W _ZNKSt7__cxx1110moneypunctIcLb0EE16do_positive_signEv
001bd3e0 W _ZNKSt7__cxx1110moneypunctIcLb0EE16do_thousands_sepEv
001be370 W _ZNKSt7__cxx1110moneypunctIcLb0EE8groupingEv
001bebe0 W _ZNKSt7__cxx1110moneypunctIcLb1EE10neg_formatEv
001beb70 W _ZNKSt7__cxx1110moneypunctIcLb1EE10pos_formatEv
001be950 W _ZNKSt7__cxx1110moneypunctIcLb1EE11curr_symbolEv
001bdd80 W _ZNKSt7__cxx1110moneypunctIcLb1EE11do_groupingEv
001beb30 W _ZNKSt7__cxx1110moneypunctIcLb1EE11frac_digitsEv
001be830 W _ZNKSt7__cxx1110moneypunctIcLb1EE13decimal_pointEv
001bd490 W _ZNKSt7__cxx1110moneypunctIcLb1EE13do_neg_formatEv
001bd470 W _ZNKSt7__cxx1110moneypunctIcLb1EE13do_pos_formatEv
001bea90 W _ZNKSt7__cxx1110moneypunctIcLb1EE13negative_signEv
001be9f0 W _ZNKSt7__cxx1110moneypunctIcLb1EE13positive_signEv
001be870 W _ZNKSt7__cxx1110moneypunctIcLb1EE13thousands_sepEv
001bddd0 W _ZNKSt7__cxx1110moneypunctIcLb1EE14do_curr_symbolEv
001bd460 W _ZNKSt7__cxx1110moneypunctIcLb1EE14do_frac_digitsEv
001bd440 W _ZNKSt7__cxx1110moneypunctIcLb1EE16do_decimal_pointEv
001bde70 W _ZNKSt7__cxx1110moneypunctIcLb1EE16do_negative_signEv
001bde20 W _ZNKSt7__cxx1110moneypunctIcLb1EE16do_positive_signEv
001bd450 W _ZNKSt7__cxx1110moneypunctIcLb1EE16do_thousands_sepEv
001be8b0 W _ZNKSt7__cxx1110moneypunctIcLb1EE8groupingEv
001af3b0 W _ZNKSt7__cxx1110moneypunctIwLb0EE10neg_formatEv
001af340 W _ZNKSt7__cxx1110moneypunctIwLb0EE10pos_formatEv
001af120 W _ZNKSt7__cxx1110moneypunctIwLb0EE11curr_symbolEv
001ae7a0 W _ZNKSt7__cxx1110moneypunctIwLb0EE11do_groupingEv
001af300 W _ZNKSt7__cxx1110moneypunctIwLb0EE11frac_digitsEv
001aef80 W _ZNKSt7__cxx1110moneypunctIwLb0EE13decimal_pointEv
001adf60 W _ZNKSt7__cxx1110moneypunctIwLb0EE13do_neg_formatEv
001adf40 W _ZNKSt7__cxx1110moneypunctIwLb0EE13do_pos_formatEv
001af260 W _ZNKSt7__cxx1110moneypunctIwLb0EE13negative_signEv
001af1c0 W _ZNKSt7__cxx1110moneypunctIwLb0EE13positive_signEv
001aefc0 W _ZNKSt7__cxx1110moneypunctIwLb0EE13thousands_sepEv
001aedc0 W _ZNKSt7__cxx1110moneypunctIwLb0EE14do_curr_symbolEv
001adf30 W _ZNKSt7__cxx1110moneypunctIwLb0EE14do_frac_digitsEv
001adf10 W _ZNKSt7__cxx1110moneypunctIwLb0EE16do_decimal_pointEv
001aecd0 W _ZNKSt7__cxx1110moneypunctIwLb0EE16do_negative_signEv
001aee10 W _ZNKSt7__cxx1110moneypunctIwLb0EE16do_positive_signEv
001adf20 W _ZNKSt7__cxx1110moneypunctIwLb0EE16do_thousands_sepEv
001af000 W _ZNKSt7__cxx1110moneypunctIwLb0EE8groupingEv
001af970 W _ZNKSt7__cxx1110moneypunctIwLb1EE10neg_formatEv
001af900 W _ZNKSt7__cxx1110moneypunctIwLb1EE10pos_formatEv
001af6e0 W _ZNKSt7__cxx1110moneypunctIwLb1EE11curr_symbolEv
001ae6b0 W _ZNKSt7__cxx1110moneypunctIwLb1EE11do_groupingEv
001af8c0 W _ZNKSt7__cxx1110moneypunctIwLb1EE11frac_digitsEv
001af540 W _ZNKSt7__cxx1110moneypunctIwLb1EE13decimal_pointEv
001adfd0 W _ZNKSt7__cxx1110moneypunctIwLb1EE13do_neg_formatEv
001adfb0 W _ZNKSt7__cxx1110moneypunctIwLb1EE13do_pos_formatEv
001af820 W _ZNKSt7__cxx1110moneypunctIwLb1EE13negative_signEv
001af780 W _ZNKSt7__cxx1110moneypunctIwLb1EE13positive_signEv
001af580 W _ZNKSt7__cxx1110moneypunctIwLb1EE13thousands_sepEv
001aebe0 W _ZNKSt7__cxx1110moneypunctIwLb1EE14do_curr_symbolEv
001adfa0 W _ZNKSt7__cxx1110moneypunctIwLb1EE14do_frac_digitsEv
001adf80 W _ZNKSt7__cxx1110moneypunctIwLb1EE16do_decimal_pointEv
001aec80 W _ZNKSt7__cxx1110moneypunctIwLb1EE16do_negative_signEv
001aec30 W _ZNKSt7__cxx1110moneypunctIwLb1EE16do_positive_signEv
001adf90 W _ZNKSt7__cxx1110moneypunctIwLb1EE16do_thousands_sepEv
001af5c0 W _ZNKSt7__cxx1110moneypunctIwLb1EE8groupingEv
001d8790 W _ZNKSt7__cxx1112basic_stringIcSt11char_traitsIcESaIcEE11_M_disjunctEPKc
001d8520 W _ZNKSt7__cxx1112basic_stringIcSt11char_traitsIcESaIcEE11_M_is_localEv
001daf50 W _ZNKSt7__cxx1112basic_stringIcSt11char_traitsIcESaIcEE12find_last_ofEcj
001daf10 W _ZNKSt7__cxx1112basic_stringIcSt11char_traitsIcESaIcEE12find_last_ofEPKcj
001dae60 W _ZNKSt7__cxx1112basic_stringIcSt11char_traitsIcESaIcEE12find_last_ofEPKcjj
001daee0 W _ZNKSt7__cxx1112basic_stringIcSt11char_traitsIcESaIcEE12find_last_ofERKS4_j
001dae30 W _ZNKSt7__cxx1112basic_stringIcSt11char_traitsIcESaIcEE13find_first_ofEcj
001dadf0 W _ZNKSt7__cxx1112basic_stringIcSt11char_traitsIcESaIcEE13find_first_ofEPKcj
001dad40 W _ZNKSt7__cxx1112basic_stringIcSt11char_traitsIcESaIcEE13find_first_ofEPKcjj
001dadc0 W _ZNKSt7__cxx1112basic_stringIcSt11char_traitsIcESaIcEE13find_first_ofERKS4_j
001daa40 W _ZNKSt7__cxx1112basic_stringIcSt11char_traitsIcESaIcEE13get_allocatorEv
001d84e0 W _ZNKSt7__cxx1112basic_stringIcSt11char_traitsIcESaIcEE13_M_local_dataEv
001d8730 W _ZNKSt7__cxx1112basic_stringIcSt11char_traitsIcESaIcEE15_M_check_lengthEjjPKc
001db1a0 W _ZNKSt7__cxx1112basic_stringIcSt11char_traitsIcESaIcEE16find_last_not_ofEcj
001db160 W _ZNKSt7__cxx1112basic_stringIcSt11char_traitsIcESaIcEE16find_last_not_ofEPKcj
001db0a0 W _ZNKSt7__cxx1112basic_stringIcSt11char_traitsIcESaIcEE16find_last_not_ofEPKcjj
001db130 W _ZNKSt7__cxx1112basic_stringIcSt11char_traitsIcESaIcEE16find_last_not_ofERKS4_j
001d86e0 W _ZNKSt7__cxx1112basic_stringIcSt11char_traitsIcESaIcEE16_M_get_allocatorEv
001db060 W _ZNKSt7__cxx1112basic_stringIcSt11char_traitsIcESaIcEE17find_first_not_ofEcj
001db020 W _ZNKSt7__cxx1112basic_stringIcSt11char_traitsIcESaIcEE17find_first_not_ofEPKcj
001daf80 W _ZNKSt7__cxx1112basic_stringIcSt11char_traitsIcESaIcEE17find_first_not_ofEPKcjj
001daff0 W _ZNKSt7__cxx1112basic_stringIcSt11char_traitsIcESaIcEE17find_first_not_ofERKS4_j
001d91e0 W _ZNKSt7__cxx1112basic_stringIcSt11char_traitsIcESaIcEE2atEj
001d8ed0 W _ZNKSt7__cxx1112basic_stringIcSt11char_traitsIcESaIcEE3endEv
001d9290 W _ZNKSt7__cxx1112basic_stringIcSt11char_traitsIcESaIcEE4backEv
001d8f60 W _ZNKSt7__cxx1112basic_stringIcSt11char_traitsIcESaIcEE4cendEv
001da770 W _ZNKSt7__cxx1112basic_stringIcSt11char_traitsIcESaIcEE4copyEPcjj
001daa30 W _ZNKSt7__cxx1112basic_stringIcSt11char_traitsIcESaIcEE4dataEv
001daba0 W _ZNKSt7__cxx1112basic_stringIcSt11char_traitsIcESaIcEE4findEcj
001dab60 W _ZNKSt7__cxx1112basic_stringIcSt11char_traitsIcESaIcEE4findEPKcj
001daa50 W _ZNKSt7__cxx1112basic_stringIcSt11char_traitsIcESaIcEE4findEPKcjj
001dab30 W _ZNKSt7__cxx1112basic_stringIcSt11char_traitsIcESaIcEE4findERKS4_j
001d8f40 W _ZNKSt7__cxx1112basic_stringIcSt11char_traitsIcESaIcEE4rendEv
001d8fb0 W _ZNKSt7__cxx1112basic_stringIcSt11char_traitsIcESaIcEE4sizeEv
001d8ea0 W _ZNKSt7__cxx1112basic_stringIcSt11char_traitsIcESaIcEE5beginEv
001d8fa0 W _ZNKSt7__cxx1112basic_stringIcSt11char_traitsIcESaIcEE5crendEv
001daa20 W _ZNKSt7__cxx1112basic_stringIcSt11char_traitsIcESaIcEE5c_strEv
001d91b0 W _ZNKSt7__cxx1112basic_stringIcSt11char_traitsIcESaIcEE5emptyEv
001d9270 W _ZNKSt7__cxx1112basic_stringIcSt11char_traitsIcESaIcEE5frontEv
001dacf0 W _ZNKSt7__cxx1112basic_stringIcSt11char_traitsIcESaIcEE5rfindEcj
001dacb0 W _ZNKSt7__cxx1112basic_stringIcSt11char_traitsIcESaIcEE5rfindEPKcj
001dac00 W _ZNKSt7__cxx1112basic_stringIcSt11char_traitsIcESaIcEE5rfindEPKcjj
001dac80 W _ZNKSt7__cxx1112basic_stringIcSt11char_traitsIcESaIcEE5rfindERKS4_j
001d8f50 W _ZNKSt7__cxx1112basic_stringIcSt11char_traitsIcESaIcEE6cbeginEv
001d8fc0 W _ZNKSt7__cxx1112basic_stringIcSt11char_traitsIcESaIcEE6lengthEv
001d8f10 W _ZNKSt7__cxx1112basic_stringIcSt11char_traitsIcESaIcEE6rbeginEv
001dbb80 W _ZNKSt7__cxx1112basic_stringIcSt11char_traitsIcESaIcEE6substrEjj
001db3e0 W _ZNKSt7__cxx1112basic_stringIcSt11char_traitsIcESaIcEE7compareEjjPKc
001db470 W _ZNKSt7__cxx1112basic_stringIcSt11char_traitsIcESaIcEE7compareEjjPKcj
001db240 W _ZNKSt7__cxx1112basic_stringIcSt11char_traitsIcESaIcEE7compareEjjRKS4_
001db2d0 W _ZNKSt7__cxx1112basic_stringIcSt11char_traitsIcESaIcEE7compareEjjRKS4_jj
001db370 W _ZNKSt7__cxx1112basic_stringIcSt11char_traitsIcESaIcEE7compareEPKc
001db1f0 W _ZNKSt7__cxx1112basic_stringIcSt11char_traitsIcESaIcEE7compareERKS4_
001d8f80 W _ZNKSt7__cxx1112basic_stringIcSt11char_traitsIcESaIcEE7crbeginEv
001d84c0 W _ZNKSt7__cxx1112basic_stringIcSt11char_traitsIcESaIcEE7_M_dataEv
001d8fe0 W _ZNKSt7__cxx1112basic_stringIcSt11char_traitsIcESaIcEE8capacityEv
001d8fd0 W _ZNKSt7__cxx1112basic_stringIcSt11char_traitsIcESaIcEE8max_sizeEv
001d86f0 W _ZNKSt7__cxx1112basic_stringIcSt11char_traitsIcESaIcEE8_M_checkEjPKc
001d8770 W _ZNKSt7__cxx1112basic_stringIcSt11char_traitsIcESaIcEE8_M_limitEjj
001d91c0 W _ZNKSt7__cxx1112basic_stringIcSt11char_traitsIcESaIcEEixEj
0010810c W _ZNKSt7__cxx1112basic_stringIDsSt11char_traitsIDsESaIDsEE11_M_is_localEv
0010b6e4 W _ZNKSt7__cxx1112basic_stringIDsSt11char_traitsIDsESaIDsEE13_M_local_dataEv
0010d45a W _ZNKSt7__cxx1112basic_stringIDsSt11char_traitsIDsESaIDsEE16_M_get_allocatorEv
000ea11c W _ZNKSt7__cxx1112basic_stringIDsSt11char_traitsIDsESaIDsEE4dataEv
000ea132 W _ZNKSt7__cxx1112basic_stringIDsSt11char_traitsIDsESaIDsEE4sizeEv
0010323e W _ZNKSt7__cxx1112basic_stringIDsSt11char_traitsIDsESaIDsEE6lengthEv
000ea13e W _ZNKSt7__cxx1112basic_stringIDsSt11char_traitsIDsESaIDsEE7_M_dataEv
001054c4 W _ZNKSt7__cxx1112basic_stringIDsSt11char_traitsIDsESaIDsEE8capacityEv
0010b724 W _ZNKSt7__cxx1112basic_stringIDsSt11char_traitsIDsESaIDsEE8max_sizeEv
001ee6e0 W _ZNKSt7__cxx1112basic_stringIwSt11char_traitsIwESaIwEE11_M_disjunctEPKw
001ee470 W _ZNKSt7__cxx1112basic_stringIwSt11char_traitsIwESaIwEE11_M_is_localEv
001f0f70 W _ZNKSt7__cxx1112basic_stringIwSt11char_traitsIwESaIwEE12find_last_ofEPKwj
001f0ec0 W _ZNKSt7__cxx1112basic_stringIwSt11char_traitsIwESaIwEE12find_last_ofEPKwjj
001f0f40 W _ZNKSt7__cxx1112basic_stringIwSt11char_traitsIwESaIwEE12find_last_ofERKS4_j
001f0fb0 W _ZNKSt7__cxx1112basic_stringIwSt11char_traitsIwESaIwEE12find_last_ofEwj
001f0e50 W _ZNKSt7__cxx1112basic_stringIwSt11char_traitsIwESaIwEE13find_first_ofEPKwj
001f0da0 W _ZNKSt7__cxx1112basic_stringIwSt11char_traitsIwESaIwEE13find_first_ofEPKwjj
001f0e20 W _ZNKSt7__cxx1112basic_stringIwSt11char_traitsIwESaIwEE13find_first_ofERKS4_j
001f0e90 W _ZNKSt7__cxx1112basic_stringIwSt11char_traitsIwESaIwEE13find_first_ofEwj
001f0a70 W _ZNKSt7__cxx1112basic_stringIwSt11char_traitsIwESaIwEE13get_allocatorEv
001ee430 W _ZNKSt7__cxx1112basic_stringIwSt11char_traitsIwESaIwEE13_M_local_dataEv
001ee680 W _ZNKSt7__cxx1112basic_stringIwSt11char_traitsIwESaIwEE15_M_check_lengthEjjPKc
001f11c0 W _ZNKSt7__cxx1112basic_stringIwSt11char_traitsIwESaIwEE16find_last_not_ofEPKwj
001f1100 W _ZNKSt7__cxx1112basic_stringIwSt11char_traitsIwESaIwEE16find_last_not_ofEPKwjj
001f1190 W _ZNKSt7__cxx1112basic_stringIwSt11char_traitsIwESaIwEE16find_last_not_ofERKS4_j
001f1200 W _ZNKSt7__cxx1112basic_stringIwSt11char_traitsIwESaIwEE16find_last_not_ofEwj
001ee630 W _ZNKSt7__cxx1112basic_stringIwSt11char_traitsIwESaIwEE16_M_get_allocatorEv
001f1080 W _ZNKSt7__cxx1112basic_stringIwSt11char_traitsIwESaIwEE17find_first_not_ofEPKwj
001f0fe0 W _ZNKSt7__cxx1112basic_stringIwSt11char_traitsIwESaIwEE17find_first_not_ofEPKwjj
001f1050 W _ZNKSt7__cxx1112basic_stringIwSt11char_traitsIwESaIwEE17find_first_not_ofERKS4_j
001f10c0 W _ZNKSt7__cxx1112basic_stringIwSt11char_traitsIwESaIwEE17find_first_not_ofEwj
001ef160 W _ZNKSt7__cxx1112basic_stringIwSt11char_traitsIwESaIwEE2atEj
001eee50 W _ZNKSt7__cxx1112basic_stringIwSt11char_traitsIwESaIwEE3endEv
001ef210 W _ZNKSt7__cxx1112basic_stringIwSt11char_traitsIwESaIwEE4backEv
001eeee0 W _ZNKSt7__cxx1112basic_stringIwSt11char_traitsIwESaIwEE4cendEv
001f0770 W _ZNKSt7__cxx1112basic_stringIwSt11char_traitsIwESaIwEE4copyEPwjj
001f0a60 W _ZNKSt7__cxx1112basic_stringIwSt11char_traitsIwESaIwEE4dataEv
001f0ba0 W _ZNKSt7__cxx1112basic_stringIwSt11char_traitsIwESaIwEE4findEPKwj
001f0a80 W _ZNKSt7__cxx1112basic_stringIwSt11char_traitsIwESaIwEE4findEPKwjj
001f0b70 W _ZNKSt7__cxx1112basic_stringIwSt11char_traitsIwESaIwEE4findERKS4_j
001f0be0 W _ZNKSt7__cxx1112basic_stringIwSt11char_traitsIwESaIwEE4findEwj
001eeec0 W _ZNKSt7__cxx1112basic_stringIwSt11char_traitsIwESaIwEE4rendEv
001eef30 W _ZNKSt7__cxx1112basic_stringIwSt11char_traitsIwESaIwEE4sizeEv
001eee20 W _ZNKSt7__cxx1112basic_stringIwSt11char_traitsIwESaIwEE5beginEv
001eef20 W _ZNKSt7__cxx1112basic_stringIwSt11char_traitsIwESaIwEE5crendEv
001f0a50 W _ZNKSt7__cxx1112basic_stringIwSt11char_traitsIwESaIwEE5c_strEv
001ef130 W _ZNKSt7__cxx1112basic_stringIwSt11char_traitsIwESaIwEE5emptyEv
001ef1f0 W _ZNKSt7__cxx1112basic_stringIwSt11char_traitsIwESaIwEE5frontEv
001f0d00 W _ZNKSt7__cxx1112basic_stringIwSt11char_traitsIwESaIwEE5rfindEPKwj
001f0c40 W _ZNKSt7__cxx1112basic_stringIwSt11char_traitsIwESaIwEE5rfindEPKwjj
001f0cd0 W _ZNKSt7__cxx1112basic_stringIwSt11char_traitsIwESaIwEE5rfindERKS4_j
001f0d40 W _ZNKSt7__cxx1112basic_stringIwSt11char_traitsIwESaIwEE5rfindEwj
001eeed0 W _ZNKSt7__cxx1112basic_stringIwSt11char_traitsIwESaIwEE6cbeginEv
001eef40 W _ZNKSt7__cxx1112basic_stringIwSt11char_traitsIwESaIwEE6lengthEv
001eee90 W _ZNKSt7__cxx1112basic_stringIwSt11char_traitsIwESaIwEE6rbeginEv
001f1cf0 W _ZNKSt7__cxx1112basic_stringIwSt11char_traitsIwESaIwEE6substrEjj
001f1450 W _ZNKSt7__cxx1112basic_stringIwSt11char_traitsIwESaIwEE7compareEjjPKw
001f14f0 W _ZNKSt7__cxx1112basic_stringIwSt11char_traitsIwESaIwEE7compareEjjPKwj
001f12a0 W _ZNKSt7__cxx1112basic_stringIwSt11char_traitsIwESaIwEE7compareEjjRKS4_
001f1330 W _ZNKSt7__cxx1112basic_stringIwSt11char_traitsIwESaIwEE7compareEjjRKS4_jj
001f13e0 W _ZNKSt7__cxx1112basic_stringIwSt11char_traitsIwESaIwEE7compareEPKw
001f1250 W _ZNKSt7__cxx1112basic_stringIwSt11char_traitsIwESaIwEE7compareERKS4_
001eef00 W _ZNKSt7__cxx1112basic_stringIwSt11char_traitsIwESaIwEE7crbeginEv
001ee410 W _ZNKSt7__cxx1112basic_stringIwSt11char_traitsIwESaIwEE7_M_dataEv
001eef60 W _ZNKSt7__cxx1112basic_stringIwSt11char_traitsIwESaIwEE8capacityEv
001eef50 W _ZNKSt7__cxx1112basic_stringIwSt11char_traitsIwESaIwEE8max_sizeEv
001ee640 W _ZNKSt7__cxx1112basic_stringIwSt11char_traitsIwESaIwEE8_M_checkEjPKc
001ee6c0 W _ZNKSt7__cxx1112basic_stringIwSt11char_traitsIwESaIwEE8_M_limitEjj
001ef140 W _ZNKSt7__cxx1112basic_stringIwSt11char_traitsIwESaIwEEixEj
001cd8f0 W _ZNKSt7__cxx1115basic_stringbufIcSt11char_traitsIcESaIcEE3strEv
001d2db0 W _ZNKSt7__cxx1115basic_stringbufIwSt11char_traitsIwESaIwEE3strEv
001d2bd0 W _ZNKSt7__cxx1118basic_stringstreamIcSt11char_traitsIcESaIcEE3strEv
001d2bc0 W _ZNKSt7__cxx1118basic_stringstreamIcSt11char_traitsIcESaIcEE5rdbufEv
001d8330 W _ZNKSt7__cxx1118basic_stringstreamIwSt11char_traitsIwESaIwEE3strEv
001d8320 W _ZNKSt7__cxx1118basic_stringstreamIwSt11char_traitsIwESaIwEE5rdbufEv
001d0140 W _ZNKSt7__cxx1119basic_istringstreamIcSt11char_traitsIcESaIcEE3strEv
001d0130 W _ZNKSt7__cxx1119basic_istringstreamIcSt11char_traitsIcESaIcEE5rdbufEv
001d5730 W _ZNKSt7__cxx1119basic_istringstreamIwSt11char_traitsIwESaIwEE3strEv
001d5720 W _ZNKSt7__cxx1119basic_istringstreamIwSt11char_traitsIwESaIwEE5rdbufEv
001d1590 W _ZNKSt7__cxx1119basic_ostringstreamIcSt11char_traitsIcESaIcEE3strEv
001d1580 W _ZNKSt7__cxx1119basic_ostringstreamIcSt11char_traitsIcESaIcEE5rdbufEv
001d6c30 W _ZNKSt7__cxx1119basic_ostringstreamIwSt11char_traitsIwESaIwEE3strEv
001d6c20 W _ZNKSt7__cxx1119basic_ostringstreamIwSt11char_traitsIwESaIwEE5rdbufEv
001bdaf0 W _ZNKSt7__cxx117collateIcE10do_compareEPKcS3_S3_S3_
0021c160 T _ZNKSt7__cxx117collateIcE10_M_compareEPKcS3_
001bdfb0 W _ZNKSt7__cxx117collateIcE12do_transformEPKcS3_
0021c1a0 T _ZNKSt7__cxx117collateIcE12_M_transformEPcPKcj
001c5460 W _ZNKSt7__cxx117collateIcE4hashEPKcS3_
001c53e0 W _ZNKSt7__cxx117collateIcE7compareEPKcS3_S3_S3_
001bd570 W _ZNKSt7__cxx117collateIcE7do_hashEPKcS3_
001c5410 W _ZNKSt7__cxx117collateIcE9transformEPKcS3_
001ae560 W _ZNKSt7__cxx117collateIwE10do_compareEPKwS3_S3_S3_
0021c1d0 T _ZNKSt7__cxx117collateIwE10_M_compareEPKwS3_
001ae980 W _ZNKSt7__cxx117collateIwE12do_transformEPKwS3_
0021c210 T _ZNKSt7__cxx117collateIwE12_M_transformEPwPKwj
001b2fe0 W _ZNKSt7__cxx117collateIwE4hashEPKwS3_
001b2f60 W _ZNKSt7__cxx117collateIwE7compareEPKwS3_S3_S3_
001ae0b0 W _ZNKSt7__cxx117collateIwE7do_hashEPKwS3_
001b2f90 W _ZNKSt7__cxx117collateIwE9transformEPKwS3_
001c5100 W _ZNKSt7__cxx118messagesIcE18_M_convert_to_charERKNS_12basic_stringIcSt11char_traitsIcESaIcEEE
001c5110 W _ZNKSt7__cxx118messagesIcE20_M_convert_from_charEPc
001c5090 W _ZNKSt7__cxx118messagesIcE3getEiiiRKNS_12basic_stringIcSt11char_traitsIcESaIcEEE
001c5030 W _ZNKSt7__cxx118messagesIcE4openERKNS_12basic_stringIcSt11char_traitsIcESaIcEEERKSt6locale
001c5050 W _ZNKSt7__cxx118messagesIcE4openERKNS_12basic_stringIcSt11char_traitsIcESaIcEEERKSt6localePKc
001c50e0 W _ZNKSt7__cxx118messagesIcE5closeEi
00215a50 T _ZNKSt7__cxx118messagesIcE6do_getEiiiRKNS_12basic_stringIcSt11char_traitsIcESaIcEEE
002156c0 T _ZNKSt7__cxx118messagesIcE7do_openERKNS_12basic_stringIcSt11char_traitsIcESaIcEEERKSt6locale
00215ff0 T _ZNKSt7__cxx118messagesIcE8do_closeEi
001b2c80 W _ZNKSt7__cxx118messagesIwE18_M_convert_to_charERKNS_12basic_stringIwSt11char_traitsIwESaIwEEE
001b2c90 W _ZNKSt7__cxx118messagesIwE20_M_convert_from_charEPc
001b2c10 W _ZNKSt7__cxx118messagesIwE3getEiiiRKNS_12basic_stringIwSt11char_traitsIwESaIwEEE
001b2bb0 W _ZNKSt7__cxx118messagesIwE4openERKNS_12basic_stringIcSt11char_traitsIcESaIcEEERKSt6locale
001b2bd0 W _ZNKSt7__cxx118messagesIwE4openERKNS_12basic_stringIcSt11char_traitsIcESaIcEEERKSt6localePKc
001b2c60 W _ZNKSt7__cxx118messagesIwE5closeEi
00216200 T _ZNKSt7__cxx118messagesIwE6do_getEiiiRKNS_12basic_stringIwSt11char_traitsIwESaIwEEE
00215c60 T _ZNKSt7__cxx118messagesIwE7do_openERKNS_12basic_stringIcSt11char_traitsIcESaIcEEERKSt6locale
00215ff0 T _ZNKSt7__cxx118messagesIwE8do_closeEi
001bdec0 W _ZNKSt7__cxx118numpunctIcE11do_groupingEv
001bdf10 W _ZNKSt7__cxx118numpunctIcE11do_truenameEv
001bdf60 W _ZNKSt7__cxx118numpunctIcE12do_falsenameEv
001c3180 W _ZNKSt7__cxx118numpunctIcE13decimal_pointEv
001c31c0 W _ZNKSt7__cxx118numpunctIcE13thousands_sepEv
001bd510 W _ZNKSt7__cxx118numpunctIcE16do_decimal_pointEv
001bd520 W _ZNKSt7__cxx118numpunctIcE16do_thousands_sepEv
001c3200 W _ZNKSt7__cxx118numpunctIcE8groupingEv
001c32a0 W _ZNKSt7__cxx118numpunctIcE8truenameEv
001c3340 W _ZNKSt7__cxx118numpunctIcE9falsenameEv
001ae890 W _ZNKSt7__cxx118numpunctIwE11do_groupingEv
001aed20 W _ZNKSt7__cxx118numpunctIwE11do_truenameEv
001aed70 W _ZNKSt7__cxx118numpunctIwE12do_falsenameEv
001b1320 W _ZNKSt7__cxx118numpunctIwE13decimal_pointEv
001b1360 W _ZNKSt7__cxx118numpunctIwE13thousands_sepEv
001ae050 W _ZNKSt7__cxx118numpunctIwE16do_decimal_pointEv
001ae060 W _ZNKSt7__cxx118numpunctIwE16do_thousands_sepEv
001b13a0 W _ZNKSt7__cxx118numpunctIwE8groupingEv
001b14c0 W _ZNKSt7__cxx118numpunctIwE8truenameEv
001b1560 W _ZNKSt7__cxx118numpunctIwE9falsenameEv
001c3640 W _ZNKSt7__cxx118time_getIcSt19istreambuf_iteratorIcSt11char_traitsIcEEE10date_orderEv
001c6b20 W _ZNKSt7__cxx118time_getIcSt19istreambuf_iteratorIcSt11char_traitsIcEEE11do_get_dateES4_S4_RSt8ios_baseRSt12_Ios_IostateP2tm
001c69b0 W _ZNKSt7__cxx118time_getIcSt19istreambuf_iteratorIcSt11char_traitsIcEEE11do_get_timeES4_S4_RSt8ios_baseRSt12_Ios_IostateP2tm
001c3b60 W _ZNKSt7__cxx118time_getIcSt19istreambuf_iteratorIcSt11char_traitsIcEEE11do_get_yearES4_S4_RSt8ios_baseRSt12_Ios_IostateP2tm
001c3720 W _ZNKSt7__cxx118time_getIcSt19istreambuf_iteratorIcSt11char_traitsIcEEE11get_weekdayES4_S4_RSt8ios_baseRSt12_Ios_IostateP2tm
001bd560 W _ZNKSt7__cxx118time_getIcSt19istreambuf_iteratorIcSt11char_traitsIcEEE13do_date_orderEv
001c3780 W _ZNKSt7__cxx118time_getIcSt19istreambuf_iteratorIcSt11char_traitsIcEEE13get_monthnameES4_S4_RSt8ios_baseRSt12_Ios_IostateP2tm
001c4930 W _ZNKSt7__cxx118time_getIcSt19istreambuf_iteratorIcSt11char_traitsIcEEE14do_get_weekdayES4_S4_RSt8ios_baseRSt12_Ios_IostateP2tm
001c3840 W _ZNKSt7__cxx118time_getIcSt19istreambuf_iteratorIcSt11char_traitsIcEEE14_M_extract_numES4_S4_RiiijRSt8ios_baseRSt12_Ios_Iostate
001c3d10 W _ZNKSt7__cxx118time_getIcSt19istreambuf_iteratorIcSt11char_traitsIcEEE15_M_extract_nameES4_S4_RiPPKcjRSt8ios_baseRSt12_Ios_Iostate
001c4b90 W _ZNKSt7__cxx118time_getIcSt19istreambuf_iteratorIcSt11char_traitsIcEEE16do_get_monthnameES4_S4_RSt8ios_baseRSt12_Ios_IostateP2tm
001c5bf0 W _ZNKSt7__cxx118time_getIcSt19istreambuf_iteratorIcSt11char_traitsIcEEE21_M_extract_via_formatES4_S4_RSt8ios_baseRSt12_Ios_IostateP2tmPKc
001c43b0 W _ZNKSt7__cxx118time_getIcSt19istreambuf_iteratorIcSt11char_traitsIcEEE24_M_extract_wday_or_monthES4_S4_RiPPKcjRSt8ios_baseRSt12_Ios_Iostate
001c6f00 W _ZNKSt7__cxx118time_getIcSt19istreambuf_iteratorIcSt11char_traitsIcEEE3getES4_S4_RSt8ios_baseRSt12_Ios_IostateP2tmcc
001c7200 W _ZNKSt7__cxx118time_getIcSt19istreambuf_iteratorIcSt11char_traitsIcEEE3getES4_S4_RSt8ios_baseRSt12_Ios_IostateP2tmPKcSD_
001c6c90 W _ZNKSt7__cxx118time_getIcSt19istreambuf_iteratorIcSt11char_traitsIcEEE6do_getES4_S4_RSt8ios_baseRSt12_Ios_IostateP2tmcc
001c36c0 W _ZNKSt7__cxx118time_getIcSt19istreambuf_iteratorIcSt11char_traitsIcEEE8get_dateES4_S4_RSt8ios_baseRSt12_Ios_IostateP2tm
001c3660 W _ZNKSt7__cxx118time_getIcSt19istreambuf_iteratorIcSt11char_traitsIcEEE8get_timeES4_S4_RSt8ios_baseRSt12_Ios_IostateP2tm
001c37e0 W _ZNKSt7__cxx118time_getIcSt19istreambuf_iteratorIcSt11char_traitsIcEEE8get_yearES4_S4_RSt8ios_baseRSt12_Ios_IostateP2tm
001b1860 W _ZNKSt7__cxx118time_getIwSt19istreambuf_iteratorIwSt11char_traitsIwEEE10date_orderEv
001b4de0 W _ZNKSt7__cxx118time_getIwSt19istreambuf_iteratorIwSt11char_traitsIwEEE11do_get_dateES4_S4_RSt8ios_baseRSt12_Ios_IostateP2tm
001b4c60 W _ZNKSt7__cxx118time_getIwSt19istreambuf_iteratorIwSt11char_traitsIwEEE11do_get_timeES4_S4_RSt8ios_baseRSt12_Ios_IostateP2tm
001b1d10 W _ZNKSt7__cxx118time_getIwSt19istreambuf_iteratorIwSt11char_traitsIwEEE11do_get_yearES4_S4_RSt8ios_baseRSt12_Ios_IostateP2tm
001b1940 W _ZNKSt7__cxx118time_getIwSt19istreambuf_iteratorIwSt11char_traitsIwEEE11get_weekdayES4_S4_RSt8ios_baseRSt12_Ios_IostateP2tm
001ae0a0 W _ZNKSt7__cxx118time_getIwSt19istreambuf_iteratorIwSt11char_traitsIwEEE13do_date_orderEv
001b19a0 W _ZNKSt7__cxx118time_getIwSt19istreambuf_iteratorIwSt11char_traitsIwEEE13get_monthnameES4_S4_RSt8ios_baseRSt12_Ios_IostateP2tm
001b2470 W _ZNKSt7__cxx118time_getIwSt19istreambuf_iteratorIwSt11char_traitsIwEEE14do_get_weekdayES4_S4_RSt8ios_baseRSt12_Ios_IostateP2tm
001b1a60 W _ZNKSt7__cxx118time_getIwSt19istreambuf_iteratorIwSt11char_traitsIwEEE14_M_extract_numES4_S4_RiiijRSt8ios_baseRSt12_Ios_Iostate
001b37b0 W _ZNKSt7__cxx118time_getIwSt19istreambuf_iteratorIwSt11char_traitsIwEEE15_M_extract_nameES4_S4_RiPPKwjRSt8ios_baseRSt12_Ios_Iostate
001b26f0 W _ZNKSt7__cxx118time_getIwSt19istreambuf_iteratorIwSt11char_traitsIwEEE16do_get_monthnameES4_S4_RSt8ios_baseRSt12_Ios_IostateP2tm
001b4070 W _ZNKSt7__cxx118time_getIwSt19istreambuf_iteratorIwSt11char_traitsIwEEE21_M_extract_via_formatES4_S4_RSt8ios_baseRSt12_Ios_IostateP2tmPKw
001b1ed0 W _ZNKSt7__cxx118time_getIwSt19istreambuf_iteratorIwSt11char_traitsIwEEE24_M_extract_wday_or_monthES4_S4_RiPPKwjRSt8ios_baseRSt12_Ios_Iostate
001b5a40 W _ZNKSt7__cxx118time_getIwSt19istreambuf_iteratorIwSt11char_traitsIwEEE3getES4_S4_RSt8ios_baseRSt12_Ios_IostateP2tmcc
001b51b0 W _ZNKSt7__cxx118time_getIwSt19istreambuf_iteratorIwSt11char_traitsIwEEE3getES4_S4_RSt8ios_baseRSt12_Ios_IostateP2tmPKwSD_
001b4f60 W _ZNKSt7__cxx118time_getIwSt19istreambuf_iteratorIwSt11char_traitsIwEEE6do_getES4_S4_RSt8ios_baseRSt12_Ios_IostateP2tmcc
001b18e0 W _ZNKSt7__cxx118time_getIwSt19istreambuf_iteratorIwSt11char_traitsIwEEE8get_dateES4_S4_RSt8ios_baseRSt12_Ios_IostateP2tm
001b1880 W _ZNKSt7__cxx118time_getIwSt19istreambuf_iteratorIwSt11char_traitsIwEEE8get_timeES4_S4_RSt8ios_baseRSt12_Ios_IostateP2tm
001b1a00 W _ZNKSt7__cxx118time_getIwSt19istreambuf_iteratorIwSt11char_traitsIwEEE8get_yearES4_S4_RSt8ios_baseRSt12_Ios_IostateP2tm
001c0790 W _ZNKSt7__cxx119money_getIcSt19istreambuf_iteratorIcSt11char_traitsIcEEE10_M_extractILb0EEES4_S4_S4_RSt8ios_baseRSt12_Ios_IostateRNS_12basic_stringIcS3_SaIcEEE
001bf280 W _ZNKSt7__cxx119money_getIcSt19istreambuf_iteratorIcSt11char_traitsIcEEE10_M_extractILb1EEES4_S4_S4_RSt8ios_baseRSt12_Ios_IostateRNS_12basic_stringIcS3_SaIcEEE
001bf0c0 W _ZNKSt7__cxx119money_getIcSt19istreambuf_iteratorIcSt11char_traitsIcEEE3getES4_S4_bRSt8ios_baseRSt12_Ios_IostateRe
001bf120 W _ZNKSt7__cxx119money_getIcSt19istreambuf_iteratorIcSt11char_traitsIcEEE3getES4_S4_bRSt8ios_baseRSt12_Ios_IostateRNS_12basic_stringIcS3_SaIcEEE
001c1ca0 W _ZNKSt7__cxx119money_getIcSt19istreambuf_iteratorIcSt11char_traitsIcEEE6do_getES4_S4_bRSt8ios_baseRSt12_Ios_IostateRe
001c1dd0 W _ZNKSt7__cxx119money_getIcSt19istreambuf_iteratorIcSt11char_traitsIcEEE6do_getES4_S4_bRSt8ios_baseRSt12_Ios_IostateRNS_12basic_stringIcS3_SaIcEEE
001b7020 W _ZNKSt7__cxx119money_getIwSt19istreambuf_iteratorIwSt11char_traitsIwEEE10_M_extractILb0EEES4_S4_S4_RSt8ios_baseRSt12_Ios_IostateRNS_12basic_stringIcS2_IcESaIcEEE
001b5cd0 W _ZNKSt7__cxx119money_getIwSt19istreambuf_iteratorIwSt11char_traitsIwEEE10_M_extractILb1EEES4_S4_S4_RSt8ios_baseRSt12_Ios_IostateRNS_12basic_stringIcS2_IcESaIcEEE
001afe50 W _ZNKSt7__cxx119money_getIwSt19istreambuf_iteratorIwSt11char_traitsIwEEE3getES4_S4_bRSt8ios_baseRSt12_Ios_IostateRe
001afeb0 W _ZNKSt7__cxx119money_getIwSt19istreambuf_iteratorIwSt11char_traitsIwEEE3getES4_S4_bRSt8ios_baseRSt12_Ios_IostateRNS_12basic_stringIwS3_SaIwEEE
001b8370 W _ZNKSt7__cxx119money_getIwSt19istreambuf_iteratorIwSt11char_traitsIwEEE6do_getES4_S4_bRSt8ios_baseRSt12_Ios_IostateRe
001b84a0 W _ZNKSt7__cxx119money_getIwSt19istreambuf_iteratorIwSt11char_traitsIwEEE6do_getES4_S4_bRSt8ios_baseRSt12_Ios_IostateRNS_12basic_stringIwS3_SaIwEEE
001bf1b0 W _ZNKSt7__cxx119money_putIcSt19ostreambuf_iteratorIcSt11char_traitsIcEEE3putES4_bRSt8ios_basece
001bf220 W _ZNKSt7__cxx119money_putIcSt19ostreambuf_iteratorIcSt11char_traitsIcEEE3putES4_bRSt8ios_basecRKNS_12basic_stringIcS3_SaIcEEE
001c2da0 W _ZNKSt7__cxx119money_putIcSt19ostreambuf_iteratorIcSt11char_traitsIcEEE6do_putES4_bRSt8ios_basece
001c2fc0 W _ZNKSt7__cxx119money_putIcSt19ostreambuf_iteratorIcSt11char_traitsIcEEE6do_putES4_bRSt8ios_basecRKNS_12basic_stringIcS3_SaIcEEE
001c2690 W _ZNKSt7__cxx119money_putIcSt19ostreambuf_iteratorIcSt11char_traitsIcEEE9_M_insertILb0EEES4_S4_RSt8ios_basecRKNS_12basic_stringIcS3_SaIcEEE
001c1f80 W _ZNKSt7__cxx119money_putIcSt19ostreambuf_iteratorIcSt11char_traitsIcEEE9_M_insertILb1EEES4_S4_RSt8ios_basecRKNS_12basic_stringIcS3_SaIcEEE
001aff40 W _ZNKSt7__cxx119money_putIwSt19ostreambuf_iteratorIwSt11char_traitsIwEEE3putES4_bRSt8ios_basewe
001affa0 W _ZNKSt7__cxx119money_putIwSt19ostreambuf_iteratorIwSt11char_traitsIwEEE3putES4_bRSt8ios_basewRKNS_12basic_stringIwS3_SaIwEEE
001b0fb0 W _ZNKSt7__cxx119money_putIwSt19ostreambuf_iteratorIwSt11char_traitsIwEEE6do_putES4_bRSt8ios_basewe
001b1170 W _ZNKSt7__cxx119money_putIwSt19ostreambuf_iteratorIwSt11char_traitsIwEEE6do_putES4_bRSt8ios_basewRKNS_12basic_stringIwS3_SaIwEEE
001b0810 W _ZNKSt7__cxx119money_putIwSt19ostreambuf_iteratorIwSt11char_traitsIwEEE9_M_insertILb0EEES4_S4_RSt8ios_basewRKNS_12basic_stringIwS3_SaIwEEE
001b0000 W _ZNKSt7__cxx119money_putIwSt19ostreambuf_iteratorIwSt11char_traitsIwEEE9_M_insertILb1EEES4_S4_RSt8ios_basewRKNS_12basic_stringIwS3_SaIwEEE
001c9670 W _ZNKSt7num_getIcSt19istreambuf_iteratorIcSt11char_traitsIcEEE14_M_extract_intB5cxx11IjEES3_S3_S3_RSt8ios_baseRSt12_Ios_IostateRT_
001c7c70 W _ZNKSt7num_getIcSt19istreambuf_iteratorIcSt11char_traitsIcEEE14_M_extract_intB5cxx11IlEES3_S3_S3_RSt8ios_baseRSt12_Ios_IostateRT_
001ca3c0 W _ZNKSt7num_getIcSt19istreambuf_iteratorIcSt11char_traitsIcEEE14_M_extract_intB5cxx11ImEES3_S3_S3_RSt8ios_baseRSt12_Ios_IostateRT_
001c88d0 W _ZNKSt7num_getIcSt19istreambuf_iteratorIcSt11char_traitsIcEEE14_M_extract_intB5cxx11ItEES3_S3_S3_RSt8ios_baseRSt12_Ios_IostateRT_
001cb110 W _ZNKSt7num_getIcSt19istreambuf_iteratorIcSt11char_traitsIcEEE14_M_extract_intB5cxx11IxEES3_S3_S3_RSt8ios_baseRSt12_Ios_IostateRT_
001cbed0 W _ZNKSt7num_getIcSt19istreambuf_iteratorIcSt11char_traitsIcEEE14_M_extract_intB5cxx11IyEES3_S3_S3_RSt8ios_baseRSt12_Ios_IostateRT_
001a1190 W _ZNKSt7num_getIcSt19istreambuf_iteratorIcSt11char_traitsIcEEE14_M_extract_intIjEES3_S3_S3_RSt8ios_baseRSt12_Ios_IostateRT_
0019f8a0 W _ZNKSt7num_getIcSt19istreambuf_iteratorIcSt11char_traitsIcEEE14_M_extract_intIlEES3_S3_S3_RSt8ios_baseRSt12_Ios_IostateRT_
001a1be0 W _ZNKSt7num_getIcSt19istreambuf_iteratorIcSt11char_traitsIcEEE14_M_extract_intImEES3_S3_S3_RSt8ios_baseRSt12_Ios_IostateRT_
001a0730 W _ZNKSt7num_getIcSt19istreambuf_iteratorIcSt11char_traitsIcEEE14_M_extract_intItEES3_S3_S3_RSt8ios_baseRSt12_Ios_IostateRT_
001a26e0 W _ZNKSt7num_getIcSt19istreambuf_iteratorIcSt11char_traitsIcEEE14_M_extract_intIxEES3_S3_S3_RSt8ios_baseRSt12_Ios_IostateRT_
001a3220 W _ZNKSt7num_getIcSt19istreambuf_iteratorIcSt11char_traitsIcEEE14_M_extract_intIyEES3_S3_S3_RSt8ios_baseRSt12_Ios_IostateRT_
0019eed0 W _ZNKSt7num_getIcSt19istreambuf_iteratorIcSt11char_traitsIcEEE16_M_extract_floatES3_S3_RSt8ios_baseRSt12_Ios_IostateRSs
001980a0 W _ZNKSt7num_getIcSt19istreambuf_iteratorIcSt11char_traitsIcEEE3getES3_S3_RSt8ios_baseRSt12_Ios_IostateRb
00198160 W _ZNKSt7num_getIcSt19istreambuf_iteratorIcSt11char_traitsIcEEE3getES3_S3_RSt8ios_baseRSt12_Ios_IostateRd
001981c0 W _ZNKSt7num_getIcSt19istreambuf_iteratorIcSt11char_traitsIcEEE3getES3_S3_RSt8ios_baseRSt12_Ios_IostateRe
00198100 W _ZNKSt7num_getIcSt19istreambuf_iteratorIcSt11char_traitsIcEEE3getES3_S3_RSt8ios_baseRSt12_Ios_IostateRf
001a1b30 W _ZNKSt7num_getIcSt19istreambuf_iteratorIcSt11char_traitsIcEEE3getES3_S3_RSt8ios_baseRSt12_Ios_IostateRj
001a0680 W _ZNKSt7num_getIcSt19istreambuf_iteratorIcSt11char_traitsIcEEE3getES3_S3_RSt8ios_baseRSt12_Ios_IostateRl
001a2630 W _ZNKSt7num_getIcSt19istreambuf_iteratorIcSt11char_traitsIcEEE3getES3_S3_RSt8ios_baseRSt12_Ios_IostateRm
00198220 W _ZNKSt7num_getIcSt19istreambuf_iteratorIcSt11char_traitsIcEEE3getES3_S3_RSt8ios_baseRSt12_Ios_IostateRPv
001a10e0 W _ZNKSt7num_getIcSt19istreambuf_iteratorIcSt11char_traitsIcEEE3getES3_S3_RSt8ios_baseRSt12_Ios_IostateRt
001a3170 W _ZNKSt7num_getIcSt19istreambuf_iteratorIcSt11char_traitsIcEEE3getES3_S3_RSt8ios_baseRSt12_Ios_IostateRx
001a3c90 W _ZNKSt7num_getIcSt19istreambuf_iteratorIcSt11char_traitsIcEEE3getES3_S3_RSt8ios_baseRSt12_Ios_IostateRy
001a01d0 W _ZNKSt7num_getIcSt19istreambuf_iteratorIcSt11char_traitsIcEEE6do_getES3_S3_RSt8ios_baseRSt12_Ios_IostateRb
001a7e60 W _ZNKSt7num_getIcSt19istreambuf_iteratorIcSt11char_traitsIcEEE6do_getES3_S3_RSt8ios_baseRSt12_Ios_IostateRd
001a7f90 W _ZNKSt7num_getIcSt19istreambuf_iteratorIcSt11char_traitsIcEEE6do_getES3_S3_RSt8ios_baseRSt12_Ios_IostateRe
001a7d30 W _ZNKSt7num_getIcSt19istreambuf_iteratorIcSt11char_traitsIcEEE6do_getES3_S3_RSt8ios_baseRSt12_Ios_IostateRf
001a1ac0 W _ZNKSt7num_getIcSt19istreambuf_iteratorIcSt11char_traitsIcEEE6do_getES3_S3_RSt8ios_baseRSt12_Ios_IostateRj
001a0610 W _ZNKSt7num_getIcSt19istreambuf_iteratorIcSt11char_traitsIcEEE6do_getES3_S3_RSt8ios_baseRSt12_Ios_IostateRl
001a2510 W _ZNKSt7num_getIcSt19istreambuf_iteratorIcSt11char_traitsIcEEE6do_getES3_S3_RSt8ios_baseRSt12_Ios_IostateRm
001a2580 W _ZNKSt7num_getIcSt19istreambuf_iteratorIcSt11char_traitsIcEEE6do_getES3_S3_RSt8ios_baseRSt12_Ios_IostateRPv
001a1070 W _ZNKSt7num_getIcSt19istreambuf_iteratorIcSt11char_traitsIcEEE6do_getES3_S3_RSt8ios_baseRSt12_Ios_IostateRt
001a3100 W _ZNKSt7num_getIcSt19istreambuf_iteratorIcSt11char_traitsIcEEE6do_getES3_S3_RSt8ios_baseRSt12_Ios_IostateRx
001a3c20 W _ZNKSt7num_getIcSt19istreambuf_iteratorIcSt11char_traitsIcEEE6do_getES3_S3_RSt8ios_baseRSt12_Ios_IostateRy
001b9f50 W _ZNKSt7num_getIwSt19istreambuf_iteratorIwSt11char_traitsIwEEE14_M_extract_intB5cxx11IjEES3_S3_S3_RSt8ios_baseRSt12_Ios_IostateRT_
001b8600 W _ZNKSt7num_getIwSt19istreambuf_iteratorIwSt11char_traitsIwEEE14_M_extract_intB5cxx11IlEES3_S3_S3_RSt8ios_baseRSt12_Ios_IostateRT_
001babf0 W _ZNKSt7num_getIwSt19istreambuf_iteratorIwSt11char_traitsIwEEE14_M_extract_intB5cxx11ImEES3_S3_S3_RSt8ios_baseRSt12_Ios_IostateRT_
001b92a0 W _ZNKSt7num_getIwSt19istreambuf_iteratorIwSt11char_traitsIwEEE14_M_extract_intB5cxx11ItEES3_S3_S3_RSt8ios_baseRSt12_Ios_IostateRT_
001bb890 W _ZNKSt7num_getIwSt19istreambuf_iteratorIwSt11char_traitsIwEEE14_M_extract_intB5cxx11IxEES3_S3_S3_RSt8ios_baseRSt12_Ios_IostateRT_
001bc640 W _ZNKSt7num_getIwSt19istreambuf_iteratorIwSt11char_traitsIwEEE14_M_extract_intB5cxx11IyEES3_S3_S3_RSt8ios_baseRSt12_Ios_IostateRT_
001fd310 W _ZNKSt7num_getIwSt19istreambuf_iteratorIwSt11char_traitsIwEEE14_M_extract_intIjEES3_S3_S3_RSt8ios_baseRSt12_Ios_IostateRT_
001fba70 W _ZNKSt7num_getIwSt19istreambuf_iteratorIwSt11char_traitsIwEEE14_M_extract_intIlEES3_S3_S3_RSt8ios_baseRSt12_Ios_IostateRT_
001fdd10 W _ZNKSt7num_getIwSt19istreambuf_iteratorIwSt11char_traitsIwEEE14_M_extract_intImEES3_S3_S3_RSt8ios_baseRSt12_Ios_IostateRT_
001fc900 W _ZNKSt7num_getIwSt19istreambuf_iteratorIwSt11char_traitsIwEEE14_M_extract_intItEES3_S3_S3_RSt8ios_baseRSt12_Ios_IostateRT_
001fe7c0 W _ZNKSt7num_getIwSt19istreambuf_iteratorIwSt11char_traitsIwEEE14_M_extract_intIxEES3_S3_S3_RSt8ios_baseRSt12_Ios_IostateRT_
001ff2f0 W _ZNKSt7num_getIwSt19istreambuf_iteratorIwSt11char_traitsIwEEE14_M_extract_intIyEES3_S3_S3_RSt8ios_baseRSt12_Ios_IostateRT_
001ffe20 W _ZNKSt7num_getIwSt19istreambuf_iteratorIwSt11char_traitsIwEEE16_M_extract_floatES3_S3_RSt8ios_baseRSt12_Ios_IostateRSs
001f5150 W _ZNKSt7num_getIwSt19istreambuf_iteratorIwSt11char_traitsIwEEE3getES3_S3_RSt8ios_baseRSt12_Ios_IostateRb
001f5210 W _ZNKSt7num_getIwSt19istreambuf_iteratorIwSt11char_traitsIwEEE3getES3_S3_RSt8ios_baseRSt12_Ios_IostateRd
001f5270 W _ZNKSt7num_getIwSt19istreambuf_iteratorIwSt11char_traitsIwEEE3getES3_S3_RSt8ios_baseRSt12_Ios_IostateRe
001f51b0 W _ZNKSt7num_getIwSt19istreambuf_iteratorIwSt11char_traitsIwEEE3getES3_S3_RSt8ios_baseRSt12_Ios_IostateRf
001fdc60 W _ZNKSt7num_getIwSt19istreambuf_iteratorIwSt11char_traitsIwEEE3getES3_S3_RSt8ios_baseRSt12_Ios_IostateRj
001fc850 W _ZNKSt7num_getIwSt19istreambuf_iteratorIwSt11char_traitsIwEEE3getES3_S3_RSt8ios_baseRSt12_Ios_IostateRl
001fe710 W _ZNKSt7num_getIwSt19istreambuf_iteratorIwSt11char_traitsIwEEE3getES3_S3_RSt8ios_baseRSt12_Ios_IostateRm
001f52d0 W _ZNKSt7num_getIwSt19istreambuf_iteratorIwSt11char_traitsIwEEE3getES3_S3_RSt8ios_baseRSt12_Ios_IostateRPv
001fd260 W _ZNKSt7num_getIwSt19istreambuf_iteratorIwSt11char_traitsIwEEE3getES3_S3_RSt8ios_baseRSt12_Ios_IostateRt
001ff240 W _ZNKSt7num_getIwSt19istreambuf_iteratorIwSt11char_traitsIwEEE3getES3_S3_RSt8ios_baseRSt12_Ios_IostateRx
001ffd70 W _ZNKSt7num_getIwSt19istreambuf_iteratorIwSt11char_traitsIwEEE3getES3_S3_RSt8ios_baseRSt12_Ios_IostateRy
001fc370 W _ZNKSt7num_getIwSt19istreambuf_iteratorIwSt11char_traitsIwEEE6do_getES3_S3_RSt8ios_baseRSt12_Ios_IostateRb
00204490 W _ZNKSt7num_getIwSt19istreambuf_iteratorIwSt11char_traitsIwEEE6do_getES3_S3_RSt8ios_baseRSt12_Ios_IostateRd
002045c0 W _ZNKSt7num_getIwSt19istreambuf_iteratorIwSt11char_traitsIwEEE6do_getES3_S3_RSt8ios_baseRSt12_Ios_IostateRe
00204360 W _ZNKSt7num_getIwSt19istreambuf_iteratorIwSt11char_traitsIwEEE6do_getES3_S3_RSt8ios_baseRSt12_Ios_IostateRf
001fdbf0 W _ZNKSt7num_getIwSt19istreambuf_iteratorIwSt11char_traitsIwEEE6do_getES3_S3_RSt8ios_baseRSt12_Ios_IostateRj
001fc7e0 W _ZNKSt7num_getIwSt19istreambuf_iteratorIwSt11char_traitsIwEEE6do_getES3_S3_RSt8ios_baseRSt12_Ios_IostateRl
001fe5f0 W _ZNKSt7num_getIwSt19istreambuf_iteratorIwSt11char_traitsIwEEE6do_getES3_S3_RSt8ios_baseRSt12_Ios_IostateRm
001fe660 W _ZNKSt7num_getIwSt19istreambuf_iteratorIwSt11char_traitsIwEEE6do_getES3_S3_RSt8ios_baseRSt12_Ios_IostateRPv
001fd1f0 W _ZNKSt7num_getIwSt19istreambuf_iteratorIwSt11char_traitsIwEEE6do_getES3_S3_RSt8ios_baseRSt12_Ios_IostateRt
001ff1d0 W _ZNKSt7num_getIwSt19istreambuf_iteratorIwSt11char_traitsIwEEE6do_getES3_S3_RSt8ios_baseRSt12_Ios_IostateRx
001ffd00 W _ZNKSt7num_getIwSt19istreambuf_iteratorIwSt11char_traitsIwEEE6do_getES3_S3_RSt8ios_baseRSt12_Ios_IostateRy
0019ba20 W _ZNKSt7num_putIcSt19ostreambuf_iteratorIcSt11char_traitsIcEEE12_M_group_intEPKcjcRSt8ios_basePcS9_Ri
0019cf90 W _ZNKSt7num_putIcSt19ostreambuf_iteratorIcSt11char_traitsIcEEE13_M_insert_intIlEES3_S3_RSt8ios_basecT_
0019d4e0 W _ZNKSt7num_putIcSt19ostreambuf_iteratorIcSt11char_traitsIcEEE13_M_insert_intImEES3_S3_RSt8ios_basecT_
0019d890 W _ZNKSt7num_putIcSt19ostreambuf_iteratorIcSt11char_traitsIcEEE13_M_insert_intIxEES3_S3_RSt8ios_basecT_
0019dc40 W _ZNKSt7num_putIcSt19ostreambuf_iteratorIcSt11char_traitsIcEEE13_M_insert_intIyEES3_S3_RSt8ios_basecT_
0019b970 W _ZNKSt7num_putIcSt19ostreambuf_iteratorIcSt11char_traitsIcEEE14_M_group_floatEPKcjcS6_PcS7_Ri
0019df80 W _ZNKSt7num_putIcSt19ostreambuf_iteratorIcSt11char_traitsIcEEE15_M_insert_floatIdEES3_S3_RSt8ios_baseccT_
0019e390 W _ZNKSt7num_putIcSt19ostreambuf_iteratorIcSt11char_traitsIcEEE15_M_insert_floatIeEES3_S3_RSt8ios_baseccT_
001982b0 W _ZNKSt7num_putIcSt19ostreambuf_iteratorIcSt11char_traitsIcEEE3putES3_RSt8ios_basecb
00198310 W _ZNKSt7num_putIcSt19ostreambuf_iteratorIcSt11char_traitsIcEEE3putES3_RSt8ios_basecd
00198370 W _ZNKSt7num_putIcSt19ostreambuf_iteratorIcSt11char_traitsIcEEE3putES3_RSt8ios_basece
0019d250 W _ZNKSt7num_putIcSt19ostreambuf_iteratorIcSt11char_traitsIcEEE3putES3_RSt8ios_basecl
0019d800 W _ZNKSt7num_putIcSt19ostreambuf_iteratorIcSt11char_traitsIcEEE3putES3_RSt8ios_basecm
001983d0 W _ZNKSt7num_putIcSt19ostreambuf_iteratorIcSt11char_traitsIcEEE3putES3_RSt8ios_basecPKv
0019dba0 W _ZNKSt7num_putIcSt19ostreambuf_iteratorIcSt11char_traitsIcEEE3putES3_RSt8ios_basecx
0019dee0 W _ZNKSt7num_putIcSt19ostreambuf_iteratorIcSt11char_traitsIcEEE3putES3_RSt8ios_basecy
0019d2e0 W _ZNKSt7num_putIcSt19ostreambuf_iteratorIcSt11char_traitsIcEEE6do_putES3_RSt8ios_basecb
0019e320 W _ZNKSt7num_putIcSt19ostreambuf_iteratorIcSt11char_traitsIcEEE6do_putES3_RSt8ios_basecd
0019e740 W _ZNKSt7num_putIcSt19ostreambuf_iteratorIcSt11char_traitsIcEEE6do_putES3_RSt8ios_basece
0019d1f0 W _ZNKSt7num_putIcSt19ostreambuf_iteratorIcSt11char_traitsIcEEE6do_putES3_RSt8ios_basecl
0019d6f0 W _ZNKSt7num_putIcSt19ostreambuf_iteratorIcSt11char_traitsIcEEE6do_putES3_RSt8ios_basecm
0019d750 W _ZNKSt7num_putIcSt19ostreambuf_iteratorIcSt11char_traitsIcEEE6do_putES3_RSt8ios_basecPKv
0019db30 W _ZNKSt7num_putIcSt19ostreambuf_iteratorIcSt11char_traitsIcEEE6do_putES3_RSt8ios_basecx
0019de70 W _ZNKSt7num_putIcSt19ostreambuf_iteratorIcSt11char_traitsIcEEE6do_putES3_RSt8ios_basecy
0019bcd0 W _ZNKSt7num_putIcSt19ostreambuf_iteratorIcSt11char_traitsIcEEE6_M_padEciRSt8ios_basePcPKcRi
001f8930 W _ZNKSt7num_putIwSt19ostreambuf_iteratorIwSt11char_traitsIwEEE12_M_group_intEPKcjwRSt8ios_basePwS9_Ri
001f9c40 W _ZNKSt7num_putIwSt19ostreambuf_iteratorIwSt11char_traitsIwEEE13_M_insert_intIlEES3_S3_RSt8ios_basewT_
001fa180 W _ZNKSt7num_putIwSt19ostreambuf_iteratorIwSt11char_traitsIwEEE13_M_insert_intImEES3_S3_RSt8ios_basewT_
001fa550 W _ZNKSt7num_putIwSt19ostreambuf_iteratorIwSt11char_traitsIwEEE13_M_insert_intIxEES3_S3_RSt8ios_basewT_
001fa900 W _ZNKSt7num_putIwSt19ostreambuf_iteratorIwSt11char_traitsIwEEE13_M_insert_intIyEES3_S3_RSt8ios_basewT_
001f8870 W _ZNKSt7num_putIwSt19ostreambuf_iteratorIwSt11char_traitsIwEEE14_M_group_floatEPKcjwPKwPwS9_Ri
001fac40 W _ZNKSt7num_putIwSt19ostreambuf_iteratorIwSt11char_traitsIwEEE15_M_insert_floatIdEES3_S3_RSt8ios_basewcT_
001fb050 W _ZNKSt7num_putIwSt19ostreambuf_iteratorIwSt11char_traitsIwEEE15_M_insert_floatIeEES3_S3_RSt8ios_basewcT_
001f5360 W _ZNKSt7num_putIwSt19ostreambuf_iteratorIwSt11char_traitsIwEEE3putES3_RSt8ios_basewb
001f53c0 W _ZNKSt7num_putIwSt19ostreambuf_iteratorIwSt11char_traitsIwEEE3putES3_RSt8ios_basewd
001f5420 W _ZNKSt7num_putIwSt19ostreambuf_iteratorIwSt11char_traitsIwEEE3putES3_RSt8ios_basewe
001f9ef0 W _ZNKSt7num_putIwSt19ostreambuf_iteratorIwSt11char_traitsIwEEE3putES3_RSt8ios_basewl
001fa4b0 W _ZNKSt7num_putIwSt19ostreambuf_iteratorIwSt11char_traitsIwEEE3putES3_RSt8ios_basewm
001f5480 W _ZNKSt7num_putIwSt19ostreambuf_iteratorIwSt11char_traitsIwEEE3putES3_RSt8ios_basewPKv
001fa860 W _ZNKSt7num_putIwSt19ostreambuf_iteratorIwSt11char_traitsIwEEE3putES3_RSt8ios_basewx
001faba0 W _ZNKSt7num_putIwSt19ostreambuf_iteratorIwSt11char_traitsIwEEE3putES3_RSt8ios_basewy
001f9f90 W _ZNKSt7num_putIwSt19ostreambuf_iteratorIwSt11char_traitsIwEEE6do_putES3_RSt8ios_basewb
001fafe0 W _ZNKSt7num_putIwSt19ostreambuf_iteratorIwSt11char_traitsIwEEE6do_putES3_RSt8ios_basewd
001fb400 W _ZNKSt7num_putIwSt19ostreambuf_iteratorIwSt11char_traitsIwEEE6do_putES3_RSt8ios_basewe
001f9e90 W _ZNKSt7num_putIwSt19ostreambuf_iteratorIwSt11char_traitsIwEEE6do_putES3_RSt8ios_basewl
001fa3a0 W _ZNKSt7num_putIwSt19ostreambuf_iteratorIwSt11char_traitsIwEEE6do_putES3_RSt8ios_basewm
001fa400 W _ZNKSt7num_putIwSt19ostreambuf_iteratorIwSt11char_traitsIwEEE6do_putES3_RSt8ios_basewPKv
001fa7f0 W _ZNKSt7num_putIwSt19ostreambuf_iteratorIwSt11char_traitsIwEEE6do_putES3_RSt8ios_basewx
001fab30 W _ZNKSt7num_putIwSt19ostreambuf_iteratorIwSt11char_traitsIwEEE6do_putES3_RSt8ios_basewy
001f8b40 W _ZNKSt7num_putIwSt19ostreambuf_iteratorIwSt11char_traitsIwEEE6_M_padEwiRSt8ios_basePwPKwRi
00214930 T _ZNKSt8bad_cast4whatEv
00223020 T _ZNKSt8ios_base7failureB5cxx114whatEv
00198fa0 W _ZNKSt8messagesIcE18_M_convert_to_charERKSs
00198fb0 W _ZNKSt8messagesIcE20_M_convert_from_charEPc
00198f30 W _ZNKSt8messagesIcE3getEiiiRKSs
00198ed0 W _ZNKSt8messagesIcE4openERKSsRKSt6locale
00198ef0 W _ZNKSt8messagesIcE4openERKSsRKSt6localePKc
00198f80 W _ZNKSt8messagesIcE5closeEi
00218910 T _ZNKSt8messagesIcE6do_getEiiiRKSs
00218570 T _ZNKSt8messagesIcE7do_openERKSsRKSt6locale
00218ea0 T _ZNKSt8messagesIcE8do_closeEi
001f6050 W _ZNKSt8messagesIwE18_M_convert_to_charERKSbIwSt11char_traitsIwESaIwEE
001f6060 W _ZNKSt8messagesIwE20_M_convert_from_charEPc
001f5fe0 W _ZNKSt8messagesIwE3getEiiiRKSbIwSt11char_traitsIwESaIwEE
001f5f80 W _ZNKSt8messagesIwE4openERKSsRKSt6locale
001f5fa0 W _ZNKSt8messagesIwE4openERKSsRKSt6localePKc
001f6030 W _ZNKSt8messagesIwE5closeEi
00219120 T _ZNKSt8messagesIwE6do_getEiiiRKSbIwSt11char_traitsIwESaIwEE
00218b00 T _ZNKSt8messagesIwE7do_openERKSsRKSt6locale
00218ea0 T _ZNKSt8messagesIwE8do_closeEi
001960f0 W _ZNKSt8numpunctIcE11do_groupingEv
00196150 W _ZNKSt8numpunctIcE11do_truenameEv
001961b0 W _ZNKSt8numpunctIcE12do_falsenameEv
00197c70 W _ZNKSt8numpunctIcE13decimal_pointEv
00197cb0 W _ZNKSt8numpunctIcE13thousands_sepEv
00195690 W _ZNKSt8numpunctIcE16do_decimal_pointEv
001956a0 W _ZNKSt8numpunctIcE16do_thousands_sepEv
00197cf0 W _ZNKSt8numpunctIcE8groupingEv
00197d70 W _ZNKSt8numpunctIcE8truenameEv
00197df0 W _ZNKSt8numpunctIcE9falsenameEv
001f2fc0 W _ZNKSt8numpunctIwE11do_groupingEv
001f3260 W _ZNKSt8numpunctIwE11do_truenameEv
001f32c0 W _ZNKSt8numpunctIwE12do_falsenameEv
001f4d20 W _ZNKSt8numpunctIwE13decimal_pointEv
001f4d60 W _ZNKSt8numpunctIwE13thousands_sepEv
001f27d0 W _ZNKSt8numpunctIwE16do_decimal_pointEv
001f27e0 W _ZNKSt8numpunctIwE16do_thousands_sepEv
001f4da0 W _ZNKSt8numpunctIwE8groupingEv
001f4e20 W _ZNKSt8numpunctIwE8truenameEv
001f4ea0 W _ZNKSt8numpunctIwE9falsenameEv
0010d314 W _ZNKSt8_Rb_treeItSt4pairIKtKNSt7__cxx1112basic_stringIcSt11char_traitsIcESaIcEEEESt10_Select1stIS9_ESt4lessItESaIS9_EE11_Alloc_nodeclIRKS9_EEPSt13_Rb_tree_nodeIS9_EOT_
00107d46 W _ZNKSt8_Rb_treeItSt4pairIKtKNSt7__cxx1112basic_stringIcSt11char_traitsIcESaIcEEEESt10_Select1stIS9_ESt4lessItESaIS9_EE14_M_lower_boundEPKSt13_Rb_tree_nodeIS9_ESJ_RS1_
00105222 W _ZNKSt8_Rb_treeItSt4pairIKtKNSt7__cxx1112basic_stringIcSt11char_traitsIcESaIcEEEESt10_Select1stIS9_ESt4lessItESaIS9_EE3endEv
00105128 W _ZNKSt8_Rb_treeItSt4pairIKtKNSt7__cxx1112basic_stringIcSt11char_traitsIcESaIcEEEESt10_Select1stIS9_ESt4lessItESaIS9_EE4findERS1_
0010d0e6 W _ZNKSt8_Rb_treeItSt4pairIKtKNSt7__cxx1112basic_stringIcSt11char_traitsIcESaIcEEEESt10_Select1stIS9_ESt4lessItESaIS9_EE4sizeEv
00107d3a W _ZNKSt8_Rb_treeItSt4pairIKtKNSt7__cxx1112basic_stringIcSt11char_traitsIcESaIcEEEESt10_Select1stIS9_ESt4lessItESaIS9_EE6_M_endEv
00107d2e W _ZNKSt8_Rb_treeItSt4pairIKtKNSt7__cxx1112basic_stringIcSt11char_traitsIcESaIcEEEESt10_Select1stIS9_ESt4lessItESaIS9_EE8_M_beginEv
0010d02e W _ZNKSt8_Rb_treeItSt4pairIKtNSt7__cxx1112basic_stringIcSt11char_traitsIcESaIcEEEESt10_Select1stIS8_ESt4lessItESaIS8_EE11_Alloc_nodeclIRKS8_EEPSt13_Rb_tree_nodeIS8_EOT_
00107c1c W _ZNKSt8_Rb_treeItSt4pairIKtNSt7__cxx1112basic_stringIcSt11char_traitsIcESaIcEEEESt10_Select1stIS8_ESt4lessItESaIS8_EE14_M_lower_boundEPKSt13_Rb_tree_nodeIS8_ESI_RS1_
001050ec W _ZNKSt8_Rb_treeItSt4pairIKtNSt7__cxx1112basic_stringIcSt11char_traitsIcESaIcEEEESt10_Select1stIS8_ESt4lessItESaIS8_EE3endEv
00104ff2 W _ZNKSt8_Rb_treeItSt4pairIKtNSt7__cxx1112basic_stringIcSt11char_traitsIcESaIcEEEESt10_Select1stIS8_ESt4lessItESaIS8_EE4findERS1_
0010ce00 W _ZNKSt8_Rb_treeItSt4pairIKtNSt7__cxx1112basic_stringIcSt11char_traitsIcESaIcEEEESt10_Select1stIS8_ESt4lessItESaIS8_EE4sizeEv
00107c10 W _ZNKSt8_Rb_treeItSt4pairIKtNSt7__cxx1112basic_stringIcSt11char_traitsIcESaIcEEEESt10_Select1stIS8_ESt4lessItESaIS8_EE6_M_endEv
00107c04 W _ZNKSt8_Rb_treeItSt4pairIKtNSt7__cxx1112basic_stringIcSt11char_traitsIcESaIcEEEESt10_Select1stIS8_ESt4lessItESaIS8_EE8_M_beginEv
00198b40 W _ZNKSt8time_getIcSt19istreambuf_iteratorIcSt11char_traitsIcEEE10date_orderEv
001a6ef0 W _ZNKSt8time_getIcSt19istreambuf_iteratorIcSt11char_traitsIcEEE11do_get_dateES3_S3_RSt8ios_baseRSt12_Ios_IostateP2tm
001a6de0 W _ZNKSt8time_getIcSt19istreambuf_iteratorIcSt11char_traitsIcEEE11do_get_timeES3_S3_RSt8ios_baseRSt12_Ios_IostateP2tm
001a3d40 W _ZNKSt8time_getIcSt19istreambuf_iteratorIcSt11char_traitsIcEEE11do_get_yearES3_S3_RSt8ios_baseRSt12_Ios_IostateP2tm
00198c20 W _ZNKSt8time_getIcSt19istreambuf_iteratorIcSt11char_traitsIcEEE11get_weekdayES3_S3_RSt8ios_baseRSt12_Ios_IostateP2tm
001956e0 W _ZNKSt8time_getIcSt19istreambuf_iteratorIcSt11char_traitsIcEEE13do_date_orderEv
00198c80 W _ZNKSt8time_getIcSt19istreambuf_iteratorIcSt11char_traitsIcEEE13get_monthnameES3_S3_RSt8ios_baseRSt12_Ios_IostateP2tm
0019ed00 W _ZNKSt8time_getIcSt19istreambuf_iteratorIcSt11char_traitsIcEEE14do_get_weekdayES3_S3_RSt8ios_baseRSt12_Ios_IostateP2tm
00199950 W _ZNKSt8time_getIcSt19istreambuf_iteratorIcSt11char_traitsIcEEE14_M_extract_numES3_S3_RiiijRSt8ios_baseRSt12_Ios_Iostate
001a3e60 W _ZNKSt8time_getIcSt19istreambuf_iteratorIcSt11char_traitsIcEEE15_M_extract_nameES3_S3_RiPPKcjRSt8ios_baseRSt12_Ios_Iostate
001a60f0 W _ZNKSt8time_getIcSt19istreambuf_iteratorIcSt11char_traitsIcEEE16do_get_monthnameES3_S3_RSt8ios_baseRSt12_Ios_IostateP2tm
001a6390 W _ZNKSt8time_getIcSt19istreambuf_iteratorIcSt11char_traitsIcEEE21_M_extract_via_formatES3_S3_RSt8ios_baseRSt12_Ios_IostateP2tmPKc
0019e900 W _ZNKSt8time_getIcSt19istreambuf_iteratorIcSt11char_traitsIcEEE24_M_extract_wday_or_monthES3_S3_RiPPKcjRSt8ios_baseRSt12_Ios_Iostate
001a71f0 W _ZNKSt8time_getIcSt19istreambuf_iteratorIcSt11char_traitsIcEEE3getES3_S3_RSt8ios_baseRSt12_Ios_IostateP2tmcc
001a7480 W _ZNKSt8time_getIcSt19istreambuf_iteratorIcSt11char_traitsIcEEE3getES3_S3_RSt8ios_baseRSt12_Ios_IostateP2tmPKcSC_
001a7060 W _ZNKSt8time_getIcSt19istreambuf_iteratorIcSt11char_traitsIcEEE6do_getES3_S3_RSt8ios_baseRSt12_Ios_IostateP2tmcc
00198bc0 W _ZNKSt8time_getIcSt19istreambuf_iteratorIcSt11char_traitsIcEEE8get_dateES3_S3_RSt8ios_baseRSt12_Ios_IostateP2tm
00198b60 W _ZNKSt8time_getIcSt19istreambuf_iteratorIcSt11char_traitsIcEEE8get_timeES3_S3_RSt8ios_baseRSt12_Ios_IostateP2tm
00198ce0 W _ZNKSt8time_getIcSt19istreambuf_iteratorIcSt11char_traitsIcEEE8get_yearES3_S3_RSt8ios_baseRSt12_Ios_IostateP2tm
001f5bf0 W _ZNKSt8time_getIwSt19istreambuf_iteratorIwSt11char_traitsIwEEE10date_orderEv
002037a0 W _ZNKSt8time_getIwSt19istreambuf_iteratorIwSt11char_traitsIwEEE11do_get_dateES3_S3_RSt8ios_baseRSt12_Ios_IostateP2tm
002036c0 W _ZNKSt8time_getIwSt19istreambuf_iteratorIwSt11char_traitsIwEEE11do_get_timeES3_S3_RSt8ios_baseRSt12_Ios_IostateP2tm
002007c0 W _ZNKSt8time_getIwSt19istreambuf_iteratorIwSt11char_traitsIwEEE11do_get_yearES3_S3_RSt8ios_baseRSt12_Ios_IostateP2tm
001f5cd0 W _ZNKSt8time_getIwSt19istreambuf_iteratorIwSt11char_traitsIwEEE11get_weekdayES3_S3_RSt8ios_baseRSt12_Ios_IostateP2tm
001f2820 W _ZNKSt8time_getIwSt19istreambuf_iteratorIwSt11char_traitsIwEEE13do_date_orderEv
001f5d30 W _ZNKSt8time_getIwSt19istreambuf_iteratorIwSt11char_traitsIwEEE13get_monthnameES3_S3_RSt8ios_baseRSt12_Ios_IostateP2tm
001fb8a0 W _ZNKSt8time_getIwSt19istreambuf_iteratorIwSt11char_traitsIwEEE14do_get_weekdayES3_S3_RSt8ios_baseRSt12_Ios_IostateP2tm
001f68c0 W _ZNKSt8time_getIwSt19istreambuf_iteratorIwSt11char_traitsIwEEE14_M_extract_numES3_S3_RiiijRSt8ios_baseRSt12_Ios_Iostate
002008e0 W _ZNKSt8time_getIwSt19istreambuf_iteratorIwSt11char_traitsIwEEE15_M_extract_nameES3_S3_RiPPKwjRSt8ios_baseRSt12_Ios_Iostate
00202b50 W _ZNKSt8time_getIwSt19istreambuf_iteratorIwSt11char_traitsIwEEE16do_get_monthnameES3_S3_RSt8ios_baseRSt12_Ios_IostateP2tm
00202df0 W _ZNKSt8time_getIwSt19istreambuf_iteratorIwSt11char_traitsIwEEE21_M_extract_via_formatES3_S3_RSt8ios_baseRSt12_Ios_IostateP2tmPKw
001fb470 W _ZNKSt8time_getIwSt19istreambuf_iteratorIwSt11char_traitsIwEEE24_M_extract_wday_or_monthES3_S3_RiPPKwjRSt8ios_baseRSt12_Ios_Iostate
00204100 W _ZNKSt8time_getIwSt19istreambuf_iteratorIwSt11char_traitsIwEEE3getES3_S3_RSt8ios_baseRSt12_Ios_IostateP2tmcc
002039f0 W _ZNKSt8time_getIwSt19istreambuf_iteratorIwSt11char_traitsIwEEE3getES3_S3_RSt8ios_baseRSt12_Ios_IostateP2tmPKwSC_
00203880 W _ZNKSt8time_getIwSt19istreambuf_iteratorIwSt11char_traitsIwEEE6do_getES3_S3_RSt8ios_baseRSt12_Ios_IostateP2tmcc
001f5c70 W _ZNKSt8time_getIwSt19istreambuf_iteratorIwSt11char_traitsIwEEE8get_dateES3_S3_RSt8ios_baseRSt12_Ios_IostateP2tm
001f5c10 W _ZNKSt8time_getIwSt19istreambuf_iteratorIwSt11char_traitsIwEEE8get_timeES3_S3_RSt8ios_baseRSt12_Ios_IostateP2tm
001f5d90 W _ZNKSt8time_getIwSt19istreambuf_iteratorIwSt11char_traitsIwEEE8get_yearES3_S3_RSt8ios_baseRSt12_Ios_IostateP2tm
00198a50 W _ZNKSt8time_putIcSt19ostreambuf_iteratorIcSt11char_traitsIcEEE3putES3_RSt8ios_basecPK2tmcc
00199600 W _ZNKSt8time_putIcSt19ostreambuf_iteratorIcSt11char_traitsIcEEE3putES3_RSt8ios_basecPK2tmPKcSB_
0019b010 W _ZNKSt8time_putIcSt19ostreambuf_iteratorIcSt11char_traitsIcEEE6do_putES3_RSt8ios_basecPK2tmcc
001f5b00 W _ZNKSt8time_putIwSt19ostreambuf_iteratorIwSt11char_traitsIwEEE3putES3_RSt8ios_basewPK2tmcc
001f66b0 W _ZNKSt8time_putIwSt19ostreambuf_iteratorIwSt11char_traitsIwEEE3putES3_RSt8ios_basewPK2tmPKwSB_
001f7f80 W _ZNKSt8time_putIwSt19ostreambuf_iteratorIwSt11char_traitsIwEEE6do_putES3_RSt8ios_basewPK2tmcc
00214210 T _ZNKSt9bad_alloc4whatEv
001941d0 W _ZNKSt9basic_iosIcSt11char_traitsIcEE10exceptionsEv
001941c0 W _ZNKSt9basic_iosIcSt11char_traitsIcEE3badEv
001941a0 W _ZNKSt9basic_iosIcSt11char_traitsIcEE3eofEv
00194210 W _ZNKSt9basic_iosIcSt11char_traitsIcEE3tieEv
001941b0 W _ZNKSt9basic_iosIcSt11char_traitsIcEE4failEv
00194270 W _ZNKSt9basic_iosIcSt11char_traitsIcEE4fillEv
00194190 W _ZNKSt9basic_iosIcSt11char_traitsIcEE4goodEv
00194230 W _ZNKSt9basic_iosIcSt11char_traitsIcEE5rdbufEv
00194400 W _ZNKSt9basic_iosIcSt11char_traitsIcEE5widenEc
00194370 W _ZNKSt9basic_iosIcSt11char_traitsIcEE6narrowEcc
001940d0 W _ZNKSt9basic_iosIcSt11char_traitsIcEE7rdstateEv
001940b0 W _ZNKSt9basic_iosIcSt11char_traitsIcEEcvbEv
0021bcf0 W _ZNKSt9basic_iosIcSt11char_traitsIcEEcvPvEv
001940c0 W _ZNKSt9basic_iosIcSt11char_traitsIcEEntEv
00194cb0 W _ZNKSt9basic_iosIwSt11char_traitsIwEE10exceptionsEv
00194ca0 W _ZNKSt9basic_iosIwSt11char_traitsIwEE3badEv
00194c80 W _ZNKSt9basic_iosIwSt11char_traitsIwEE3eofEv
00194cf0 W _ZNKSt9basic_iosIwSt11char_traitsIwEE3tieEv
00194c90 W _ZNKSt9basic_iosIwSt11char_traitsIwEE4failEv
00194d50 W _ZNKSt9basic_iosIwSt11char_traitsIwEE4fillEv
00194c70 W _ZNKSt9basic_iosIwSt11char_traitsIwEE4goodEv
00194d10 W _ZNKSt9basic_iosIwSt11char_traitsIwEE5rdbufEv
00194e50 W _ZNKSt9basic_iosIwSt11char_traitsIwEE5widenEc
00194e10 W _ZNKSt9basic_iosIwSt11char_traitsIwEE6narrowEwc
00194bb0 W _ZNKSt9basic_iosIwSt11char_traitsIwEE7rdstateEv
00194b90 W _ZNKSt9basic_iosIwSt11char_traitsIwEEcvbEv
0021bd10 W _ZNKSt9basic_iosIwSt11char_traitsIwEEcvPvEv
00194ba0 W _ZNKSt9basic_iosIwSt11char_traitsIwEEntEv
0018ffb0 T _ZNKSt9exception4whatEv
001a41e0 W _ZNKSt9money_getIcSt19istreambuf_iteratorIcSt11char_traitsIcEEE10_M_extractILb0EEES3_S3_S3_RSt8ios_baseRSt12_Ios_IostateRSs
001a5010 W _ZNKSt9money_getIcSt19istreambuf_iteratorIcSt11char_traitsIcEEE10_M_extractILb1EEES3_S3_S3_RSt8ios_baseRSt12_Ios_IostateRSs
00197920 W _ZNKSt9money_getIcSt19istreambuf_iteratorIcSt11char_traitsIcEEE3getES3_S3_bRSt8ios_baseRSt12_Ios_IostateRe
00197980 W _ZNKSt9money_getIcSt19istreambuf_iteratorIcSt11char_traitsIcEEE3getES3_S3_bRSt8ios_baseRSt12_Ios_IostateRSs
001a5e40 W _ZNKSt9money_getIcSt19istreambuf_iteratorIcSt11char_traitsIcEEE6do_getES3_S3_bRSt8ios_baseRSt12_Ios_IostateRe
001a5f70 W _ZNKSt9money_getIcSt19istreambuf_iteratorIcSt11char_traitsIcEEE6do_getES3_S3_bRSt8ios_baseRSt12_Ios_IostateRSs
00201a90 W _ZNKSt9money_getIwSt19istreambuf_iteratorIwSt11char_traitsIwEEE10_M_extractILb0EEES3_S3_S3_RSt8ios_baseRSt12_Ios_IostateRSs
00200c80 W _ZNKSt9money_getIwSt19istreambuf_iteratorIwSt11char_traitsIwEEE10_M_extractILb1EEES3_S3_S3_RSt8ios_baseRSt12_Ios_IostateRSs
001f49e0 W _ZNKSt9money_getIwSt19istreambuf_iteratorIwSt11char_traitsIwEEE3getES3_S3_bRSt8ios_baseRSt12_Ios_IostateRe
001f4a40 W _ZNKSt9money_getIwSt19istreambuf_iteratorIwSt11char_traitsIwEEE3getES3_S3_bRSt8ios_baseRSt12_Ios_IostateRSbIwS2_SaIwEE
002028a0 W _ZNKSt9money_getIwSt19istreambuf_iteratorIwSt11char_traitsIwEEE6do_getES3_S3_bRSt8ios_baseRSt12_Ios_IostateRe
002029d0 W _ZNKSt9money_getIwSt19istreambuf_iteratorIwSt11char_traitsIwEEE6do_getES3_S3_bRSt8ios_baseRSt12_Ios_IostateRSbIwS2_SaIwEE
00197a10 W _ZNKSt9money_putIcSt19ostreambuf_iteratorIcSt11char_traitsIcEEE3putES3_bRSt8ios_basece
00197a80 W _ZNKSt9money_putIcSt19ostreambuf_iteratorIcSt11char_traitsIcEEE3putES3_bRSt8ios_basecRKSs
0019cc10 W _ZNKSt9money_putIcSt19ostreambuf_iteratorIcSt11char_traitsIcEEE6do_putES3_bRSt8ios_basece
0019cde0 W _ZNKSt9money_putIcSt19ostreambuf_iteratorIcSt11char_traitsIcEEE6do_putES3_bRSt8ios_basecRKSs
0019c6c0 W _ZNKSt9money_putIcSt19ostreambuf_iteratorIcSt11char_traitsIcEEE9_M_insertILb0EEES3_S3_RSt8ios_basecRKSs
0019bff0 W _ZNKSt9money_putIcSt19ostreambuf_iteratorIcSt11char_traitsIcEEE9_M_insertILb1EEES3_S3_RSt8ios_basecRKSs
001f4ad0 W _ZNKSt9money_putIwSt19ostreambuf_iteratorIwSt11char_traitsIwEEE3putES3_bRSt8ios_basewe
001f4b30 W _ZNKSt9money_putIwSt19ostreambuf_iteratorIwSt11char_traitsIwEEE3putES3_bRSt8ios_basewRKSbIwS2_SaIwEE
001f99e0 W _ZNKSt9money_putIwSt19ostreambuf_iteratorIwSt11char_traitsIwEEE6do_putES3_bRSt8ios_basewe
001f9bb0 W _ZNKSt9money_putIwSt19ostreambuf_iteratorIwSt11char_traitsIwEEE6do_putES3_bRSt8ios_basewRKSbIwS2_SaIwEE
001f94c0 W _ZNKSt9money_putIwSt19ostreambuf_iteratorIwSt11char_traitsIwEEE9_M_insertILb0EEES3_S3_RSt8ios_basewRKSbIwS2_SaIwEE
001f8e60 W _ZNKSt9money_putIwSt19ostreambuf_iteratorIwSt11char_traitsIwEEE9_M_insertILb1EEES3_S3_RSt8ios_basewRKSbIwS2_SaIwEE
001902b0 T _ZNKSt9type_info10__do_catchEPKS_PPvj
00190270 T _ZNKSt9type_info11__do_upcastEPKN10__cxxabiv117__class_type_infoEPPv
00190260 T _ZNKSt9type_info14__is_pointer_pEv
00190260 T _ZNKSt9type_info15__is_function_pEv
0011a112 W _ZNSaI16NESTED_FILE_INFOEC1Ev
0011a112 W _ZNSaI16NESTED_FILE_INFOEC2Ev
00119ece W _ZNSaI16NESTED_FILE_INFOED1Ev
00119ece W _ZNSaI16NESTED_FILE_INFOED2Ev
0011d52a W _ZNSaI8Cab_InfoEC1Ev
0011d52a W _ZNSaI8Cab_InfoEC2Ev
0011ce3c W _ZNSaI8Cab_InfoED1Ev
0011ce3c W _ZNSaI8Cab_InfoED2Ev
00192f80 W _ZNSaIcEC1ERKS_
00192f70 W _ZNSaIcEC1Ev
00192f80 W _ZNSaIcEC2ERKS_
00192f70 W _ZNSaIcEC2Ev
00192f90 W _ZNSaIcED1Ev
00192f90 W _ZNSaIcED2Ev
001080e2 W _ZNSaIDsEC1ERKS_
001053d4 W _ZNSaIDsEC1Ev
001080e2 W _ZNSaIDsEC2ERKS_
001053d4 W _ZNSaIDsEC2Ev
001053ec W _ZNSaIDsED1Ev
001053ec W _ZNSaIDsED2Ev
0010c6e4 W _ZNSaIN7peparse10rich_entryEEC1Ev
0010c6e4 W _ZNSaIN7peparse10rich_entryEEC2Ev
0010a158 W _ZNSaIN7peparse10rich_entryEED1Ev
0010a158 W _ZNSaIN7peparse10rich_entryEED2Ev
0010ece2 W _ZNSaIN7peparse13aux_symbol_f1EEC1ERKS1_
0010bcc4 W _ZNSaIN7peparse13aux_symbol_f1EEC1Ev
0010ece2 W _ZNSaIN7peparse13aux_symbol_f1EEC2ERKS1_
0010bcc4 W _ZNSaIN7peparse13aux_symbol_f1EEC2Ev
001090ce W _ZNSaIN7peparse13aux_symbol_f1EED1Ev
001090ce W _ZNSaIN7peparse13aux_symbol_f1EED2Ev
0010edc2 W _ZNSaIN7peparse13aux_symbol_f2EEC1ERKS1_
0010bd06 W _ZNSaIN7peparse13aux_symbol_f2EEC1Ev
0010edc2 W _ZNSaIN7peparse13aux_symbol_f2EEC2ERKS1_
0010bd06 W _ZNSaIN7peparse13aux_symbol_f2EEC2Ev
00109158 W _ZNSaIN7peparse13aux_symbol_f2EED1Ev
00109158 W _ZNSaIN7peparse13aux_symbol_f2EED2Ev
0010eea2 W _ZNSaIN7peparse13aux_symbol_f3EEC1ERKS1_
0010bd48 W _ZNSaIN7peparse13aux_symbol_f3EEC1Ev
0010eea2 W _ZNSaIN7peparse13aux_symbol_f3EEC2ERKS1_
0010bd48 W _ZNSaIN7peparse13aux_symbol_f3EEC2Ev
001091e2 W _ZNSaIN7peparse13aux_symbol_f3EED1Ev
001091e2 W _ZNSaIN7peparse13aux_symbol_f3EED2Ev
0010ef82 W _ZNSaIN7peparse13aux_symbol_f4EEC1ERKS1_
0010bd8a W _ZNSaIN7peparse13aux_symbol_f4EEC1Ev
0010ef82 W _ZNSaIN7peparse13aux_symbol_f4EEC2ERKS1_
0010bd8a W _ZNSaIN7peparse13aux_symbol_f4EEC2Ev
0010926c W _ZNSaIN7peparse13aux_symbol_f4EED1Ev
0010926c W _ZNSaIN7peparse13aux_symbol_f4EED2Ev
0010f062 W _ZNSaIN7peparse13aux_symbol_f5EEC1ERKS1_
0010bdf6 W _ZNSaIN7peparse13aux_symbol_f5EEC1Ev
0010f062 W _ZNSaIN7peparse13aux_symbol_f5EEC2ERKS1_
0010bdf6 W _ZNSaIN7peparse13aux_symbol_f5EEC2Ev
001092f6 W _ZNSaIN7peparse13aux_symbol_f5EED1Ev
001092f6 W _ZNSaIN7peparse13aux_symbol_f5EED2Ev
0010c7f0 W _ZNSaIN7peparse5relocEEC1Ev
0010c7f0 W _ZNSaIN7peparse5relocEEC2Ev
0010a2d8 W _ZNSaIN7peparse5relocEED1Ev
0010a2d8 W _ZNSaIN7peparse5relocEED2Ev
0010c864 W _ZNSaIN7peparse6symbolEEC1Ev
0010c864 W _ZNSaIN7peparse6symbolEEC2Ev
0010a3a4 W _ZNSaIN7peparse6symbolEED1Ev
0010a3a4 W _ZNSaIN7peparse6symbolEED2Ev
0010a3f4 W _ZNSaIN7peparse7sectionEEC1ERKS1_
0010c708 W _ZNSaIN7peparse7sectionEEC1Ev
0010a3f4 W _ZNSaIN7peparse7sectionEEC2ERKS1_
0010c708 W _ZNSaIN7peparse7sectionEEC2Ev
00107594 W _ZNSaIN7peparse7sectionEED1Ev
00107594 W _ZNSaIN7peparse7sectionEED2Ev
0010c750 W _ZNSaIN7peparse8resourceEEC1Ev
0010c750 W _ZNSaIN7peparse8resourceEEC2Ev
0010a20c W _ZNSaIN7peparse8resourceEED1Ev
0010a20c W _ZNSaIN7peparse8resourceEED2Ev
0010c814 W _ZNSaIN7peparse9exportentEEC1Ev
0010c814 W _ZNSaIN7peparse9exportentEEC2Ev
0010a33e W _ZNSaIN7peparse9exportentEED1Ev
0010a33e W _ZNSaIN7peparse9exportentEED2Ev
0010c7a0 W _ZNSaIN7peparse9importentEEC1Ev
0010c7a0 W _ZNSaIN7peparse9importentEEC2Ev
0010a272 W _ZNSaIN7peparse9importentEED1Ev
0010a272 W _ZNSaIN7peparse9importentEED2Ev
0011d59a W _ZNSaINSt7__cxx1112basic_stringIcSt11char_traitsIcESaIcEEEEC1Ev
0011d59a W _ZNSaINSt7__cxx1112basic_stringIcSt11char_traitsIcESaIcEEEEC2Ev
0011cec6 W _ZNSaINSt7__cxx1112basic_stringIcSt11char_traitsIcESaIcEEEED1Ev
0011cec6 W _ZNSaINSt7__cxx1112basic_stringIcSt11char_traitsIcESaIcEEEED2Ev
0010afdc W _ZNSaISt13_Rb_tree_nodeISt4pairIKtKNSt7__cxx1112basic_stringIcSt11char_traitsIcESaIcEEEEEEC1ERKSB_
00107a38 W _ZNSaISt13_Rb_tree_nodeISt4pairIKtKNSt7__cxx1112basic_stringIcSt11char_traitsIcESaIcEEEEEEC1IS9_EERKSaIT_E
0010afdc W _ZNSaISt13_Rb_tree_nodeISt4pairIKtKNSt7__cxx1112basic_stringIcSt11char_traitsIcESaIcEEEEEEC2ERKSB_
00107a38 W _ZNSaISt13_Rb_tree_nodeISt4pairIKtKNSt7__cxx1112basic_stringIcSt11char_traitsIcESaIcEEEEEEC2IS9_EERKSaIT_E
00104f78 W _ZNSaISt13_Rb_tree_nodeISt4pairIKtKNSt7__cxx1112basic_stringIcSt11char_traitsIcESaIcEEEEEED1Ev
00104f78 W _ZNSaISt13_Rb_tree_nodeISt4pairIKtKNSt7__cxx1112basic_stringIcSt11char_traitsIcESaIcEEEEEED2Ev
0010aa00 W _ZNSaISt13_Rb_tree_nodeISt4pairIKtNSt7__cxx1112basic_stringIcSt11char_traitsIcESaIcEEEEEEC1ERKSA_
00107866 W _ZNSaISt13_Rb_tree_nodeISt4pairIKtNSt7__cxx1112basic_stringIcSt11char_traitsIcESaIcEEEEEEC1IS8_EERKSaIT_E
0010aa00 W _ZNSaISt13_Rb_tree_nodeISt4pairIKtNSt7__cxx1112basic_stringIcSt11char_traitsIcESaIcEEEEEEC2ERKSA_
00107866 W _ZNSaISt13_Rb_tree_nodeISt4pairIKtNSt7__cxx1112basic_stringIcSt11char_traitsIcESaIcEEEEEEC2IS8_EERKSaIT_E
00104db0 W _ZNSaISt13_Rb_tree_nodeISt4pairIKtNSt7__cxx1112basic_stringIcSt11char_traitsIcESaIcEEEEEED1Ev
00104db0 W _ZNSaISt13_Rb_tree_nodeISt4pairIKtNSt7__cxx1112basic_stringIcSt11char_traitsIcESaIcEEEEEED2Ev
00104e36 W _ZNSaISt4pairIKtKNSt7__cxx1112basic_stringIcSt11char_traitsIcESaIcEEEEEC1ERKS9_
001034b4 W _ZNSaISt4pairIKtKNSt7__cxx1112basic_stringIcSt11char_traitsIcESaIcEEEEEC1Ev
00104e36 W _ZNSaISt4pairIKtKNSt7__cxx1112basic_stringIcSt11char_traitsIcESaIcEEEEEC2ERKS9_
001034b4 W _ZNSaISt4pairIKtKNSt7__cxx1112basic_stringIcSt11char_traitsIcESaIcEEEEEC2Ev
001034cc W _ZNSaISt4pairIKtKNSt7__cxx1112basic_stringIcSt11char_traitsIcESaIcEEEEED1Ev
001034cc W _ZNSaISt4pairIKtKNSt7__cxx1112basic_stringIcSt11char_traitsIcESaIcEEEEED2Ev
00104c6e W _ZNSaISt4pairIKtNSt7__cxx1112basic_stringIcSt11char_traitsIcESaIcEEEEEC1ERKS8_
00103306 W _ZNSaISt4pairIKtNSt7__cxx1112basic_stringIcSt11char_traitsIcESaIcEEEEEC1Ev
00104c6e W _ZNSaISt4pairIKtNSt7__cxx1112basic_stringIcSt11char_traitsIcESaIcEEEEEC2ERKS8_
00103306 W _ZNSaISt4pairIKtNSt7__cxx1112basic_stringIcSt11char_traitsIcESaIcEEEEEC2Ev
0010331e W _ZNSaISt4pairIKtNSt7__cxx1112basic_stringIcSt11char_traitsIcESaIcEEEEED1Ev
0010331e W _ZNSaISt4pairIKtNSt7__cxx1112basic_stringIcSt11char_traitsIcESaIcEEEEED2Ev
00192fb0 W _ZNSaIwEC1ERKS_
00192fa0 W _ZNSaIwEC1Ev
00192fb0 W _ZNSaIwEC2ERKS_
00192fa0 W _ZNSaIwEC2Ev
00192fc0 W _ZNSaIwED1Ev
00192fc0 W _ZNSaIwED2Ev
00227e80 W _ZNSbIwSt11char_traitsIwESaIwEE10_S_compareEjj
00228c90 W _ZNSbIwSt11char_traitsIwESaIwEE12_Alloc_hiderC1EPwRKS1_
00228c90 W _ZNSbIwSt11char_traitsIwESaIwEE12_Alloc_hiderC2EPwRKS1_
002292f0 W _ZNSbIwSt11char_traitsIwESaIwEE12_M_leak_hardEv
00228df0 W _ZNSbIwSt11char_traitsIwESaIwEE12_S_constructEjwRKS1_
0022ab40 W _ZNSbIwSt11char_traitsIwESaIwEE12_S_constructIN9__gnu_cxx17__normal_iteratorIPwS2_EEEES6_T_S8_RKS1_St20forward_iterator_tag
0022ae10 W _ZNSbIwSt11char_traitsIwESaIwEE12_S_constructIPKwEEPwT_S7_RKS1_St20forward_iterator_tag
0022ac30 W _ZNSbIwSt11char_traitsIwESaIwEE12_S_constructIPwEES4_T_S5_RKS1_St20forward_iterator_tag
00227e90 W _ZNSbIwSt11char_traitsIwESaIwEE12_S_empty_repEv
00227d60 W _ZNSbIwSt11char_traitsIwESaIwEE13_S_copy_charsEPwN9__gnu_cxx17__normal_iteratorIPKwS2_EES8_
00227d00 W _ZNSbIwSt11char_traitsIwESaIwEE13_S_copy_charsEPwN9__gnu_cxx17__normal_iteratorIS3_S2_EES6_
00227e20 W _ZNSbIwSt11char_traitsIwESaIwEE13_S_copy_charsEPwPKwS5_
00227dc0 W _ZNSbIwSt11char_traitsIwESaIwEE13_S_copy_charsEPwS3_S3_
0022a0d0 W _ZNSbIwSt11char_traitsIwESaIwEE13shrink_to_fitEv
002296d0 W _ZNSbIwSt11char_traitsIwESaIwEE14_M_replace_auxEjjjw
00229940 W _ZNSbIwSt11char_traitsIwESaIwEE15_M_replace_safeEjjPKwj
00228ee0 W _ZNSbIwSt11char_traitsIwESaIwEE18_S_construct_aux_2EjwRKS1_
00229530 W _ZNSbIwSt11char_traitsIwESaIwEE2atEj
002293f0 W _ZNSbIwSt11char_traitsIwESaIwEE3endEv
002294f0 W _ZNSbIwSt11char_traitsIwESaIwEE4backEv
00247ff4 u _ZNSbIwSt11char_traitsIwESaIwEE4nposE
002293b0 W _ZNSbIwSt11char_traitsIwESaIwEE4rendEv
00228fb0 W _ZNSbIwSt11char_traitsIwESaIwEE4_Rep10_M_destroyERKS1_
00228fd0 W _ZNSbIwSt11char_traitsIwESaIwEE4_Rep10_M_disposeERKS1_
00229f20 W _ZNSbIwSt11char_traitsIwESaIwEE4_Rep10_M_refcopyEv
00228d40 W _ZNSbIwSt11char_traitsIwESaIwEE4_Rep10_M_refdataEv
00247ff0 u _ZNSbIwSt11char_traitsIwESaIwEE4_Rep11_S_max_sizeE
00247fec u _ZNSbIwSt11char_traitsIwESaIwEE4_Rep11_S_terminalE
00228ca0 W _ZNSbIwSt11char_traitsIwESaIwEE4_Rep12_S_empty_repEv
00228ce0 W _ZNSbIwSt11char_traitsIwESaIwEE4_Rep13_M_set_leakedEv
00228cf0 W _ZNSbIwSt11char_traitsIwESaIwEE4_Rep15_M_set_sharableEv
002c09b8 u _ZNSbIwSt11char_traitsIwESaIwEE4_Rep20_S_empty_rep_storageE
00228d00 W _ZNSbIwSt11char_traitsIwESaIwEE4_Rep26_M_set_length_and_sharableEj
0022a700 W _ZNSbIwSt11char_traitsIwESaIwEE4_Rep7_M_grabERKS1_S5_
00229f60 W _ZNSbIwSt11char_traitsIwESaIwEE4_Rep8_M_cloneERKS1_j
00228d50 W _ZNSbIwSt11char_traitsIwESaIwEE4_Rep9_S_createEjjRKS1_
00228100 W _ZNSbIwSt11char_traitsIwESaIwEE4swapERS2_
00229370 W _ZNSbIwSt11char_traitsIwESaIwEE5beginEv
00229580 W _ZNSbIwSt11char_traitsIwESaIwEE5clearEv
002295b0 W _ZNSbIwSt11char_traitsIwESaIwEE5eraseEjj
00229610 W _ZNSbIwSt11char_traitsIwESaIwEE5eraseEN9__gnu_cxx17__normal_iteratorIPwS2_EE
00229660 W _ZNSbIwSt11char_traitsIwESaIwEE5eraseEN9__gnu_cxx17__normal_iteratorIPwS2_EES6_
002294b0 W _ZNSbIwSt11char_traitsIwESaIwEE5frontEv
0022a4c0 W _ZNSbIwSt11char_traitsIwESaIwEE6appendEjw
0022a430 W _ZNSbIwSt11char_traitsIwESaIwEE6appendEPKw
0022a2f0 W _ZNSbIwSt11char_traitsIwESaIwEE6appendEPKwj
0022a120 W _ZNSbIwSt11char_traitsIwESaIwEE6appendERKS2_
0022a200 W _ZNSbIwSt11char_traitsIwESaIwEE6appendERKS2_jj
0022a490 W _ZNSbIwSt11char_traitsIwESaIwEE6appendESt16initializer_listIwE
00229760 W _ZNSbIwSt11char_traitsIwESaIwEE6assignEjw
00228170 W _ZNSbIwSt11char_traitsIwESaIwEE6assignEOS2_
00229b50 W _ZNSbIwSt11char_traitsIwESaIwEE6assignEPKw
002299c0 W _ZNSbIwSt11char_traitsIwESaIwEE6assignEPKwj
0022a800 W _ZNSbIwSt11char_traitsIwESaIwEE6assignERKS2_
00229af0 W _ZNSbIwSt11char_traitsIwESaIwEE6assignERKS2_jj
00229bb0 W _ZNSbIwSt11char_traitsIwESaIwEE6assignESt16initializer_listIwE
002297c0 W _ZNSbIwSt11char_traitsIwESaIwEE6insertEjjw
00229e60 W _ZNSbIwSt11char_traitsIwESaIwEE6insertEjPKw
00229be0 W _ZNSbIwSt11char_traitsIwESaIwEE6insertEjPKwj
00229ea0 W _ZNSbIwSt11char_traitsIwESaIwEE6insertEjRKS2_
00229e00 W _ZNSbIwSt11char_traitsIwESaIwEE6insertEjRKS2_jj
00229900 W _ZNSbIwSt11char_traitsIwESaIwEE6insertEN9__gnu_cxx17__normal_iteratorIPwS2_EEjw
00229dd0 W _ZNSbIwSt11char_traitsIwESaIwEE6insertEN9__gnu_cxx17__normal_iteratorIPwS2_EESt16initializer_listIwE
00229810 W _ZNSbIwSt11char_traitsIwESaIwEE6insertEN9__gnu_cxx17__normal_iteratorIPwS2_EEw
00229430 W _ZNSbIwSt11char_traitsIwESaIwEE6rbeginEv
0022a5f0 W _ZNSbIwSt11char_traitsIwESaIwEE6resizeEj
0022a580 W _ZNSbIwSt11char_traitsIwESaIwEE6resizeEjw
00227be0 W _ZNSbIwSt11char_traitsIwESaIwEE7_M_copyEPwPKwj
00227ad0 W _ZNSbIwSt11char_traitsIwESaIwEE7_M_dataEPw
00229340 W _ZNSbIwSt11char_traitsIwESaIwEE7_M_leakEv
00227c40 W _ZNSbIwSt11char_traitsIwESaIwEE7_M_moveEPwPKwj
00229860 W _ZNSbIwSt11char_traitsIwESaIwEE7replaceEjjjw
0022b180 W _ZNSbIwSt11char_traitsIwESaIwEE7replaceEjjPKw
0022aeb0 W _ZNSbIwSt11char_traitsIwESaIwEE7replaceEjjPKwj
0022b0e0 W _ZNSbIwSt11char_traitsIwESaIwEE7replaceEjjRKS2_
0022b110 W _ZNSbIwSt11char_traitsIwESaIwEE7replaceEjjRKS2_jj
002298c0 W _ZNSbIwSt11char_traitsIwESaIwEE7replaceEN9__gnu_cxx17__normal_iteratorIPwS2_EES6_jw
0022b3d0 W _ZNSbIwSt11char_traitsIwESaIwEE7replaceEN9__gnu_cxx17__normal_iteratorIPwS2_EES6_NS4_IPKwS2_EES9_
0022b240 W _ZNSbIwSt11char_traitsIwESaIwEE7replaceEN9__gnu_cxx17__normal_iteratorIPwS2_EES6_PKw
0022b1c0 W _ZNSbIwSt11char_traitsIwESaIwEE7replaceEN9__gnu_cxx17__normal_iteratorIPwS2_EES6_PKwj
0022b2e0 W _ZNSbIwSt11char_traitsIwESaIwEE7replaceEN9__gnu_cxx17__normal_iteratorIPwS2_EES6_PKwS8_
0022b200 W _ZNSbIwSt11char_traitsIwESaIwEE7replaceEN9__gnu_cxx17__normal_iteratorIPwS2_EES6_RKS2_
0022b290 W _ZNSbIwSt11char_traitsIwESaIwEE7replaceEN9__gnu_cxx17__normal_iteratorIPwS2_EES6_S5_S5_
0022b380 W _ZNSbIwSt11char_traitsIwESaIwEE7replaceEN9__gnu_cxx17__normal_iteratorIPwS2_EES6_S6_S6_
0022b330 W _ZNSbIwSt11char_traitsIwESaIwEE7replaceEN9__gnu_cxx17__normal_iteratorIPwS2_EES6_St16initializer_listIwE
0022a000 W _ZNSbIwSt11char_traitsIwESaIwEE7reserveEj
00229ed0 W _ZNSbIwSt11char_traitsIwESaIwEE8pop_backEv
00227ca0 W _ZNSbIwSt11char_traitsIwESaIwEE9_M_assignEPwjw
002290c0 W _ZNSbIwSt11char_traitsIwESaIwEE9_M_mutateEjjj
0022a620 W _ZNSbIwSt11char_traitsIwESaIwEE9push_backEw
00228140 W _ZNSbIwSt11char_traitsIwESaIwEEaSEOS2_
00229b80 W _ZNSbIwSt11char_traitsIwESaIwEEaSEPKw
0022a940 W _ZNSbIwSt11char_traitsIwESaIwEEaSERKS2_
00229ac0 W _ZNSbIwSt11char_traitsIwESaIwEEaSESt16initializer_listIwE
00229790 W _ZNSbIwSt11char_traitsIwESaIwEEaSEw
00228eb0 W _ZNSbIwSt11char_traitsIwESaIwEEC1EjwRKS1_
00227ed0 W _ZNSbIwSt11char_traitsIwESaIwEEC1EOS2_
0022ae70 W _ZNSbIwSt11char_traitsIwESaIwEEC1EPKwjRKS1_
0022b420 W _ZNSbIwSt11char_traitsIwESaIwEEC1EPKwRKS1_
00228e80 W _ZNSbIwSt11char_traitsIwESaIwEEC1ERKS1_
0022a770 W _ZNSbIwSt11char_traitsIwESaIwEEC1ERKS2_
0022ac90 W _ZNSbIwSt11char_traitsIwESaIwEEC1ERKS2_jj
0022ad70 W _ZNSbIwSt11char_traitsIwESaIwEEC1ERKS2_jjRKS1_
0022b470 W _ZNSbIwSt11char_traitsIwESaIwEEC1ESt16initializer_listIwERKS1_
00227eb0 W _ZNSbIwSt11char_traitsIwESaIwEEC1Ev
0022ac00 W _ZNSbIwSt11char_traitsIwESaIwEEC1IN9__gnu_cxx17__normal_iteratorIPwS2_EEEET_S8_RKS1_
0022b4b0 W _ZNSbIwSt11char_traitsIwESaIwEEC1IPKwEET_S6_RKS1_
0022ade0 W _ZNSbIwSt11char_traitsIwESaIwEEC1IPwEET_S5_RKS1_
00228eb0 W _ZNSbIwSt11char_traitsIwESaIwEEC2EjwRKS1_
00227ed0 W _ZNSbIwSt11char_traitsIwESaIwEEC2EOS2_
0022ae70 W _ZNSbIwSt11char_traitsIwESaIwEEC2EPKwjRKS1_
0022b420 W _ZNSbIwSt11char_traitsIwESaIwEEC2EPKwRKS1_
00228e80 W _ZNSbIwSt11char_traitsIwESaIwEEC2ERKS1_
0022a770 W _ZNSbIwSt11char_traitsIwESaIwEEC2ERKS2_
0022ac90 W _ZNSbIwSt11char_traitsIwESaIwEEC2ERKS2_jj
0022ad70 W _ZNSbIwSt11char_traitsIwESaIwEEC2ERKS2_jjRKS1_
0022b470 W _ZNSbIwSt11char_traitsIwESaIwEEC2ESt16initializer_listIwERKS1_
00227eb0 W _ZNSbIwSt11char_traitsIwESaIwEEC2Ev
0022ac00 W _ZNSbIwSt11char_traitsIwESaIwEEC2IN9__gnu_cxx17__normal_iteratorIPwS2_EEEET_S8_RKS1_
0022b4b0 W _ZNSbIwSt11char_traitsIwESaIwEEC2IPKwEET_S6_RKS1_
0022ade0 W _ZNSbIwSt11char_traitsIwESaIwEEC2IPwEET_S5_RKS1_
00229030 W _ZNSbIwSt11char_traitsIwESaIwEED1Ev
00229030 W _ZNSbIwSt11char_traitsIwESaIwEED2Ev
00229470 W _ZNSbIwSt11char_traitsIwESaIwEEixEj
0022a460 W _ZNSbIwSt11char_traitsIwESaIwEEpLEPKw
0022a1d0 W _ZNSbIwSt11char_traitsIwESaIwEEpLERKS2_
0022a400 W _ZNSbIwSt11char_traitsIwESaIwEEpLESt16initializer_listIwE
0022a690 W _ZNSbIwSt11char_traitsIwESaIwEEpLEw
001e6e00 W _ZNSd4swapERSd
001e6d70 W _ZNSdaSEOSd
001e6c60 W _ZNSdC1EOSd
001e6910 W _ZNSdC1EPSt15basic_streambufIcSt11char_traitsIcEE
001e6ac0 W _ZNSdC1Ev
001e6ba0 W _ZNSdC2EOSd
001e6880 W _ZNSdC2EPSt15basic_streambufIcSt11char_traitsIcEE
001e6a30 W _ZNSdC2Ev
001e6760 W _ZNSdD0Ev
001e6710 W _ZNSdD1Ev
001e69f0 W _ZNSdD2Ev
00207260 W _ZNSi10_M_extractIbEERSiRT_
00207860 W _ZNSi10_M_extractIdEERSiRT_
002079e0 W _ZNSi10_M_extractIeEERSiRT_
002076e0 W _ZNSi10_M_extractIfEERSiRT_
00206de0 W _ZNSi10_M_extractIjEERSiRT_
00206f60 W _ZNSi10_M_extractIlEERSiRT_
002070e0 W _ZNSi10_M_extractImEERSiRT_
00207b60 W _ZNSi10_M_extractIPvEERSiRT_
00206c60 W _ZNSi10_M_extractItEERSiRT_
002073e0 W _ZNSi10_M_extractIxEERSiRT_
00207560 W _ZNSi10_M_extractIyEERSiRT_
00205840 W _ZNSi3getEPci
00205640 W _ZNSi3getEPcic
002054e0 W _ZNSi3getERc
00205b30 W _ZNSi3getERSt15basic_streambufIcSt11char_traitsIcEE
002058c0 W _ZNSi3getERSt15basic_streambufIcSt11char_traitsIcEEc
00205390 W _ZNSi3getEv
00205cd0 W _ZNSi4peekEv
00205e00 W _ZNSi4readEPci
00204d30 W _ZNSi4swapERSi
00206310 W _ZNSi4syncEv
00206560 W _ZNSi5seekgESt4fposI11__mbstate_tE
002066c0 W _ZNSi5seekgExSt12_Ios_Seekdir
00206430 W _ZNSi5tellgEv
002061d0 W _ZNSi5ungetEv
0022bfe0 T _ZNSi6ignoreEi
0021d930 T _ZNSi6ignoreEii
00205bb0 W _ZNSi6ignoreEv
00204dc0 W _ZNSi6sentryC1ERSib
00204dc0 W _ZNSi6sentryC2ERSib
002049c0 W _ZNSi7getlineEPci
0021d5a0 T _ZNSi7getlineEPcic
00206080 W _ZNSi7putbackEc
00205f20 W _ZNSi8readsomeEPci
00204ca0 W _ZNSiaSEOSi
00204bb0 W _ZNSiC1EOSi
00204890 W _ZNSiC1EPSt15basic_streambufIcSt11char_traitsIcEE
00204a80 W _ZNSiC1Ev
00204b30 W _ZNSiC2EOSi
00204850 W _ZNSiC2EPSt15basic_streambufIcSt11char_traitsIcEE
00204a40 W _ZNSiC2Ev
00204740 W _ZNSiD0Ev
002046f0 W _ZNSiD1Ev
00204940 W _ZNSiD2Ev
00204960 W _ZNSirsEPFRSiS_E
00204990 W _ZNSirsEPFRSt8ios_baseS0_E
00204970 W _ZNSirsEPFRSt9basic_iosIcSt11char_traitsIcEES3_E
00205260 W _ZNSirsEPSt15basic_streambufIcSt11char_traitsIcEE
002073b0 W _ZNSirsERb
002079b0 W _ZNSirsERd
00207b30 W _ZNSirsERe
00207830 W _ZNSirsERf
00205110 W _ZNSirsERi
00206f30 W _ZNSirsERj
002070b0 W _ZNSirsERl
00207230 W _ZNSirsERm
00207cb0 W _ZNSirsERPv
00204f70 W _ZNSirsERs
00206db0 W _ZNSirsERt
00207530 W _ZNSirsERx
002076b0 W _ZNSirsERy
001e8220 W _ZNSo3putEc
001e7f30 W _ZNSo4swapERSo
001e77c0 W _ZNSo5flushEv
001e79b0 W _ZNSo5seekpESt4fposI11__mbstate_tE
001e7ae0 W _ZNSo5seekpExSt12_Ios_Seekdir
001e7890 W _ZNSo5tellpEv
001e83b0 W _ZNSo5writeEPKci
001e7fb0 W _ZNSo6sentryC1ERSo
001e7fb0 W _ZNSo6sentryC2ERSo
001e8020 W _ZNSo6sentryD1Ev
001e8020 W _ZNSo6sentryD2Ev
001e7770 W _ZNSo8_M_writeEPKci
001e9320 W _ZNSo9_M_insertIbEERSoT_
001e9a70 W _ZNSo9_M_insertIdEERSoT_
001e9d00 W _ZNSo9_M_insertIeEERSoT_
001e8d90 W _ZNSo9_M_insertIlEERSoT_
001e9070 W _ZNSo9_M_insertImEERSoT_
001e9f60 W _ZNSo9_M_insertIPKvEERSoT_
001e9590 W _ZNSo9_M_insertIxEERSoT_
001e9800 W _ZNSo9_M_insertIyEERSoT_
001e7eb0 W _ZNSoaSEOSo
001e7dd0 W _ZNSoC1EOSo
001e7660 W _ZNSoC1EPSt15basic_streambufIcSt11char_traitsIcEE
001e7cf0 W _ZNSoC1ERSd
001e7c30 W _ZNSoC1Ev
001e7d60 W _ZNSoC2EOSo
001e7620 W _ZNSoC2EPSt15basic_streambufIcSt11char_traitsIcEE
001e7cd0 W _ZNSoC2ERSd
001e7c00 W _ZNSoC2Ev
001e7510 W _ZNSoD0Ev
001e74c0 W _ZNSoD1Ev
001e7700 W _ZNSoD2Ev
001e9560 W _ZNSolsEb
001e9ca0 W _ZNSolsEd
001e9f30 W _ZNSolsEe
001e9cd0 W _ZNSolsEf
001e9040 W _ZNSolsEi
001e92f0 W _ZNSolsEj
001e8fb0 W _ZNSolsEl
001e9290 W _ZNSolsEm
001e7720 W _ZNSolsEPFRSoS_E
001e7750 W _ZNSolsEPFRSt8ios_baseS0_E
001e7730 W _ZNSolsEPFRSt9basic_iosIcSt11char_traitsIcEES3_E
001ea190 W _ZNSolsEPKv
001e8090 W _ZNSolsEPSt15basic_streambufIcSt11char_traitsIcEE
001e8fe0 W _ZNSolsEs
001e92c0 W _ZNSolsEt
001e97d0 W _ZNSolsEx
001e9a40 W _ZNSolsEy
002107f0 W _ZNSs10_S_compareEjj
002115e0 W _ZNSs12_Alloc_hiderC1EPcRKSaIcE
002115e0 W _ZNSs12_Alloc_hiderC2EPcRKSaIcE
00211c70 W _ZNSs12_M_leak_hardEv
00211730 W _ZNSs12_S_constructEjcRKSaIcE
002134c0 W _ZNSs12_S_constructIN9__gnu_cxx17__normal_iteratorIPcSsEEEES2_T_S4_RKSaIcESt20forward_iterator_tag
002135a0 W _ZNSs12_S_constructIPcEES0_T_S1_RKSaIcESt20forward_iterator_tag
00213780 W _ZNSs12_S_constructIPKcEEPcT_S3_RKSaIcESt20forward_iterator_tag
00210800 W _ZNSs12_S_empty_repEv
002106d0 W _ZNSs13_S_copy_charsEPcN9__gnu_cxx17__normal_iteratorIPKcSsEES4_
00210670 W _ZNSs13_S_copy_charsEPcN9__gnu_cxx17__normal_iteratorIS_SsEES2_
00210790 W _ZNSs13_S_copy_charsEPcPKcS1_
00210730 W _ZNSs13_S_copy_charsEPcS_S_
00212a20 W _ZNSs13shrink_to_fitEv
00212050 W _ZNSs14_M_replace_auxEjjjc
00212300 W _ZNSs15_M_replace_safeEjjPKcj
00211820 W _ZNSs18_S_construct_aux_2EjcRKSaIcE
00211eb0 W _ZNSs2atEj
00211d70 W _ZNSs3endEv
00211e70 W _ZNSs4backEv
00247050 u _ZNSs4nposE
00211d30 W _ZNSs4rendEv
002118e0 W _ZNSs4_Rep10_M_destroyERKSaIcE
00211950 W _ZNSs4_Rep10_M_disposeERKSaIcE
00212870 W _ZNSs4_Rep10_M_refcopyEv
00211690 W _ZNSs4_Rep10_M_refdataEv
0024704c u _ZNSs4_Rep11_S_max_sizeE
0024704b u _ZNSs4_Rep11_S_terminalE
002115f0 W _ZNSs4_Rep12_S_empty_repEv
00211630 W _ZNSs4_Rep13_M_set_leakedEv
00211640 W _ZNSs4_Rep15_M_set_sharableEv
002bf8b8 u _ZNSs4_Rep20_S_empty_rep_storageE
00211650 W _ZNSs4_Rep26_M_set_length_and_sharableEj
00213070 W _ZNSs4_Rep7_M_grabERKSaIcES2_
002128b0 W _ZNSs4_Rep8_M_cloneERKSaIcEj
002116a0 W _ZNSs4_Rep9_S_createEjjRKSaIcE
00210a70 W _ZNSs4swapERSs
00211cf0 W _ZNSs5beginEv
00211f00 W _ZNSs5clearEv
00211f30 W _ZNSs5eraseEjj
00211f90 W _ZNSs5eraseEN9__gnu_cxx17__normal_iteratorIPcSsEE
00211fe0 W _ZNSs5eraseEN9__gnu_cxx17__normal_iteratorIPcSsEES2_
00211e30 W _ZNSs5frontEv
00212e00 W _ZNSs6appendEjc
00212d70 W _ZNSs6appendEPKc
00212c30 W _ZNSs6appendEPKcj
00212a70 W _ZNSs6appendERKSs
00212b50 W _ZNSs6appendERKSsjj
00212dd0 W _ZNSs6appendESt16initializer_listIcE
002120f0 W _ZNSs6assignEjc
00210ae0 W _ZNSs6assignEOSs
002124f0 W _ZNSs6assignEPKc
00212370 W _ZNSs6assignEPKcj
00213170 W _ZNSs6assignERKSs
00212490 W _ZNSs6assignERKSsjj
00212550 W _ZNSs6assignESt16initializer_listIcE
00212160 W _ZNSs6insertEjjc
002127b0 W _ZNSs6insertEjPKc
00212580 W _ZNSs6insertEjPKcj
002127f0 W _ZNSs6insertEjRKSs
00212750 W _ZNSs6insertEjRKSsjj
002121c0 W _ZNSs6insertEN9__gnu_cxx17__normal_iteratorIPcSsEEc
002122c0 W _ZNSs6insertEN9__gnu_cxx17__normal_iteratorIPcSsEEjc
00212720 W _ZNSs6insertEN9__gnu_cxx17__normal_iteratorIPcSsEESt16initializer_listIcE
00211db0 W _ZNSs6rbeginEv
00212f40 W _ZNSs6resizeEj
00212ed0 W _ZNSs6resizeEjc
00210550 W _ZNSs7_M_copyEPcPKcj
00210440 W _ZNSs7_M_dataEPc
00211cc0 W _ZNSs7_M_leakEv
002105b0 W _ZNSs7_M_moveEPcPKcj
00212210 W _ZNSs7replaceEjjjc
00213ad0 W _ZNSs7replaceEjjPKc
00213820 W _ZNSs7replaceEjjPKcj
00213a40 W _ZNSs7replaceEjjRKSs
00213a70 W _ZNSs7replaceEjjRKSsjj
00212280 W _ZNSs7replaceEN9__gnu_cxx17__normal_iteratorIPcSsEES2_jc
00213cd0 W _ZNSs7replaceEN9__gnu_cxx17__normal_iteratorIPcSsEES2_NS0_IPKcSsEES5_
00213b90 W _ZNSs7replaceEN9__gnu_cxx17__normal_iteratorIPcSsEES2_PKc
00213b10 W _ZNSs7replaceEN9__gnu_cxx17__normal_iteratorIPcSsEES2_PKcj
00213c10 W _ZNSs7replaceEN9__gnu_cxx17__normal_iteratorIPcSsEES2_PKcS4_
00213b50 W _ZNSs7replaceEN9__gnu_cxx17__normal_iteratorIPcSsEES2_RKSs
00213bd0 W _ZNSs7replaceEN9__gnu_cxx17__normal_iteratorIPcSsEES2_S1_S1_
00213c90 W _ZNSs7replaceEN9__gnu_cxx17__normal_iteratorIPcSsEES2_S2_S2_
00213c50 W _ZNSs7replaceEN9__gnu_cxx17__normal_iteratorIPcSsEES2_St16initializer_listIcE
00212950 W _ZNSs7reserveEj
00212820 W _ZNSs8pop_backEv
00210610 W _ZNSs9_M_assignEPcjc
00211a40 W _ZNSs9_M_mutateEjjj
00212f70 W _ZNSs9push_backEc
00212120 W _ZNSsaSEc
00210ab0 W _ZNSsaSEOSs
00212520 W _ZNSsaSEPKc
002132b0 W _ZNSsaSERKSs
00212460 W _ZNSsaSESt16initializer_listIcE
002117f0 W _ZNSsC1EjcRKSaIcE
00210840 W _ZNSsC1EOSs
002137e0 W _ZNSsC1EPKcjRKSaIcE
00213d10 W _ZNSsC1EPKcRKSaIcE
002117c0 W _ZNSsC1ERKSaIcE
002130e0 W _ZNSsC1ERKSs
00213600 W _ZNSsC1ERKSsjj
002136e0 W _ZNSsC1ERKSsjjRKSaIcE
00213d60 W _ZNSsC1ESt16initializer_listIcERKSaIcE
00210820 W _ZNSsC1Ev
00213570 W _ZNSsC1IN9__gnu_cxx17__normal_iteratorIPcSsEEEET_S4_RKSaIcE
00213750 W _ZNSsC1IPcEET_S1_RKSaIcE
00213da0 W _ZNSsC1IPKcEET_S2_RKSaIcE
002117f0 W _ZNSsC2EjcRKSaIcE
00210840 W _ZNSsC2EOSs
002137e0 W _ZNSsC2EPKcjRKSaIcE
00213d10 W _ZNSsC2EPKcRKSaIcE
002117c0 W _ZNSsC2ERKSaIcE
002130e0 W _ZNSsC2ERKSs
00213600 W _ZNSsC2ERKSsjj
002136e0 W _ZNSsC2ERKSsjjRKSaIcE
00213d60 W _ZNSsC2ESt16initializer_listIcERKSaIcE
00210820 W _ZNSsC2Ev
00213570 W _ZNSsC2IN9__gnu_cxx17__normal_iteratorIPcSsEEEET_S4_RKSaIcE
00213750 W _ZNSsC2IPcEET_S1_RKSaIcE
00213da0 W _ZNSsC2IPKcEET_S2_RKSaIcE
002119b0 W _ZNSsD1Ev
002119b0 W _ZNSsD2Ev
00211df0 W _ZNSsixEj
00212ff0 W _ZNSspLEc
00212da0 W _ZNSspLEPKc
00212b20 W _ZNSspLERKSs
00212d40 W _ZNSspLESt16initializer_listIcE
00214900 T _ZNSt10bad_typeidD0Ev
002148d0 T _ZNSt10bad_typeidD1Ev
002148d0 T _ZNSt10bad_typeidD2Ev
002452a0 R _ZNSt10ctype_base5alnumE
002452a8 R _ZNSt10ctype_base5alphaE
0024529c R _ZNSt10ctype_base5blankE
002452ae R _ZNSt10ctype_base5cntrlE
002452a6 R _ZNSt10ctype_base5digitE
0024529e R _ZNSt10ctype_base5graphE
002452aa R _ZNSt10ctype_base5lowerE
002452b0 R _ZNSt10ctype_base5printE
002452a4 R _ZNSt10ctype_base5punctE
002452b2 R _ZNSt10ctype_base5spaceE
002452ac R _ZNSt10ctype_base5upperE
002452a2 R _ZNSt10ctype_base6xdigitE
00111421 W _ZNSt10_Iter_baseIN9__gnu_cxx17__normal_iteratorIPKN7peparse13aux_symbol_f1ESt6vectorIS3_SaIS3_EEEELb0EE7_S_baseES9_
001119f6 W _ZNSt10_Iter_baseIN9__gnu_cxx17__normal_iteratorIPKN7peparse13aux_symbol_f1ESt6vectorIS3_SaIS3_EEEELb1EE7_S_baseES9_
00111469 W _ZNSt10_Iter_baseIN9__gnu_cxx17__normal_iteratorIPKN7peparse13aux_symbol_f2ESt6vectorIS3_SaIS3_EEEELb0EE7_S_baseES9_
00111a52 W _ZNSt10_Iter_baseIN9__gnu_cxx17__normal_iteratorIPKN7peparse13aux_symbol_f2ESt6vectorIS3_SaIS3_EEEELb1EE7_S_baseES9_
001114b1 W _ZNSt10_Iter_baseIN9__gnu_cxx17__normal_iteratorIPKN7peparse13aux_symbol_f3ESt6vectorIS3_SaIS3_EEEELb0EE7_S_baseES9_
00111ab0 W _ZNSt10_Iter_baseIN9__gnu_cxx17__normal_iteratorIPKN7peparse13aux_symbol_f3ESt6vectorIS3_SaIS3_EEEELb1EE7_S_baseES9_
001114f9 W _ZNSt10_Iter_baseIN9__gnu_cxx17__normal_iteratorIPKN7peparse13aux_symbol_f5ESt6vectorIS3_SaIS3_EEEELb0EE7_S_baseES9_
00111b0e W _ZNSt10_Iter_baseIN9__gnu_cxx17__normal_iteratorIPKN7peparse13aux_symbol_f5ESt6vectorIS3_SaIS3_EEEELb1EE7_S_baseES9_
0010f9e0 W _ZNSt10_Iter_baseIN9__gnu_cxx17__normal_iteratorIPN7peparse7sectionESt6vectorIS3_SaIS3_EEEELb0EE7_S_baseES8_
00110395 W _ZNSt10_Iter_baseIN9__gnu_cxx17__normal_iteratorIPN7peparse7sectionESt6vectorIS3_SaIS3_EEEELb1EE7_S_baseES8_
00111dc8 W _ZNSt10_Iter_baseIPcLb0EE7_S_baseES0_
0010f34b W _ZNSt10_Iter_baseIPhLb0EE7_S_baseES0_
0011136c W _ZNSt10_Iter_baseIPN7peparse10rich_entryELb0EE7_S_baseES2_
00111826 W _ZNSt10_Iter_baseIPN7peparse13aux_symbol_f1ELb0EE7_S_baseES2_
0011187c W _ZNSt10_Iter_baseIPN7peparse13aux_symbol_f2ELb0EE7_S_baseES2_
001118d4 W _ZNSt10_Iter_baseIPN7peparse13aux_symbol_f3ELb0EE7_S_baseES2_
0011192c W _ZNSt10_Iter_baseIPN7peparse13aux_symbol_f5ELb0EE7_S_baseES2_
001113c4 W _ZNSt10_Iter_baseIPN7peparse5relocELb0EE7_S_baseES2_
00111977 W _ZNSt10_Iter_baseISt13move_iteratorIPcELb1EE7_S_baseES2_
00110cea W _ZNSt10_Iter_baseISt13move_iteratorIPN7peparse10rich_entryEELb1EE7_S_baseES4_
00111162 W _ZNSt10_Iter_baseISt13move_iteratorIPN7peparse13aux_symbol_f1EELb1EE7_S_baseES4_
001111af W _ZNSt10_Iter_baseISt13move_iteratorIPN7peparse13aux_symbol_f2EELb1EE7_S_baseES4_
001111fc W _ZNSt10_Iter_baseISt13move_iteratorIPN7peparse13aux_symbol_f3EELb1EE7_S_baseES4_
00111254 W _ZNSt10_Iter_baseISt13move_iteratorIPN7peparse13aux_symbol_f5EELb1EE7_S_baseES4_
00110d42 W _ZNSt10_Iter_baseISt13move_iteratorIPN7peparse5relocEELb1EE7_S_baseES4_
00247a78 R _ZNSt10money_base18_S_default_patternE
00216540 T _ZNSt10money_base20_S_construct_patternEccc
002bd064 D _ZNSt10money_base8_S_atomsE
00216ca0 T _ZNSt10moneypunctIcLb0EE24_M_initialize_moneypunctEP15__locale_structPKc
002bf754 u _ZNSt10moneypunctIcLb0EE2idE
00244cd4 u _ZNSt10moneypunctIcLb0EE4intlE
00196b30 W _ZNSt10moneypunctIcLb0EEC1Ej
00196bf0 W _ZNSt10moneypunctIcLb0EEC1EP15__locale_structPKcj
00196b90 W _ZNSt10moneypunctIcLb0EEC1EPSt18__moneypunct_cacheIcLb0EEj
00196b30 W _ZNSt10moneypunctIcLb0EEC2Ej
00196bf0 W _ZNSt10moneypunctIcLb0EEC2EP15__locale_structPKcj
00196b90 W _ZNSt10moneypunctIcLb0EEC2EPSt18__moneypunct_cacheIcLb0EEj
00217490 T _ZNSt10moneypunctIcLb0EED0Ev
00217380 T _ZNSt10moneypunctIcLb0EED1Ev
00217380 T _ZNSt10moneypunctIcLb0EED2Ev
00216700 T _ZNSt10moneypunctIcLb1EE24_M_initialize_moneypunctEP15__locale_structPKc
002bf750 u _ZNSt10moneypunctIcLb1EE2idE
00244cd3 u _ZNSt10moneypunctIcLb1EE4intlE
00196ff0 W _ZNSt10moneypunctIcLb1EEC1Ej
001970b0 W _ZNSt10moneypunctIcLb1EEC1EP15__locale_structPKcj
00197050 W _ZNSt10moneypunctIcLb1EEC1EPSt18__moneypunct_cacheIcLb1EEj
00196ff0 W _ZNSt10moneypunctIcLb1EEC2Ej
001970b0 W _ZNSt10moneypunctIcLb1EEC2EP15__locale_structPKcj
00197050 W _ZNSt10moneypunctIcLb1EEC2EPSt18__moneypunct_cacheIcLb1EEj
00217350 T _ZNSt10moneypunctIcLb1EED0Ev
00217240 T _ZNSt10moneypunctIcLb1EED1Ev
00217240 T _ZNSt10moneypunctIcLb1EED2Ev
00217b10 T _ZNSt10moneypunctIwLb0EE24_M_initialize_moneypunctEP15__locale_structPKc
002bf8b4 u _ZNSt10moneypunctIwLb0EE2idE
00246ab7 u _ZNSt10moneypunctIwLb0EE4intlE
001f3bf0 W _ZNSt10moneypunctIwLb0EEC1Ej
001f3cb0 W _ZNSt10moneypunctIwLb0EEC1EP15__locale_structPKcj
001f3c50 W _ZNSt10moneypunctIwLb0EEC1EPSt18__moneypunct_cacheIwLb0EEj
001f3bf0 W _ZNSt10moneypunctIwLb0EEC2Ej
001f3cb0 W _ZNSt10moneypunctIwLb0EEC2EP15__locale_structPKcj
001f3c50 W _ZNSt10moneypunctIwLb0EEC2EPSt18__moneypunct_cacheIwLb0EEj
00218390 T _ZNSt10moneypunctIwLb0EED0Ev
00218290 T _ZNSt10moneypunctIwLb0EED1Ev
00218290 T _ZNSt10moneypunctIwLb0EED2Ev
002174c0 T _ZNSt10moneypunctIwLb1EE24_M_initialize_moneypunctEP15__locale_structPKc
002bf8b0 u _ZNSt10moneypunctIwLb1EE2idE
00246ab6 u _ZNSt10moneypunctIwLb1EE4intlE
001f40b0 W _ZNSt10moneypunctIwLb1EEC1Ej
001f4170 W _ZNSt10moneypunctIwLb1EEC1EP15__locale_structPKcj
001f4110 W _ZNSt10moneypunctIwLb1EEC1EPSt18__moneypunct_cacheIwLb1EEj
001f40b0 W _ZNSt10moneypunctIwLb1EEC2Ej
001f4170 W _ZNSt10moneypunctIwLb1EEC2EP15__locale_structPKcj
001f4110 W _ZNSt10moneypunctIwLb1EEC2EPSt18__moneypunct_cacheIwLb1EEj
00218260 T _ZNSt10moneypunctIwLb1EED0Ev
00218160 T _ZNSt10moneypunctIwLb1EED1Ev
00218160 T _ZNSt10moneypunctIwLb1EED2Ev
002bd060 D _ZNSt10__num_base11_S_atoms_inE
002bd05c D _ZNSt10__num_base12_S_atoms_outE
002200d0 T _ZNSt10__num_base15_S_format_floatERKSt8ios_basePcc
0012125a W _ZNSt10shared_ptrI14CUnpackManagerEaSEOS1_
00121146 W _ZNSt10shared_ptrI14CUnpackManagerEC1EDn
0012118a W _ZNSt10shared_ptrI14CUnpackManagerEC1ERKS1_
00121116 W _ZNSt10shared_ptrI14CUnpackManagerEC1Ev
0012123e W _ZNSt10shared_ptrI14CUnpackManagerEC1IS0_EEPT_
0012118a W _ZNSt10shared_ptrI14CUnpackManagerEC2ERKS1_
0012123e W _ZNSt10shared_ptrI14CUnpackManagerEC2IS0_EEPT_
0012112e W _ZNSt10shared_ptrI14CUnpackManagerED1Ev
0012112e W _ZNSt10shared_ptrI14CUnpackManagerED2Ev
00101f44 W _ZNSt11char_traitsIcE6assignERcRKc
00101f7e W _ZNSt11char_traitsIcE6lengthEPKc
00101f55 W _ZNSt11char_traitsIcE7compareEPKcS2_j
00101fb1 W _ZNSt11char_traitsIDsE4copyEPDsPKDsj
00101f9f W _ZNSt11char_traitsIDsE6assignERDsRKDs
001100c0 W _ZNSt11__copy_moveILb0ELb1ESt26random_access_iterator_tagE8__copy_mIhEEPT_PKS3_S6_S4_
00111a0f W _ZNSt11__copy_moveILb0ELb1ESt26random_access_iterator_tagE8__copy_mIN7peparse13aux_symbol_f1EEEPT_PKS5_S8_S6_
00111a6b W _ZNSt11__copy_moveILb0ELb1ESt26random_access_iterator_tagE8__copy_mIN7peparse13aux_symbol_f2EEEPT_PKS5_S8_S6_
00111ac9 W _ZNSt11__copy_moveILb0ELb1ESt26random_access_iterator_tagE8__copy_mIN7peparse13aux_symbol_f3EEEPT_PKS5_S8_S6_
00111b27 W _ZNSt11__copy_moveILb0ELb1ESt26random_access_iterator_tagE8__copy_mIN7peparse13aux_symbol_f5EEEPT_PKS5_S8_S6_
00111dd0 W _ZNSt11__copy_moveILb1ELb1ESt26random_access_iterator_tagE8__copy_mIcEEPT_PKS3_S6_S4_
00111374 W _ZNSt11__copy_moveILb1ELb1ESt26random_access_iterator_tagE8__copy_mIN7peparse10rich_entryEEEPT_PKS5_S8_S6_
0011182e W _ZNSt11__copy_moveILb1ELb1ESt26random_access_iterator_tagE8__copy_mIN7peparse13aux_symbol_f1EEEPT_PKS5_S8_S6_
00111884 W _ZNSt11__copy_moveILb1ELb1ESt26random_access_iterator_tagE8__copy_mIN7peparse13aux_symbol_f2EEEPT_PKS5_S8_S6_
001118dc W _ZNSt11__copy_moveILb1ELb1ESt26random_access_iterator_tagE8__copy_mIN7peparse13aux_symbol_f3EEEPT_PKS5_S8_S6_
00111934 W _ZNSt11__copy_moveILb1ELb1ESt26random_access_iterator_tagE8__copy_mIN7peparse13aux_symbol_f5EEEPT_PKS5_S8_S6_
001113cc W _ZNSt11__copy_moveILb1ELb1ESt26random_access_iterator_tagE8__copy_mIN7peparse5relocEEEPT_PKS5_S8_S6_
002228b0 T _ZNSt11logic_erroraSERKS_
00222950 T _ZNSt11logic_errorC1EPKc
0022bcc0 T _ZNSt11logic_errorC1ERKNSt7__cxx1112basic_stringIcSt11char_traitsIcESaIcEEE
00222870 T _ZNSt11logic_errorC1ERKS_
0021eb70 T _ZNSt11logic_errorC1ERKSs
00222950 T _ZNSt11logic_errorC2EPKc
0022bcc0 T _ZNSt11logic_errorC2ERKNSt7__cxx1112basic_stringIcSt11char_traitsIcESaIcEEE
00222870 T _ZNSt11logic_errorC2ERKS_
0021eb70 T _ZNSt11logic_errorC2ERKSs
0021e7c0 T _ZNSt11logic_errorD0Ev
0021e710 T _ZNSt11logic_errorD1Ev
0021e710 T _ZNSt11logic_errorD2Ev
00121638 W _ZNSt11_Mutex_baseILN9__gnu_cxx12_Lock_policyE2EEC1Ev
00121638 W _ZNSt11_Mutex_baseILN9__gnu_cxx12_Lock_policyE2EEC2Ev
00222af0 T _ZNSt11range_errorC1EPKc
0022be20 T _ZNSt11range_errorC1ERKNSt7__cxx1112basic_stringIcSt11char_traitsIcESaIcEEE
0021ecd0 T _ZNSt11range_errorC1ERKSs
00222af0 T _ZNSt11range_errorC2EPKc
0022be20 T _ZNSt11range_errorC2ERKNSt7__cxx1112basic_stringIcSt11char_traitsIcESaIcEEE
0021ecd0 T _ZNSt11range_errorC2ERKSs
0021ea80 T _ZNSt11range_errorD0Ev
0021ea50 T _ZNSt11range_errorD1Ev
0021ea50 T _ZNSt11range_errorD2Ev
00222f00 T _ZNSt11regex_errorC1ENSt15regex_constants10error_typeE
00222f00 T _ZNSt11regex_errorC2ENSt15regex_constants10error_typeE
00222ed0 T _ZNSt11regex_errorD0Ev
00222ea0 T _ZNSt11regex_errorD1Ev
00222ea0 T _ZNSt11regex_errorD2Ev
002197d0 T _ZNSt11__timepunctIcE23_M_initialize_timepunctEP15__locale_struct
002bf738 u _ZNSt11__timepunctIcE2idE
00198430 W _ZNSt11__timepunctIcEC1Ej
00198510 W _ZNSt11__timepunctIcEC1EP15__locale_structPKcj
001984a0 W _ZNSt11__timepunctIcEC1EPSt17__timepunct_cacheIcEj
00198430 W _ZNSt11__timepunctIcEC2Ej
00198510 W _ZNSt11__timepunctIcEC2EP15__locale_structPKcj
001984a0 W _ZNSt11__timepunctIcEC2EPSt17__timepunct_cacheIcEj
00196380 W _ZNSt11__timepunctIcED0Ev
00196310 W _ZNSt11__timepunctIcED1Ev
00196310 W _ZNSt11__timepunctIcED2Ev
0021a010 T _ZNSt11__timepunctIwE23_M_initialize_timepunctEP15__locale_struct
002bf898 u _ZNSt11__timepunctIwE2idE
001f54e0 W _ZNSt11__timepunctIwEC1Ej
001f55c0 W _ZNSt11__timepunctIwEC1EP15__locale_structPKcj
001f5550 W _ZNSt11__timepunctIwEC1EPSt17__timepunct_cacheIwEj
001f54e0 W _ZNSt11__timepunctIwEC2Ej
001f55c0 W _ZNSt11__timepunctIwEC2EP15__locale_structPKcj
001f5550 W _ZNSt11__timepunctIwEC2EPSt17__timepunct_cacheIwEj
001f3490 W _ZNSt11__timepunctIwED0Ev
001f3420 W _ZNSt11__timepunctIwED1Ev
001f3420 W _ZNSt11__timepunctIwED2Ev
0021cb80 T _ZNSt12__basic_fileIcE2fdEv
0021cba0 T _ZNSt12__basic_fileIcE4fileEv
0021cb20 T _ZNSt12__basic_fileIcE4openEPKcSt13_Ios_Openmodei
0021ce10 T _ZNSt12__basic_fileIcE4syncEv
0021cbb0 T _ZNSt12__basic_fileIcE5closeEv
0021cc50 T _ZNSt12__basic_fileIcE6xsgetnEPci
0021ccb0 T _ZNSt12__basic_fileIcE6xsputnEPKci
0021cdd0 T _ZNSt12__basic_fileIcE7seekoffExSt12_Ios_Seekdir
0021ca90 T _ZNSt12__basic_fileIcE8sys_openEiSt13_Ios_Openmode
0021ce30 T _ZNSt12__basic_fileIcE8sys_openEP8_IO_FILESt13_Ios_Openmode
0021ccf0 T _ZNSt12__basic_fileIcE8xsputn_2EPKciS2_i
0021ceb0 T _ZNSt12__basic_fileIcE9showmanycEv
0021ca70 T _ZNSt12__basic_fileIcEC1EP15pthread_mutex_t
0021ca70 T _ZNSt12__basic_fileIcEC2EP15pthread_mutex_t
0021cc30 T _ZNSt12__basic_fileIcED1Ev
0021cc30 T _ZNSt12__basic_fileIcED2Ev
00222d70 T _ZNSt12__cow_stringaSEOS_
00222c80 T _ZNSt12__cow_stringaSERKS_
00222d40 T _ZNSt12__cow_stringC1EOS_
00222c00 T _ZNSt12__cow_stringC1EPKcj
0022bc90 T _ZNSt12__cow_stringC1ERKNSt7__cxx1112basic_stringIcSt11char_traitsIcESaIcEEE
00222c50 T _ZNSt12__cow_stringC1ERKS_
00222bd0 T _ZNSt12__cow_stringC1ERKSs
00222bb0 T _ZNSt12__cow_stringC1Ev
00222d40 T _ZNSt12__cow_stringC2EOS_
00222c00 T _ZNSt12__cow_stringC2EPKcj
0022bc90 T _ZNSt12__cow_stringC2ERKNSt7__cxx1112basic_stringIcSt11char_traitsIcESaIcEEE
00222c50 T _ZNSt12__cow_stringC2ERKS_
00222bd0 T _ZNSt12__cow_stringC2ERKSs
00222bb0 T _ZNSt12__cow_stringC2Ev
00222cb0 T _ZNSt12__cow_stringD1Ev
00222cb0 T _ZNSt12__cow_stringD2Ev
001ac940 T _ZNSt12ctype_bynameIcEC1EPKcj
001c5270 T _ZNSt12ctype_bynameIcEC1ERKNSt7__cxx1112basic_stringIcSt11char_traitsIcESaIcEEEj
00199110 T _ZNSt12ctype_bynameIcEC1ERKSsj
001ac940 T _ZNSt12ctype_bynameIcEC2EPKcj
001c5270 T _ZNSt12ctype_bynameIcEC2ERKNSt7__cxx1112basic_stringIcSt11char_traitsIcESaIcEEEj
00199110 T _ZNSt12ctype_bynameIcEC2ERKSsj
001ac8e0 T _ZNSt12ctype_bynameIcED0Ev
001ac8b0 T _ZNSt12ctype_bynameIcED1Ev
001ac8b0 T _ZNSt12ctype_bynameIcED2Ev
001ad720 T _ZNSt12ctype_bynameIwEC1EPKcj
001b2df0 T _ZNSt12ctype_bynameIwEC1ERKNSt7__cxx1112basic_stringIcSt11char_traitsIcESaIcEEEj
001f61c0 T _ZNSt12ctype_bynameIwEC1ERKSsj
001ad720 T _ZNSt12ctype_bynameIwEC2EPKcj
001b2df0 T _ZNSt12ctype_bynameIwEC2ERKNSt7__cxx1112basic_stringIcSt11char_traitsIcESaIcEEEj
001f61c0 T _ZNSt12ctype_bynameIwEC2ERKSsj
001ad400 T _ZNSt12ctype_bynameIwED0Ev
001ad370 T _ZNSt12ctype_bynameIwED1Ev
001ad370 T _ZNSt12ctype_bynameIwED2Ev
0011a14d W _ZNSt12_Destroy_auxILb0EE9__destroyIP16NESTED_FILE_INFOEEvT_S4_
0011d565 W _ZNSt12_Destroy_auxILb0EE9__destroyIP8Cab_InfoEEvT_S4_
0010bdc5 W _ZNSt12_Destroy_auxILb0EE9__destroyIPN7peparse13aux_symbol_f4EEEvT_S5_
0010c882 W _ZNSt12_Destroy_auxILb0EE9__destroyIPN7peparse6symbolEEEvT_S5_
0010c71f W _ZNSt12_Destroy_auxILb0EE9__destroyIPN7peparse7sectionEEEvT_S5_
0010c76e W _ZNSt12_Destroy_auxILb0EE9__destroyIPN7peparse8resourceEEEvT_S5_
0010c832 W _ZNSt12_Destroy_auxILb0EE9__destroyIPN7peparse9exportentEEEvT_S5_
0010c7be W _ZNSt12_Destroy_auxILb0EE9__destroyIPN7peparse9importentEEEvT_S5_
0011d5d5 W _ZNSt12_Destroy_auxILb0EE9__destroyIPNSt7__cxx1112basic_stringIcSt11char_traitsIcESaIcEEEEEvT_S9_
0010cb51 W _ZNSt12_Destroy_auxILb1EE9__destroyIPcEEvT_S3_
0010e4eb W _ZNSt12_Destroy_auxILb1EE9__destroyIPhEEvT_S3_
0010c702 W _ZNSt12_Destroy_auxILb1EE9__destroyIPN7peparse10rich_entryEEEvT_S5_
0010bcff W _ZNSt12_Destroy_auxILb1EE9__destroyIPN7peparse13aux_symbol_f1EEEvT_S5_
0010bd41 W _ZNSt12_Destroy_auxILb1EE9__destroyIPN7peparse13aux_symbol_f2EEEvT_S5_
0010bd83 W _ZNSt12_Destroy_auxILb1EE9__destroyIPN7peparse13aux_symbol_f3EEEvT_S5_
0010be31 W _ZNSt12_Destroy_auxILb1EE9__destroyIPN7peparse13aux_symbol_f5EEEvT_S5_
0010c80e W _ZNSt12_Destroy_auxILb1EE9__destroyIPN7peparse5relocEEEvT_S5_
002229c0 T _ZNSt12domain_errorC1EPKc
0022bd10 T _ZNSt12domain_errorC1ERKNSt7__cxx1112basic_stringIcSt11char_traitsIcESaIcEEE
0021ebc0 T _ZNSt12domain_errorC1ERKSs
002229c0 T _ZNSt12domain_errorC2EPKc
0022bd10 T _ZNSt12domain_errorC2ERKNSt7__cxx1112basic_stringIcSt11char_traitsIcESaIcEEE
0021ebc0 T _ZNSt12domain_errorC2ERKSs
0021e820 T _ZNSt12domain_errorD0Ev
0021e7f0 T _ZNSt12domain_errorD1Ev
0021e7f0 T _ZNSt12domain_errorD2Ev
001f2100 W _ZNSt12future_errorC1ESt10error_code
001f2100 W _ZNSt12future_errorC2ESt10error_code
00227660 T _ZNSt12future_errorD0Ev
00227630 T _ZNSt12future_errorD1Ev
00227630 T _ZNSt12future_errorD2Ev
00222a20 T _ZNSt12length_errorC1EPKc
0022bd70 T _ZNSt12length_errorC1ERKNSt7__cxx1112basic_stringIcSt11char_traitsIcESaIcEEE
0021ec20 T _ZNSt12length_errorC1ERKSs
00222a20 T _ZNSt12length_errorC2EPKc
0022bd70 T _ZNSt12length_errorC2ERKNSt7__cxx1112basic_stringIcSt11char_traitsIcESaIcEEE
0021ec20 T _ZNSt12length_errorC2ERKSs
0021e8e0 T _ZNSt12length_errorD0Ev
0021e8b0 T _ZNSt12length_errorD1Ev
0021e8b0 T _ZNSt12length_errorD2Ev
00222a50 T _ZNSt12out_of_rangeC1EPKc
0022bda0 T _ZNSt12out_of_rangeC1ERKNSt7__cxx1112basic_stringIcSt11char_traitsIcESaIcEEE
0021ec50 T _ZNSt12out_of_rangeC1ERKSs
00222a50 T _ZNSt12out_of_rangeC2EPKc
0022bda0 T _ZNSt12out_of_rangeC2ERKNSt7__cxx1112basic_stringIcSt11char_traitsIcESaIcEEE
0021ec50 T _ZNSt12out_of_rangeC2ERKSs
0021e940 T _ZNSt12out_of_rangeD0Ev
0021e910 T _ZNSt12out_of_rangeD1Ev
0021e910 T _ZNSt12out_of_rangeD2Ev
00121512 W _ZNSt12__shared_ptrI14CUnpackManagerLN9__gnu_cxx12_Lock_policyE2EE4swapERS3_
001213be W _ZNSt12__shared_ptrI14CUnpackManagerLN9__gnu_cxx12_Lock_policyE2EEaSEOS3_
00121320 W _ZNSt12__shared_ptrI14CUnpackManagerLN9__gnu_cxx12_Lock_policyE2EEC1EOS3_
0012115e W _ZNSt12__shared_ptrI14CUnpackManagerLN9__gnu_cxx12_Lock_policyE2EEC1ERKS3_
00121378 W _ZNSt12__shared_ptrI14CUnpackManagerLN9__gnu_cxx12_Lock_policyE2EEC1IS0_EEPT_
00121320 W _ZNSt12__shared_ptrI14CUnpackManagerLN9__gnu_cxx12_Lock_policyE2EEC2EOS3_
0012115e W _ZNSt12__shared_ptrI14CUnpackManagerLN9__gnu_cxx12_Lock_policyE2EEC2ERKS3_
001210d6 W _ZNSt12__shared_ptrI14CUnpackManagerLN9__gnu_cxx12_Lock_policyE2EEC2Ev
00121378 W _ZNSt12__shared_ptrI14CUnpackManagerLN9__gnu_cxx12_Lock_policyE2EEC2IS0_EEPT_
001210fa W _ZNSt12__shared_ptrI14CUnpackManagerLN9__gnu_cxx12_Lock_policyE2EED1Ev
001210fa W _ZNSt12__shared_ptrI14CUnpackManagerLN9__gnu_cxx12_Lock_policyE2EED2Ev
002225b0 T _ZNSt12__sso_stringaSEOS_
002224f0 T _ZNSt12__sso_stringaSERKS_
00222550 T _ZNSt12__sso_stringC1EOS_
002224b0 T _ZNSt12__sso_stringC1EPKcj
00222490 T _ZNSt12__sso_stringC1ERKNSt7__cxx1112basic_stringIcSt11char_traitsIcESaIcEEE
002224d0 T _ZNSt12__sso_stringC1ERKS_
00222b80 T _ZNSt12__sso_stringC1ERKSs
00222470 T _ZNSt12__sso_stringC1Ev
00222550 T _ZNSt12__sso_stringC2EOS_
002224b0 T _ZNSt12__sso_stringC2EPKcj
00222490 T _ZNSt12__sso_stringC2ERKNSt7__cxx1112basic_stringIcSt11char_traitsIcESaIcEEE
002224d0 T _ZNSt12__sso_stringC2ERKS_
00222b80 T _ZNSt12__sso_stringC2ERKSs
00222470 T _ZNSt12__sso_stringC2Ev
00222520 T _ZNSt12__sso_stringD1Ev
00222520 T _ZNSt12__sso_stringD2Ev
00222020 T _ZNSt12system_errorD0Ev
00221ff0 T _ZNSt12system_errorD1Ev
00221ff0 T _ZNSt12system_errorD2Ev
0011a042 W _ZNSt12_Vector_baseI16NESTED_FILE_INFOSaIS0_EE11_M_allocateEj
00119e9a W _ZNSt12_Vector_baseI16NESTED_FILE_INFOSaIS0_EE12_Vector_implC1Ev
00119e9a W _ZNSt12_Vector_baseI16NESTED_FILE_INFOSaIS0_EE12_Vector_implC2Ev
00119bfc W _ZNSt12_Vector_baseI16NESTED_FILE_INFOSaIS0_EE12_Vector_implD1Ev
00119bfc W _ZNSt12_Vector_baseI16NESTED_FILE_INFOSaIS0_EE12_Vector_implD2Ev
00119ee6 W _ZNSt12_Vector_baseI16NESTED_FILE_INFOSaIS0_EE13_M_deallocateEPS0_j
00119c70 W _ZNSt12_Vector_baseI16NESTED_FILE_INFOSaIS0_EE19_M_get_Tp_allocatorEv
00119c14 W _ZNSt12_Vector_baseI16NESTED_FILE_INFOSaIS0_EEC1Ev
00119c14 W _ZNSt12_Vector_baseI16NESTED_FILE_INFOSaIS0_EEC2Ev
00119c2c W _ZNSt12_Vector_baseI16NESTED_FILE_INFOSaIS0_EED1Ev
00119c2c W _ZNSt12_Vector_baseI16NESTED_FILE_INFOSaIS0_EED2Ev
0011d454 W _ZNSt12_Vector_baseI8Cab_InfoSaIS0_EE11_M_allocateEj
0011ce08 W _ZNSt12_Vector_baseI8Cab_InfoSaIS0_EE12_Vector_implC1Ev
0011ce08 W _ZNSt12_Vector_baseI8Cab_InfoSaIS0_EE12_Vector_implC2Ev
0011c81a W _ZNSt12_Vector_baseI8Cab_InfoSaIS0_EE12_Vector_implD1Ev
0011c81a W _ZNSt12_Vector_baseI8Cab_InfoSaIS0_EE12_Vector_implD2Ev
0011ce54 W _ZNSt12_Vector_baseI8Cab_InfoSaIS0_EE13_M_deallocateEPS0_j
0011c894 W _ZNSt12_Vector_baseI8Cab_InfoSaIS0_EE19_M_get_Tp_allocatorEv
0011c832 W _ZNSt12_Vector_baseI8Cab_InfoSaIS0_EEC1Ev
0011c832 W _ZNSt12_Vector_baseI8Cab_InfoSaIS0_EEC2Ev
0011c84a W _ZNSt12_Vector_baseI8Cab_InfoSaIS0_EED1Ev
0011c84a W _ZNSt12_Vector_baseI8Cab_InfoSaIS0_EED2Ev
0010cc70 W _ZNSt12_Vector_baseIcSaIcEE11_M_allocateEj
0010a674 W _ZNSt12_Vector_baseIcSaIcEE12_Vector_implC1Ev
0010a674 W _ZNSt12_Vector_baseIcSaIcEE12_Vector_implC2Ev
00107702 W _ZNSt12_Vector_baseIcSaIcEE12_Vector_implD1Ev
00107702 W _ZNSt12_Vector_baseIcSaIcEE12_Vector_implD2Ev
0010a6a8 W _ZNSt12_Vector_baseIcSaIcEE13_M_deallocateEPcj
00107772 W _ZNSt12_Vector_baseIcSaIcEE19_M_get_Tp_allocatorEv
0010771a W _ZNSt12_Vector_baseIcSaIcEEC1Ev
0010771a W _ZNSt12_Vector_baseIcSaIcEEC2Ev
00107732 W _ZNSt12_Vector_baseIcSaIcEED1Ev
00107732 W _ZNSt12_Vector_baseIcSaIcEED2Ev
0010e500 W _ZNSt12_Vector_baseIhSaIhEE11_M_allocateEj
0010ca68 W _ZNSt12_Vector_baseIhSaIhEE13_M_deallocateEPhj
0010a4ac W _ZNSt12_Vector_baseIhSaIhEE19_M_get_Tp_allocatorEv
0010882c W _ZNSt12_Vector_baseIN7peparse10rich_entryESaIS1_EE11_M_allocateEj
0010a124 W _ZNSt12_Vector_baseIN7peparse10rich_entryESaIS1_EE12_Vector_implC1Ev
0010a124 W _ZNSt12_Vector_baseIN7peparse10rich_entryESaIS1_EE12_Vector_implC2Ev
00107106 W _ZNSt12_Vector_baseIN7peparse10rich_entryESaIS1_EE12_Vector_implD1Ev
00107106 W _ZNSt12_Vector_baseIN7peparse10rich_entryESaIS1_EE12_Vector_implD2Ev
001088fc W _ZNSt12_Vector_baseIN7peparse10rich_entryESaIS1_EE13_M_deallocateEPS1_j
0010717a W _ZNSt12_Vector_baseIN7peparse10rich_entryESaIS1_EE19_M_get_Tp_allocatorEv
0010711e W _ZNSt12_Vector_baseIN7peparse10rich_entryESaIS1_EEC1Ev
0010711e W _ZNSt12_Vector_baseIN7peparse10rich_entryESaIS1_EEC2Ev
00107136 W _ZNSt12_Vector_baseIN7peparse10rich_entryESaIS1_EED1Ev
00107136 W _ZNSt12_Vector_baseIN7peparse10rich_entryESaIS1_EED2Ev
0010981a W _ZNSt12_Vector_baseIN7peparse13aux_symbol_f1ESaIS1_EE11_M_allocateEj
00111586 W _ZNSt12_Vector_baseIN7peparse13aux_symbol_f1ESaIS1_EE12_Vector_impl12_M_swap_dataERS4_
00111542 W _ZNSt12_Vector_baseIN7peparse13aux_symbol_f1ESaIS1_EE12_Vector_implC1EOS2_
0010ecfc W _ZNSt12_Vector_baseIN7peparse13aux_symbol_f1ESaIS1_EE12_Vector_implC1ERKS2_
0010909a W _ZNSt12_Vector_baseIN7peparse13aux_symbol_f1ESaIS1_EE12_Vector_implC1Ev
00111542 W _ZNSt12_Vector_baseIN7peparse13aux_symbol_f1ESaIS1_EE12_Vector_implC2EOS2_
0010ecfc W _ZNSt12_Vector_baseIN7peparse13aux_symbol_f1ESaIS1_EE12_Vector_implC2ERKS2_
0010909a W _ZNSt12_Vector_baseIN7peparse13aux_symbol_f1ESaIS1_EE12_Vector_implC2Ev
0010628a W _ZNSt12_Vector_baseIN7peparse13aux_symbol_f1ESaIS1_EE12_Vector_implD1Ev
0010628a W _ZNSt12_Vector_baseIN7peparse13aux_symbol_f1ESaIS1_EE12_Vector_implD2Ev
001090e6 W _ZNSt12_Vector_baseIN7peparse13aux_symbol_f1ESaIS1_EE13_M_deallocateEPS1_j
0010ed34 W _ZNSt12_Vector_baseIN7peparse13aux_symbol_f1ESaIS1_EE17_M_create_storageEj
001062fe W _ZNSt12_Vector_baseIN7peparse13aux_symbol_f1ESaIS1_EE19_M_get_Tp_allocatorEv
0010da46 W _ZNSt12_Vector_baseIN7peparse13aux_symbol_f1ESaIS1_EEC1EjRKS2_
00110fda W _ZNSt12_Vector_baseIN7peparse13aux_symbol_f1ESaIS1_EEC1EOS3_
001062a2 W _ZNSt12_Vector_baseIN7peparse13aux_symbol_f1ESaIS1_EEC1Ev
0010da46 W _ZNSt12_Vector_baseIN7peparse13aux_symbol_f1ESaIS1_EEC2EjRKS2_
00110fda W _ZNSt12_Vector_baseIN7peparse13aux_symbol_f1ESaIS1_EEC2EOS3_
001062a2 W _ZNSt12_Vector_baseIN7peparse13aux_symbol_f1ESaIS1_EEC2Ev
001062ba W _ZNSt12_Vector_baseIN7peparse13aux_symbol_f1ESaIS1_EED1Ev
001062ba W _ZNSt12_Vector_baseIN7peparse13aux_symbol_f1ESaIS1_EED2Ev
00109a0a W _ZNSt12_Vector_baseIN7peparse13aux_symbol_f2ESaIS1_EE11_M_allocateEj
00111618 W _ZNSt12_Vector_baseIN7peparse13aux_symbol_f2ESaIS1_EE12_Vector_impl12_M_swap_dataERS4_
001115d4 W _ZNSt12_Vector_baseIN7peparse13aux_symbol_f2ESaIS1_EE12_Vector_implC1EOS2_
0010eddc W _ZNSt12_Vector_baseIN7peparse13aux_symbol_f2ESaIS1_EE12_Vector_implC1ERKS2_
00109124 W _ZNSt12_Vector_baseIN7peparse13aux_symbol_f2ESaIS1_EE12_Vector_implC1Ev
001115d4 W _ZNSt12_Vector_baseIN7peparse13aux_symbol_f2ESaIS1_EE12_Vector_implC2EOS2_
0010eddc W _ZNSt12_Vector_baseIN7peparse13aux_symbol_f2ESaIS1_EE12_Vector_implC2ERKS2_
00109124 W _ZNSt12_Vector_baseIN7peparse13aux_symbol_f2ESaIS1_EE12_Vector_implC2Ev
00106320 W _ZNSt12_Vector_baseIN7peparse13aux_symbol_f2ESaIS1_EE12_Vector_implD1Ev
00106320 W _ZNSt12_Vector_baseIN7peparse13aux_symbol_f2ESaIS1_EE12_Vector_implD2Ev
00109170 W _ZNSt12_Vector_baseIN7peparse13aux_symbol_f2ESaIS1_EE13_M_deallocateEPS1_j
0010ee14 W _ZNSt12_Vector_baseIN7peparse13aux_symbol_f2ESaIS1_EE17_M_create_storageEj
00106394 W _ZNSt12_Vector_baseIN7peparse13aux_symbol_f2ESaIS1_EE19_M_get_Tp_allocatorEv
0010dba0 W _ZNSt12_Vector_baseIN7peparse13aux_symbol_f2ESaIS1_EEC1EjRKS2_
0011102a W _ZNSt12_Vector_baseIN7peparse13aux_symbol_f2ESaIS1_EEC1EOS3_
00106338 W _ZNSt12_Vector_baseIN7peparse13aux_symbol_f2ESaIS1_EEC1Ev
0010dba0 W _ZNSt12_Vector_baseIN7peparse13aux_symbol_f2ESaIS1_EEC2EjRKS2_
0011102a W _ZNSt12_Vector_baseIN7peparse13aux_symbol_f2ESaIS1_EEC2EOS3_
00106338 W _ZNSt12_Vector_baseIN7peparse13aux_symbol_f2ESaIS1_EEC2Ev
00106350 W _ZNSt12_Vector_baseIN7peparse13aux_symbol_f2ESaIS1_EED1Ev
00106350 W _ZNSt12_Vector_baseIN7peparse13aux_symbol_f2ESaIS1_EED2Ev
00109bfa W _ZNSt12_Vector_baseIN7peparse13aux_symbol_f3ESaIS1_EE11_M_allocateEj
001116aa W _ZNSt12_Vector_baseIN7peparse13aux_symbol_f3ESaIS1_EE12_Vector_impl12_M_swap_dataERS4_
00111666 W _ZNSt12_Vector_baseIN7peparse13aux_symbol_f3ESaIS1_EE12_Vector_implC1EOS2_
0010eebc W _ZNSt12_Vector_baseIN7peparse13aux_symbol_f3ESaIS1_EE12_Vector_implC1ERKS2_
001091ae W _ZNSt12_Vector_baseIN7peparse13aux_symbol_f3ESaIS1_EE12_Vector_implC1Ev
00111666 W _ZNSt12_Vector_baseIN7peparse13aux_symbol_f3ESaIS1_EE12_Vector_implC2EOS2_
0010eebc W _ZNSt12_Vector_baseIN7peparse13aux_symbol_f3ESaIS1_EE12_Vector_implC2ERKS2_
001091ae W _ZNSt12_Vector_baseIN7peparse13aux_symbol_f3ESaIS1_EE12_Vector_implC2Ev
001063b6 W _ZNSt12_Vector_baseIN7peparse13aux_symbol_f3ESaIS1_EE12_Vector_implD1Ev
001063b6 W _ZNSt12_Vector_baseIN7peparse13aux_symbol_f3ESaIS1_EE12_Vector_implD2Ev
001091fa W _ZNSt12_Vector_baseIN7peparse13aux_symbol_f3ESaIS1_EE13_M_deallocateEPS1_j
0010eef4 W _ZNSt12_Vector_baseIN7peparse13aux_symbol_f3ESaIS1_EE17_M_create_storageEj
0010642a W _ZNSt12_Vector_baseIN7peparse13aux_symbol_f3ESaIS1_EE19_M_get_Tp_allocatorEv
0010dcfa W _ZNSt12_Vector_baseIN7peparse13aux_symbol_f3ESaIS1_EEC1EjRKS2_
0011107a W _ZNSt12_Vector_baseIN7peparse13aux_symbol_f3ESaIS1_EEC1EOS3_
001063ce W _ZNSt12_Vector_baseIN7peparse13aux_symbol_f3ESaIS1_EEC1Ev
0010dcfa W _ZNSt12_Vector_baseIN7peparse13aux_symbol_f3ESaIS1_EEC2EjRKS2_
0011107a W _ZNSt12_Vector_baseIN7peparse13aux_symbol_f3ESaIS1_EEC2EOS3_
001063ce W _ZNSt12_Vector_baseIN7peparse13aux_symbol_f3ESaIS1_EEC2Ev
001063e6 W _ZNSt12_Vector_baseIN7peparse13aux_symbol_f3ESaIS1_EED1Ev
001063e6 W _ZNSt12_Vector_baseIN7peparse13aux_symbol_f3ESaIS1_EED2Ev
00109e54 W _ZNSt12_Vector_baseIN7peparse13aux_symbol_f4ESaIS1_EE11_M_allocateEj
0011173c W _ZNSt12_Vector_baseIN7peparse13aux_symbol_f4ESaIS1_EE12_Vector_impl12_M_swap_dataERS4_
001116f8 W _ZNSt12_Vector_baseIN7peparse13aux_symbol_f4ESaIS1_EE12_Vector_implC1EOS2_
0010ef9c W _ZNSt12_Vector_baseIN7peparse13aux_symbol_f4ESaIS1_EE12_Vector_implC1ERKS2_
00109238 W _ZNSt12_Vector_baseIN7peparse13aux_symbol_f4ESaIS1_EE12_Vector_implC1Ev
001116f8 W _ZNSt12_Vector_baseIN7peparse13aux_symbol_f4ESaIS1_EE12_Vector_implC2EOS2_
0010ef9c W _ZNSt12_Vector_baseIN7peparse13aux_symbol_f4ESaIS1_EE12_Vector_implC2ERKS2_
00109238 W _ZNSt12_Vector_baseIN7peparse13aux_symbol_f4ESaIS1_EE12_Vector_implC2Ev
0010644c W _ZNSt12_Vector_baseIN7peparse13aux_symbol_f4ESaIS1_EE12_Vector_implD1Ev
0010644c W _ZNSt12_Vector_baseIN7peparse13aux_symbol_f4ESaIS1_EE12_Vector_implD2Ev
00109284 W _ZNSt12_Vector_baseIN7peparse13aux_symbol_f4ESaIS1_EE13_M_deallocateEPS1_j
0010efd4 W _ZNSt12_Vector_baseIN7peparse13aux_symbol_f4ESaIS1_EE17_M_create_storageEj
001064c6 W _ZNSt12_Vector_baseIN7peparse13aux_symbol_f4ESaIS1_EE19_M_get_Tp_allocatorEv
0010de54 W _ZNSt12_Vector_baseIN7peparse13aux_symbol_f4ESaIS1_EEC1EjRKS2_
001110ca W _ZNSt12_Vector_baseIN7peparse13aux_symbol_f4ESaIS1_EEC1EOS3_
00106464 W _ZNSt12_Vector_baseIN7peparse13aux_symbol_f4ESaIS1_EEC1Ev
0010de54 W _ZNSt12_Vector_baseIN7peparse13aux_symbol_f4ESaIS1_EEC2EjRKS2_
001110ca W _ZNSt12_Vector_baseIN7peparse13aux_symbol_f4ESaIS1_EEC2EOS3_
00106464 W _ZNSt12_Vector_baseIN7peparse13aux_symbol_f4ESaIS1_EEC2Ev
0010647c W _ZNSt12_Vector_baseIN7peparse13aux_symbol_f4ESaIS1_EED1Ev
0010647c W _ZNSt12_Vector_baseIN7peparse13aux_symbol_f4ESaIS1_EED2Ev
0010a054 W _ZNSt12_Vector_baseIN7peparse13aux_symbol_f5ESaIS1_EE11_M_allocateEj
001117ce W _ZNSt12_Vector_baseIN7peparse13aux_symbol_f5ESaIS1_EE12_Vector_impl12_M_swap_dataERS4_
0011178a W _ZNSt12_Vector_baseIN7peparse13aux_symbol_f5ESaIS1_EE12_Vector_implC1EOS2_
0010f07c W _ZNSt12_Vector_baseIN7peparse13aux_symbol_f5ESaIS1_EE12_Vector_implC1ERKS2_
001092c2 W _ZNSt12_Vector_baseIN7peparse13aux_symbol_f5ESaIS1_EE12_Vector_implC1Ev
0011178a W _ZNSt12_Vector_baseIN7peparse13aux_symbol_f5ESaIS1_EE12_Vector_implC2EOS2_
0010f07c W _ZNSt12_Vector_baseIN7peparse13aux_symbol_f5ESaIS1_EE12_Vector_implC2ERKS2_
001092c2 W _ZNSt12_Vector_baseIN7peparse13aux_symbol_f5ESaIS1_EE12_Vector_implC2Ev
001064e8 W _ZNSt12_Vector_baseIN7peparse13aux_symbol_f5ESaIS1_EE12_Vector_implD1Ev
001064e8 W _ZNSt12_Vector_baseIN7peparse13aux_symbol_f5ESaIS1_EE12_Vector_implD2Ev
0010930e W _ZNSt12_Vector_baseIN7peparse13aux_symbol_f5ESaIS1_EE13_M_deallocateEPS1_j
0010f0b4 W _ZNSt12_Vector_baseIN7peparse13aux_symbol_f5ESaIS1_EE17_M_create_storageEj
0010655c W _ZNSt12_Vector_baseIN7peparse13aux_symbol_f5ESaIS1_EE19_M_get_Tp_allocatorEv
0010dfae W _ZNSt12_Vector_baseIN7peparse13aux_symbol_f5ESaIS1_EEC1EjRKS2_
0011111a W _ZNSt12_Vector_baseIN7peparse13aux_symbol_f5ESaIS1_EEC1EOS3_
00106500 W _ZNSt12_Vector_baseIN7peparse13aux_symbol_f5ESaIS1_EEC1Ev
0010dfae W _ZNSt12_Vector_baseIN7peparse13aux_symbol_f5ESaIS1_EEC2EjRKS2_
0011111a W _ZNSt12_Vector_baseIN7peparse13aux_symbol_f5ESaIS1_EEC2EOS3_
00106500 W _ZNSt12_Vector_baseIN7peparse13aux_symbol_f5ESaIS1_EEC2Ev
00106518 W _ZNSt12_Vector_baseIN7peparse13aux_symbol_f5ESaIS1_EED1Ev
00106518 W _ZNSt12_Vector_baseIN7peparse13aux_symbol_f5ESaIS1_EED2Ev
00108cf2 W _ZNSt12_Vector_baseIN7peparse5relocESaIS1_EE11_M_allocateEj
0010a2a4 W _ZNSt12_Vector_baseIN7peparse5relocESaIS1_EE12_Vector_implC1Ev
0010a2a4 W _ZNSt12_Vector_baseIN7peparse5relocESaIS1_EE12_Vector_implC2Ev
00107370 W _ZNSt12_Vector_baseIN7peparse5relocESaIS1_EE12_Vector_implD1Ev
00107370 W _ZNSt12_Vector_baseIN7peparse5relocESaIS1_EE12_Vector_implD2Ev
00108dc8 W _ZNSt12_Vector_baseIN7peparse5relocESaIS1_EE13_M_deallocateEPS1_j
001073ea W _ZNSt12_Vector_baseIN7peparse5relocESaIS1_EE19_M_get_Tp_allocatorEv
00107388 W _ZNSt12_Vector_baseIN7peparse5relocESaIS1_EEC1Ev
00107388 W _ZNSt12_Vector_baseIN7peparse5relocESaIS1_EEC2Ev
001073a0 W _ZNSt12_Vector_baseIN7peparse5relocESaIS1_EED1Ev
001073a0 W _ZNSt12_Vector_baseIN7peparse5relocESaIS1_EED2Ev
001095f6 W _ZNSt12_Vector_baseIN7peparse6symbolESaIS1_EE11_M_allocateEj
0010a370 W _ZNSt12_Vector_baseIN7peparse6symbolESaIS1_EE12_Vector_implC1Ev
0010a370 W _ZNSt12_Vector_baseIN7peparse6symbolESaIS1_EE12_Vector_implC2Ev
001074a8 W _ZNSt12_Vector_baseIN7peparse6symbolESaIS1_EE12_Vector_implD1Ev
001074a8 W _ZNSt12_Vector_baseIN7peparse6symbolESaIS1_EE12_Vector_implD2Ev
001096cc W _ZNSt12_Vector_baseIN7peparse6symbolESaIS1_EE13_M_deallocateEPS1_j
00107522 W _ZNSt12_Vector_baseIN7peparse6symbolESaIS1_EE19_M_get_Tp_allocatorEv
001074c0 W _ZNSt12_Vector_baseIN7peparse6symbolESaIS1_EEC1Ev
001074c0 W _ZNSt12_Vector_baseIN7peparse6symbolESaIS1_EEC2Ev
001074d8 W _ZNSt12_Vector_baseIN7peparse6symbolESaIS1_EED1Ev
001074d8 W _ZNSt12_Vector_baseIN7peparse6symbolESaIS1_EED2Ev
001085f6 W _ZNSt12_Vector_baseIN7peparse7sectionESaIS1_EE11_M_allocateEj
0010a414 W _ZNSt12_Vector_baseIN7peparse7sectionESaIS1_EE12_Vector_implC1ERKS2_
0010a18a W _ZNSt12_Vector_baseIN7peparse7sectionESaIS1_EE12_Vector_implC1Ev
0010a414 W _ZNSt12_Vector_baseIN7peparse7sectionESaIS1_EE12_Vector_implC2ERKS2_
0010a18a W _ZNSt12_Vector_baseIN7peparse7sectionESaIS1_EE12_Vector_implC2Ev
0010719c W _ZNSt12_Vector_baseIN7peparse7sectionESaIS1_EE12_Vector_implD1Ev
0010719c W _ZNSt12_Vector_baseIN7peparse7sectionESaIS1_EE12_Vector_implD2Ev
001086ac W _ZNSt12_Vector_baseIN7peparse7sectionESaIS1_EE13_M_deallocateEPS1_j
0010a44c W _ZNSt12_Vector_baseIN7peparse7sectionESaIS1_EE17_M_create_storageEj
00107216 W _ZNSt12_Vector_baseIN7peparse7sectionESaIS1_EE19_M_get_Tp_allocatorEv
001075ac W _ZNSt12_Vector_baseIN7peparse7sectionESaIS1_EEC1EjRKS2_
001071b4 W _ZNSt12_Vector_baseIN7peparse7sectionESaIS1_EEC1Ev
001075ac W _ZNSt12_Vector_baseIN7peparse7sectionESaIS1_EEC2EjRKS2_
001071b4 W _ZNSt12_Vector_baseIN7peparse7sectionESaIS1_EEC2Ev
001071cc W _ZNSt12_Vector_baseIN7peparse7sectionESaIS1_EED1Ev
001071cc W _ZNSt12_Vector_baseIN7peparse7sectionESaIS1_EED2Ev
001083d8 W _ZNSt12_Vector_baseIN7peparse8resourceESaIS1_EE11_M_allocateEj
0010a1d8 W _ZNSt12_Vector_baseIN7peparse8resourceESaIS1_EE12_Vector_implC1Ev
0010a1d8 W _ZNSt12_Vector_baseIN7peparse8resourceESaIS1_EE12_Vector_implC2Ev
00107238 W _ZNSt12_Vector_baseIN7peparse8resourceESaIS1_EE12_Vector_implD1Ev
00107238 W _ZNSt12_Vector_baseIN7peparse8resourceESaIS1_EE12_Vector_implD2Ev
0010848e W _ZNSt12_Vector_baseIN7peparse8resourceESaIS1_EE13_M_deallocateEPS1_j
001072b2 W _ZNSt12_Vector_baseIN7peparse8resourceESaIS1_EE19_M_get_Tp_allocatorEv
00107250 W _ZNSt12_Vector_baseIN7peparse8resourceESaIS1_EEC1Ev
00107250 W _ZNSt12_Vector_baseIN7peparse8resourceESaIS1_EEC2Ev
00107268 W _ZNSt12_Vector_baseIN7peparse8resourceESaIS1_EED1Ev
00107268 W _ZNSt12_Vector_baseIN7peparse8resourceESaIS1_EED2Ev
00108ad4 W _ZNSt12_Vector_baseIN7peparse9exportentESaIS1_EE11_M_allocateEj
0010a30a W _ZNSt12_Vector_baseIN7peparse9exportentESaIS1_EE12_Vector_implC1Ev
0010a30a W _ZNSt12_Vector_baseIN7peparse9exportentESaIS1_EE12_Vector_implC2Ev
0010740c W _ZNSt12_Vector_baseIN7peparse9exportentESaIS1_EE12_Vector_implD1Ev
0010740c W _ZNSt12_Vector_baseIN7peparse9exportentESaIS1_EE12_Vector_implD2Ev
00108baa W _ZNSt12_Vector_baseIN7peparse9exportentESaIS1_EE13_M_deallocateEPS1_j
00107486 W _ZNSt12_Vector_baseIN7peparse9exportentESaIS1_EE19_M_get_Tp_allocatorEv
00107424 W _ZNSt12_Vector_baseIN7peparse9exportentESaIS1_EEC1Ev
00107424 W _ZNSt12_Vector_baseIN7peparse9exportentESaIS1_EEC2Ev
0010743c W _ZNSt12_Vector_baseIN7peparse9exportentESaIS1_EED1Ev
0010743c W _ZNSt12_Vector_baseIN7peparse9exportentESaIS1_EED2Ev
00108fa0 W _ZNSt12_Vector_baseIN7peparse9importentESaIS1_EE11_M_allocateEj
0010a23e W _ZNSt12_Vector_baseIN7peparse9importentESaIS1_EE12_Vector_implC1Ev
0010a23e W _ZNSt12_Vector_baseIN7peparse9importentESaIS1_EE12_Vector_implC2Ev
001072d4 W _ZNSt12_Vector_baseIN7peparse9importentESaIS1_EE12_Vector_implD1Ev
001072d4 W _ZNSt12_Vector_baseIN7peparse9importentESaIS1_EE12_Vector_implD2Ev
00109076 W _ZNSt12_Vector_baseIN7peparse9importentESaIS1_EE13_M_deallocateEPS1_j
0010734e W _ZNSt12_Vector_baseIN7peparse9importentESaIS1_EE19_M_get_Tp_allocatorEv
001072ec W _ZNSt12_Vector_baseIN7peparse9importentESaIS1_EEC1Ev
001072ec W _ZNSt12_Vector_baseIN7peparse9importentESaIS1_EEC2Ev
00107304 W _ZNSt12_Vector_baseIN7peparse9importentESaIS1_EED1Ev
00107304 W _ZNSt12_Vector_baseIN7peparse9importentESaIS1_EED2Ev
0011d236 W _ZNSt12_Vector_baseINSt7__cxx1112basic_stringIcSt11char_traitsIcESaIcEEESaIS5_EE11_M_allocateEj
0011ce92 W _ZNSt12_Vector_baseINSt7__cxx1112basic_stringIcSt11char_traitsIcESaIcEEESaIS5_EE12_Vector_implC1Ev
0011ce92 W _ZNSt12_Vector_baseINSt7__cxx1112basic_stringIcSt11char_traitsIcESaIcEEESaIS5_EE12_Vector_implC2Ev
0011c8ce W _ZNSt12_Vector_baseINSt7__cxx1112basic_stringIcSt11char_traitsIcESaIcEEESaIS5_EE12_Vector_implD1Ev
0011c8ce W _ZNSt12_Vector_baseINSt7__cxx1112basic_stringIcSt11char_traitsIcESaIcEEESaIS5_EE12_Vector_implD2Ev
0011cede W _ZNSt12_Vector_baseINSt7__cxx1112basic_stringIcSt11char_traitsIcESaIcEEESaIS5_EE13_M_deallocateEPS5_j
0011c948 W _ZNSt12_Vector_baseINSt7__cxx1112basic_stringIcSt11char_traitsIcESaIcEEESaIS5_EE19_M_get_Tp_allocatorEv
0011c8e6 W _ZNSt12_Vector_baseINSt7__cxx1112basic_stringIcSt11char_traitsIcESaIcEEESaIS5_EEC1Ev
0011c8e6 W _ZNSt12_Vector_baseINSt7__cxx1112basic_stringIcSt11char_traitsIcESaIcEEESaIS5_EEC2Ev
0011c8fe W _ZNSt12_Vector_baseINSt7__cxx1112basic_stringIcSt11char_traitsIcESaIcEEESaIS5_EED1Ev
0011c8fe W _ZNSt12_Vector_baseINSt7__cxx1112basic_stringIcSt11char_traitsIcESaIcEEESaIS5_EED2Ev
00190020 T _ZNSt13bad_exceptionD0Ev
0018ff80 T _ZNSt13bad_exceptionD1Ev
0018ff80 T _ZNSt13bad_exceptionD2Ev
001df710 W _ZNSt13basic_filebufIcSt11char_traitsIcEE13_M_set_bufferEi
001dec70 W _ZNSt13basic_filebufIcSt11char_traitsIcEE14_M_get_ext_posER11__mbstate_t
001de4a0 W _ZNSt13basic_filebufIcSt11char_traitsIcEE15_M_create_pbackEv
001de4d0 W _ZNSt13basic_filebufIcSt11char_traitsIcEE16_M_destroy_pbackEv
001decd0 W _ZNSt13basic_filebufIcSt11char_traitsIcEE19_M_terminate_outputEv
001deaf0 W _ZNSt13basic_filebufIcSt11char_traitsIcEE22_M_convert_to_externalEPci
001dea70 W _ZNSt13basic_filebufIcSt11char_traitsIcEE26_M_destroy_internal_bufferEv
001dea20 W _ZNSt13basic_filebufIcSt11char_traitsIcEE27_M_allocate_internal_bufferEv
001e28f0 W _ZNSt13basic_filebufIcSt11char_traitsIcEE4openEPKcSt13_Ios_Openmode
001e2a00 W _ZNSt13basic_filebufIcSt11char_traitsIcEE4openERKNSt7__cxx1112basic_stringIcS1_SaIcEEESt13_Ios_Openmode
001de800 W _ZNSt13basic_filebufIcSt11char_traitsIcEE4swapERS2_
001dcf50 W _ZNSt13basic_filebufIcSt11char_traitsIcEE4syncEv
001e1ea0 W _ZNSt13basic_filebufIcSt11char_traitsIcEE5closeEv
001df4f0 W _ZNSt13basic_filebufIcSt11char_traitsIcEE5imbueERKSt6locale
001dcd00 W _ZNSt13basic_filebufIcSt11char_traitsIcEE6setbufEPci
001dd3d0 W _ZNSt13basic_filebufIcSt11char_traitsIcEE6xsgetnEPci
001dd6f0 W _ZNSt13basic_filebufIcSt11char_traitsIcEE6xsputnEPKci
001dee60 W _ZNSt13basic_filebufIcSt11char_traitsIcEE7_M_seekExSt12_Ios_Seekdir11__mbstate_t
001df190 W _ZNSt13basic_filebufIcSt11char_traitsIcEE7seekoffExSt12_Ios_SeekdirSt13_Ios_Openmode
001df430 W _ZNSt13basic_filebufIcSt11char_traitsIcEE7seekposESt4fposI11__mbstate_tESt13_Ios_Openmode
001def60 W _ZNSt13basic_filebufIcSt11char_traitsIcEE8overflowEi
001dcf80 W _ZNSt13basic_filebufIcSt11char_traitsIcEE9pbackfailEi
001dcde0 W _ZNSt13basic_filebufIcSt11char_traitsIcEE9showmanycEv
001ddaa0 W _ZNSt13basic_filebufIcSt11char_traitsIcEE9underflowEv
001e25b0 W _ZNSt13basic_filebufIcSt11char_traitsIcEEaSEOS2_
001de680 W _ZNSt13basic_filebufIcSt11char_traitsIcEEC1EOS2_
001de510 W _ZNSt13basic_filebufIcSt11char_traitsIcEEC1Ev
001de680 W _ZNSt13basic_filebufIcSt11char_traitsIcEEC2EOS2_
001de510 W _ZNSt13basic_filebufIcSt11char_traitsIcEEC2Ev
001e3de0 W _ZNSt13basic_filebufIcSt11char_traitsIcEED0Ev
001e1fe0 W _ZNSt13basic_filebufIcSt11char_traitsIcEED1Ev
001e1fe0 W _ZNSt13basic_filebufIcSt11char_traitsIcEED2Ev
001e13f0 W _ZNSt13basic_filebufIwSt11char_traitsIwEE13_M_set_bufferEi
001e0940 W _ZNSt13basic_filebufIwSt11char_traitsIwEE14_M_get_ext_posER11__mbstate_t
001e0150 W _ZNSt13basic_filebufIwSt11char_traitsIwEE15_M_create_pbackEv
001e0180 W _ZNSt13basic_filebufIwSt11char_traitsIwEE16_M_destroy_pbackEv
001e09b0 W _ZNSt13basic_filebufIwSt11char_traitsIwEE19_M_terminate_outputEv
001e07c0 W _ZNSt13basic_filebufIwSt11char_traitsIwEE22_M_convert_to_externalEPwi
001e0740 W _ZNSt13basic_filebufIwSt11char_traitsIwEE26_M_destroy_internal_bufferEv
001e06e0 W _ZNSt13basic_filebufIwSt11char_traitsIwEE27_M_allocate_internal_bufferEv
001e4d60 W _ZNSt13basic_filebufIwSt11char_traitsIwEE4openEPKcSt13_Ios_Openmode
001e4e70 W _ZNSt13basic_filebufIwSt11char_traitsIwEE4openERKNSt7__cxx1112basic_stringIcS0_IcESaIcEEESt13_Ios_Openmode
001e04b0 W _ZNSt13basic_filebufIwSt11char_traitsIwEE4swapERS2_
001dcf20 W _ZNSt13basic_filebufIwSt11char_traitsIwEE4syncEv
001e4320 W _ZNSt13basic_filebufIwSt11char_traitsIwEE5closeEv
001e11d0 W _ZNSt13basic_filebufIwSt11char_traitsIwEE5imbueERKSt6locale
001dcd70 W _ZNSt13basic_filebufIwSt11char_traitsIwEE6setbufEPwi
001dd0d0 W _ZNSt13basic_filebufIwSt11char_traitsIwEE6xsgetnEPwi
001dd820 W _ZNSt13basic_filebufIwSt11char_traitsIwEE6xsputnEPKwi
001e0b40 W _ZNSt13basic_filebufIwSt11char_traitsIwEE7_M_seekExSt12_Ios_Seekdir11__mbstate_t
001e0e70 W _ZNSt13basic_filebufIwSt11char_traitsIwEE7seekoffExSt12_Ios_SeekdirSt13_Ios_Openmode
001e1110 W _ZNSt13basic_filebufIwSt11char_traitsIwEE7seekposESt4fposI11__mbstate_tESt13_Ios_Openmode
001e0c40 W _ZNSt13basic_filebufIwSt11char_traitsIwEE8overflowEj
001dd950 W _ZNSt13basic_filebufIwSt11char_traitsIwEE9pbackfailEj
001dce80 W _ZNSt13basic_filebufIwSt11char_traitsIwEE9showmanycEv
001ddf90 W _ZNSt13basic_filebufIwSt11char_traitsIwEE9underflowEv
001e4a30 W _ZNSt13basic_filebufIwSt11char_traitsIwEEaSEOS2_
001e0330 W _ZNSt13basic_filebufIwSt11char_traitsIwEEC1EOS2_
001e01c0 W _ZNSt13basic_filebufIwSt11char_traitsIwEEC1Ev
001e0330 W _ZNSt13basic_filebufIwSt11char_traitsIwEEC2EOS2_
001e01c0 W _ZNSt13basic_filebufIwSt11char_traitsIwEEC2Ev
001e60f0 W _ZNSt13basic_filebufIwSt11char_traitsIwEED0Ev
001e4460 W _ZNSt13basic_filebufIwSt11char_traitsIwEED1Ev
001e4460 W _ZNSt13basic_filebufIwSt11char_traitsIwEED2Ev
001e2c60 W _ZNSt13basic_fstreamIcSt11char_traitsIcEE4openEPKcSt13_Ios_Openmode
001e2b10 W _ZNSt13basic_fstreamIcSt11char_traitsIcEE4openERKNSt7__cxx1112basic_stringIcS1_SaIcEEESt13_Ios_Openmode
001e0040 W _ZNSt13basic_fstreamIcSt11char_traitsIcEE4swapERS2_
001e3c30 W _ZNSt13basic_fstreamIcSt11char_traitsIcEE5closeEv
001e00f0 W _ZNSt13basic_fstreamIcSt11char_traitsIcEE7is_openEv
001e27b0 W _ZNSt13basic_fstreamIcSt11char_traitsIcEEaSEOS2_
001dff00 W _ZNSt13basic_fstreamIcSt11char_traitsIcEEC1EOS2_
001e2cd0 W _ZNSt13basic_fstreamIcSt11char_traitsIcEEC1EPKcSt13_Ios_Openmode
001e2e40 W _ZNSt13basic_fstreamIcSt11char_traitsIcEEC1ERKNSt7__cxx1112basic_stringIcS1_SaIcEEESt13_Ios_Openmode
001e2490 W _ZNSt13basic_fstreamIcSt11char_traitsIcEEC1Ev
001dfdc0 W _ZNSt13basic_fstreamIcSt11char_traitsIcEEC2EOS2_
001e2fb0 W _ZNSt13basic_fstreamIcSt11char_traitsIcEEC2EPKcSt13_Ios_Openmode
001e3110 W _ZNSt13basic_fstreamIcSt11char_traitsIcEEC2ERKNSt7__cxx1112basic_stringIcS1_SaIcEEESt13_Ios_Openmode
001e2380 W _ZNSt13basic_fstreamIcSt11char_traitsIcEEC2Ev
001e3e40 W _ZNSt13basic_fstreamIcSt11char_traitsIcEED0Ev
001e4140 W _ZNSt13basic_fstreamIcSt11char_traitsIcEED1Ev
001e4200 W _ZNSt13basic_fstreamIcSt11char_traitsIcEED2Ev
001e50d0 W _ZNSt13basic_fstreamIwSt11char_traitsIwEE4openEPKcSt13_Ios_Openmode
001e4f80 W _ZNSt13basic_fstreamIwSt11char_traitsIwEE4openERKNSt7__cxx1112basic_stringIcS0_IcESaIcEEESt13_Ios_Openmode
001e1d10 W _ZNSt13basic_fstreamIwSt11char_traitsIwEE4swapERS2_
001e60a0 W _ZNSt13basic_fstreamIwSt11char_traitsIwEE5closeEv
001e1dc0 W _ZNSt13basic_fstreamIwSt11char_traitsIwEE7is_openEv
001e4c30 W _ZNSt13basic_fstreamIwSt11char_traitsIwEEaSEOS2_
001e1bd0 W _ZNSt13basic_fstreamIwSt11char_traitsIwEEC1EOS2_
001e5140 W _ZNSt13basic_fstreamIwSt11char_traitsIwEEC1EPKcSt13_Ios_Openmode
001e52b0 W _ZNSt13basic_fstreamIwSt11char_traitsIwEEC1ERKNSt7__cxx1112basic_stringIcS0_IcESaIcEEESt13_Ios_Openmode
001e4910 W _ZNSt13basic_fstreamIwSt11char_traitsIwEEC1Ev
001e1a90 W _ZNSt13basic_fstreamIwSt11char_traitsIwEEC2EOS2_
001e5420 W _ZNSt13basic_fstreamIwSt11char_traitsIwEEC2EPKcSt13_Ios_Openmode
001e5580 W _ZNSt13basic_fstreamIwSt11char_traitsIwEEC2ERKNSt7__cxx1112basic_stringIcS0_IcESaIcEEESt13_Ios_Openmode
001e4800 W _ZNSt13basic_fstreamIwSt11char_traitsIwEEC2Ev
001e6150 W _ZNSt13basic_fstreamIwSt11char_traitsIwEED0Ev
001e65b0 W _ZNSt13basic_fstreamIwSt11char_traitsIwEED1Ev
001e6670 W _ZNSt13basic_fstreamIwSt11char_traitsIwEED2Ev
0020a870 W _ZNSt13basic_istreamIwSt11char_traitsIwEE10_M_extractIbEERS2_RT_
0020ae70 W _ZNSt13basic_istreamIwSt11char_traitsIwEE10_M_extractIdEERS2_RT_
0020aff0 W _ZNSt13basic_istreamIwSt11char_traitsIwEE10_M_extractIeEERS2_RT_
0020acf0 W _ZNSt13basic_istreamIwSt11char_traitsIwEE10_M_extractIfEERS2_RT_
0020a3f0 W _ZNSt13basic_istreamIwSt11char_traitsIwEE10_M_extractIjEERS2_RT_
0020a570 W _ZNSt13basic_istreamIwSt11char_traitsIwEE10_M_extractIlEERS2_RT_
0020a6f0 W _ZNSt13basic_istreamIwSt11char_traitsIwEE10_M_extractImEERS2_RT_
0020b170 W _ZNSt13basic_istreamIwSt11char_traitsIwEE10_M_extractIPvEERS2_RT_
0020a270 W _ZNSt13basic_istreamIwSt11char_traitsIwEE10_M_extractItEERS2_RT_
0020a9f0 W _ZNSt13basic_istreamIwSt11char_traitsIwEE10_M_extractIxEERS2_RT_
0020ab70 W _ZNSt13basic_istreamIwSt11char_traitsIwEE10_M_extractIyEERS2_RT_
00208cb0 W _ZNSt13basic_istreamIwSt11char_traitsIwEE3getEPwi
00208ab0 W _ZNSt13basic_istreamIwSt11char_traitsIwEE3getEPwiw
00208f20 W _ZNSt13basic_istreamIwSt11char_traitsIwEE3getERSt15basic_streambufIwS1_E
00208d00 W _ZNSt13basic_istreamIwSt11char_traitsIwEE3getERSt15basic_streambufIwS1_Ew
00208950 W _ZNSt13basic_istreamIwSt11char_traitsIwEE3getERw
002087f0 W _ZNSt13basic_istreamIwSt11char_traitsIwEE3getEv
002090a0 W _ZNSt13basic_istreamIwSt11char_traitsIwEE4peekEv
002091c0 W _ZNSt13basic_istreamIwSt11char_traitsIwEE4readEPwi
002081a0 W _ZNSt13basic_istreamIwSt11char_traitsIwEE4swapERS2_
002096d0 W _ZNSt13basic_istreamIwSt11char_traitsIwEE4syncEv
00209920 W _ZNSt13basic_istreamIwSt11char_traitsIwEE5seekgESt4fposI11__mbstate_tE
00209a80 W _ZNSt13basic_istreamIwSt11char_traitsIwEE5seekgExSt12_Ios_Seekdir
002097f0 W _ZNSt13basic_istreamIwSt11char_traitsIwEE5tellgEv
00209590 W _ZNSt13basic_istreamIwSt11char_traitsIwEE5ungetEv
0022c240 T _ZNSt13basic_istreamIwSt11char_traitsIwEE6ignoreEi
0021e3d0 T _ZNSt13basic_istreamIwSt11char_traitsIwEE6ignoreEij
00208f70 W _ZNSt13basic_istreamIwSt11char_traitsIwEE6ignoreEv
00208230 W _ZNSt13basic_istreamIwSt11char_traitsIwEE6sentryC1ERS2_b
00208230 W _ZNSt13basic_istreamIwSt11char_traitsIwEE6sentryC2ERS2_b
00207e50 W _ZNSt13basic_istreamIwSt11char_traitsIwEE7getlineEPwi
0021e030 T _ZNSt13basic_istreamIwSt11char_traitsIwEE7getlineEPwiw
00209440 W _ZNSt13basic_istreamIwSt11char_traitsIwEE7putbackEw
002092e0 W _ZNSt13basic_istreamIwSt11char_traitsIwEE8readsomeEPwi
00208110 W _ZNSt13basic_istreamIwSt11char_traitsIwEEaSEOS2_
00208010 W _ZNSt13basic_istreamIwSt11char_traitsIwEEC1EOS2_
00207d20 W _ZNSt13basic_istreamIwSt11char_traitsIwEEC1EPSt15basic_streambufIwS1_E
00207ee0 W _ZNSt13basic_istreamIwSt11char_traitsIwEEC1Ev
00207f90 W _ZNSt13basic_istreamIwSt11char_traitsIwEEC2EOS2_
00207ce0 W _ZNSt13basic_istreamIwSt11char_traitsIwEEC2EPSt15basic_streambufIwS1_E
00207ea0 W _ZNSt13basic_istreamIwSt11char_traitsIwEEC2Ev
002047f0 W _ZNSt13basic_istreamIwSt11char_traitsIwEED0Ev
002047a0 W _ZNSt13basic_istreamIwSt11char_traitsIwEED1Ev
00207dd0 W _ZNSt13basic_istreamIwSt11char_traitsIwEED2Ev
00207df0 W _ZNSt13basic_istreamIwSt11char_traitsIwEErsEPFRS2_S3_E
00207e20 W _ZNSt13basic_istreamIwSt11char_traitsIwEErsEPFRSt8ios_baseS4_E
00207e00 W _ZNSt13basic_istreamIwSt11char_traitsIwEErsEPFRSt9basic_iosIwS1_ES5_E
002086c0 W _ZNSt13basic_istreamIwSt11char_traitsIwEErsEPSt15basic_streambufIwS1_E
0020a9c0 W _ZNSt13basic_istreamIwSt11char_traitsIwEErsERb
0020afc0 W _ZNSt13basic_istreamIwSt11char_traitsIwEErsERd
0020b140 W _ZNSt13basic_istreamIwSt11char_traitsIwEErsERe
0020ae40 W _ZNSt13basic_istreamIwSt11char_traitsIwEErsERf
00208570 W _ZNSt13basic_istreamIwSt11char_traitsIwEErsERi
0020a540 W _ZNSt13basic_istreamIwSt11char_traitsIwEErsERj
0020a6c0 W _ZNSt13basic_istreamIwSt11char_traitsIwEErsERl
0020a840 W _ZNSt13basic_istreamIwSt11char_traitsIwEErsERm
0020b2c0 W _ZNSt13basic_istreamIwSt11char_traitsIwEErsERPv
002083d0 W _ZNSt13basic_istreamIwSt11char_traitsIwEErsERs
0020a3c0 W _ZNSt13basic_istreamIwSt11char_traitsIwEErsERt
0020ab40 W _ZNSt13basic_istreamIwSt11char_traitsIwEErsERx
0020acc0 W _ZNSt13basic_istreamIwSt11char_traitsIwEErsERy
001eadd0 W _ZNSt13basic_ostreamIwSt11char_traitsIwEE3putEw
001eaaf0 W _ZNSt13basic_ostreamIwSt11char_traitsIwEE4swapERS2_
001ea370 W _ZNSt13basic_ostreamIwSt11char_traitsIwEE5flushEv
001ea560 W _ZNSt13basic_ostreamIwSt11char_traitsIwEE5seekpESt4fposI11__mbstate_tE
001ea690 W _ZNSt13basic_ostreamIwSt11char_traitsIwEE5seekpExSt12_Ios_Seekdir
001ea440 W _ZNSt13basic_ostreamIwSt11char_traitsIwEE5tellpEv
001eaf70 W _ZNSt13basic_ostreamIwSt11char_traitsIwEE5writeEPKwi
001eab60 W _ZNSt13basic_ostreamIwSt11char_traitsIwEE6sentryC1ERS2_
001eab60 W _ZNSt13basic_ostreamIwSt11char_traitsIwEE6sentryC2ERS2_
001eabd0 W _ZNSt13basic_ostreamIwSt11char_traitsIwEE6sentryD1Ev
001eabd0 W _ZNSt13basic_ostreamIwSt11char_traitsIwEE6sentryD2Ev
001ea320 W _ZNSt13basic_ostreamIwSt11char_traitsIwEE8_M_writeEPKwi
001ebe50 W _ZNSt13basic_ostreamIwSt11char_traitsIwEE9_M_insertIbEERS2_T_
001ec4b0 W _ZNSt13basic_ostreamIwSt11char_traitsIwEE9_M_insertIdEERS2_T_
001ec6f0 W _ZNSt13basic_ostreamIwSt11char_traitsIwEE9_M_insertIeEERS2_T_
001eb940 W _ZNSt13basic_ostreamIwSt11char_traitsIwEE9_M_insertIlEERS2_T_
001ebbe0 W _ZNSt13basic_ostreamIwSt11char_traitsIwEE9_M_insertImEERS2_T_
001ec910 W _ZNSt13basic_ostreamIwSt11char_traitsIwEE9_M_insertIPKvEERS2_T_
001ec070 W _ZNSt13basic_ostreamIwSt11char_traitsIwEE9_M_insertIxEERS2_T_
001ec290 W _ZNSt13basic_ostreamIwSt11char_traitsIwEE9_M_insertIyEERS2_T_
001eaa70 W _ZNSt13basic_ostreamIwSt11char_traitsIwEEaSEOS2_
001ea990 W _ZNSt13basic_ostreamIwSt11char_traitsIwEEC1EOS2_
001ea200 W _ZNSt13basic_ostreamIwSt11char_traitsIwEEC1EPSt15basic_streambufIwS1_E
001ea8b0 W _ZNSt13basic_ostreamIwSt11char_traitsIwEEC1ERSt14basic_iostreamIwS1_E
001ea7e0 W _ZNSt13basic_ostreamIwSt11char_traitsIwEEC1Ev
001ea920 W _ZNSt13basic_ostreamIwSt11char_traitsIwEEC2EOS2_
001ea1c0 W _ZNSt13basic_ostreamIwSt11char_traitsIwEEC2EPSt15basic_streambufIwS1_E
001ea890 W _ZNSt13basic_ostreamIwSt11char_traitsIwEEC2ERSt14basic_iostreamIwS1_E
001ea7b0 W _ZNSt13basic_ostreamIwSt11char_traitsIwEEC2Ev
001e75c0 W _ZNSt13basic_ostreamIwSt11char_traitsIwEED0Ev
001e7570 W _ZNSt13basic_ostreamIwSt11char_traitsIwEED1Ev
001ea2b0 W _ZNSt13basic_ostreamIwSt11char_traitsIwEED2Ev
001ec040 W _ZNSt13basic_ostreamIwSt11char_traitsIwEElsEb
001ec690 W _ZNSt13basic_ostreamIwSt11char_traitsIwEElsEd
001ec8e0 W _ZNSt13basic_ostreamIwSt11char_traitsIwEElsEe
001ec6c0 W _ZNSt13basic_ostreamIwSt11char_traitsIwEElsEf
001ebbb0 W _ZNSt13basic_ostreamIwSt11char_traitsIwEElsEi
001ebe20 W _ZNSt13basic_ostreamIwSt11char_traitsIwEElsEj
001ebb20 W _ZNSt13basic_ostreamIwSt11char_traitsIwEElsEl
001ebdc0 W _ZNSt13basic_ostreamIwSt11char_traitsIwEElsEm
001ea2d0 W _ZNSt13basic_ostreamIwSt11char_traitsIwEElsEPFRS2_S3_E
001ea300 W _ZNSt13basic_ostreamIwSt11char_traitsIwEElsEPFRSt8ios_baseS4_E
001ea2e0 W _ZNSt13basic_ostreamIwSt11char_traitsIwEElsEPFRSt9basic_iosIwS1_ES5_E
001ecaf0 W _ZNSt13basic_ostreamIwSt11char_traitsIwEElsEPKv
001eac40 W _ZNSt13basic_ostreamIwSt11char_traitsIwEElsEPSt15basic_streambufIwS1_E
001ebb50 W _ZNSt13basic_ostreamIwSt11char_traitsIwEElsEs
001ebdf0 W _ZNSt13basic_ostreamIwSt11char_traitsIwEElsEt
001ec260 W _ZNSt13basic_ostreamIwSt11char_traitsIwEElsEx
001ec480 W _ZNSt13basic_ostreamIwSt11char_traitsIwEElsEy
0020f0c0 W _ZNSt13__facet_shims10__time_getIcEESt19istreambuf_iteratorIT_St11char_traitsIS2_EESt17integral_constantIbLb0EEPKNSt6locale5facetES5_S5_RSt8ios_baseRSt12_Ios_IostateP2tmc
001ab5d0 W _ZNSt13__facet_shims10__time_getIcEESt19istreambuf_iteratorIT_St11char_traitsIS2_EESt17integral_constantIbLb1EEPKNSt6locale5facetES5_S5_RSt8ios_baseRSt12_Ios_IostateP2tmc
0020f200 W _ZNSt13__facet_shims10__time_getIwEESt19istreambuf_iteratorIT_St11char_traitsIS2_EESt17integral_constantIbLb0EEPKNSt6locale5facetES5_S5_RSt8ios_baseRSt12_Ios_IostateP2tmc
001ab710 W _ZNSt13__facet_shims10__time_getIwEESt19istreambuf_iteratorIT_St11char_traitsIS2_EESt17integral_constantIbLb1EEPKNSt6locale5facetES5_S5_RSt8ios_baseRSt12_Ios_IostateP2tmc
0020f340 W _ZNSt13__facet_shims11__money_getIcEESt19istreambuf_iteratorIT_St11char_traitsIS2_EESt17integral_constantIbLb0EEPKNSt6locale5facetES5_S5_bRSt8ios_baseRSt12_Ios_IostatePePNS_12__any_stringE
001ab850 W _ZNSt13__facet_shims11__money_getIcEESt19istreambuf_iteratorIT_St11char_traitsIS2_EESt17integral_constantIbLb1EEPKNSt6locale5facetES5_S5_bRSt8ios_baseRSt12_Ios_IostatePePNS_12__any_stringE
0020f4d0 W _ZNSt13__facet_shims11__money_getIwEESt19istreambuf_iteratorIT_St11char_traitsIS2_EESt17integral_constantIbLb0EEPKNSt6locale5facetES5_S5_bRSt8ios_baseRSt12_Ios_IostatePePNS_12__any_stringE
001ab9d0 W _ZNSt13__facet_shims11__money_getIwEESt19istreambuf_iteratorIT_St11char_traitsIS2_EESt17integral_constantIbLb1EEPKNSt6locale5facetES5_S5_bRSt8ios_baseRSt12_Ios_IostatePePNS_12__any_stringE
0020f660 W _ZNSt13__facet_shims11__money_putIcEESt19ostreambuf_iteratorIT_St11char_traitsIS2_EESt17integral_constantIbLb0EEPKNSt6locale5facetES5_bRSt8ios_baseS2_ePKNS_12__any_stringE
001abb50 W _ZNSt13__facet_shims11__money_putIcEESt19ostreambuf_iteratorIT_St11char_traitsIS2_EESt17integral_constantIbLb1EEPKNSt6locale5facetES5_bRSt8ios_baseS2_ePKNS_12__any_stringE
0020f7c0 W _ZNSt13__facet_shims11__money_putIwEESt19ostreambuf_iteratorIT_St11char_traitsIS2_EESt17integral_constantIbLb0EEPKNSt6locale5facetES5_bRSt8ios_baseS2_ePKNS_12__any_stringE
001abc70 W _ZNSt13__facet_shims11__money_putIwEESt19ostreambuf_iteratorIT_St11char_traitsIS2_EESt17integral_constantIbLb1EEPKNSt6locale5facetES5_bRSt8ios_baseS2_ePKNS_12__any_stringE
0020ed20 W _ZNSt13__facet_shims14__messages_getIcEEvSt17integral_constantIbLb0EEPKNSt6locale5facetERNS_12__any_stringEiiiPKT_j
001ab320 W _ZNSt13__facet_shims14__messages_getIcEEvSt17integral_constantIbLb1EEPKNSt6locale5facetERNS_12__any_stringEiiiPKT_j
0020eeb0 W _ZNSt13__facet_shims14__messages_getIwEEvSt17integral_constantIbLb0EEPKNSt6locale5facetERNS_12__any_stringEiiiPKT_j
001ab430 W _ZNSt13__facet_shims14__messages_getIwEEvSt17integral_constantIbLb1EEPKNSt6locale5facetERNS_12__any_stringEiiiPKT_j
0020eb40 W _ZNSt13__facet_shims15__messages_openIcEEiSt17integral_constantIbLb0EEPKNSt6locale5facetEPKcjRKS3_
001ab1c0 W _ZNSt13__facet_shims15__messages_openIcEEiSt17integral_constantIbLb1EEPKNSt6locale5facetEPKcjRKS3_
0020ec30 W _ZNSt13__facet_shims15__messages_openIwEEiSt17integral_constantIbLb0EEPKNSt6locale5facetEPKcjRKS3_
001ab270 W _ZNSt13__facet_shims15__messages_openIwEEiSt17integral_constantIbLb1EEPKNSt6locale5facetEPKcjRKS3_
0020f040 W _ZNSt13__facet_shims16__messages_closeIcEEvSt17integral_constantIbLb0EEPKNSt6locale5facetEi
001ab550 W _ZNSt13__facet_shims16__messages_closeIcEEvSt17integral_constantIbLb1EEPKNSt6locale5facetEi
0020f060 W _ZNSt13__facet_shims16__messages_closeIwEEvSt17integral_constantIbLb0EEPKNSt6locale5facetEi
001ab570 W _ZNSt13__facet_shims16__messages_closeIwEEvSt17integral_constantIbLb1EEPKNSt6locale5facetEi
0020da00 W _ZNSt13__facet_shims17__collate_compareIcEEiSt17integral_constantIbLb0EEPKNSt6locale5facetEPKT_S9_S9_S9_
001aa600 W _ZNSt13__facet_shims17__collate_compareIcEEiSt17integral_constantIbLb1EEPKNSt6locale5facetEPKT_S9_S9_S9_
0020da30 W _ZNSt13__facet_shims17__collate_compareIwEEiSt17integral_constantIbLb0EEPKNSt6locale5facetEPKT_S9_S9_S9_
001aa630 W _ZNSt13__facet_shims17__collate_compareIwEEiSt17integral_constantIbLb1EEPKNSt6locale5facetEPKT_S9_S9_S9_
0020da60 W _ZNSt13__facet_shims19__collate_transformIcEEvSt17integral_constantIbLb0EEPKNSt6locale5facetERNS_12__any_stringEPKT_SB_
001aa660 W _ZNSt13__facet_shims19__collate_transformIcEEvSt17integral_constantIbLb1EEPKNSt6locale5facetERNS_12__any_stringEPKT_SB_
0020db60 W _ZNSt13__facet_shims19__collate_transformIwEEvSt17integral_constantIbLb0EEPKNSt6locale5facetERNS_12__any_stringEPKT_SB_
001aa720 W _ZNSt13__facet_shims19__collate_transformIwEEvSt17integral_constantIbLb1EEPKNSt6locale5facetERNS_12__any_stringEPKT_SB_
0020f080 W _ZNSt13__facet_shims20__time_get_dateorderIcEENSt9time_base9dateorderESt17integral_constantIbLb0EEPKNSt6locale5facetE
001ab590 W _ZNSt13__facet_shims20__time_get_dateorderIcEENSt9time_base9dateorderESt17integral_constantIbLb1EEPKNSt6locale5facetE
0020f0a0 W _ZNSt13__facet_shims20__time_get_dateorderIwEENSt9time_base9dateorderESt17integral_constantIbLb0EEPKNSt6locale5facetE
001ab5b0 W _ZNSt13__facet_shims20__time_get_dateorderIwEENSt9time_base9dateorderESt17integral_constantIbLb1EEPKNSt6locale5facetE
0020d490 W _ZNSt13__facet_shims21__numpunct_fill_cacheIcEEvSt17integral_constantIbLb0EEPKNSt6locale5facetEPSt16__numpunct_cacheIT_E
001aa270 W _ZNSt13__facet_shims21__numpunct_fill_cacheIcEEvSt17integral_constantIbLb1EEPKNSt6locale5facetEPSt16__numpunct_cacheIT_E
0020d710 W _ZNSt13__facet_shims21__numpunct_fill_cacheIwEEvSt17integral_constantIbLb0EEPKNSt6locale5facetEPSt16__numpunct_cacheIT_E
001aa410 W _ZNSt13__facet_shims21__numpunct_fill_cacheIwEEvSt17integral_constantIbLb1EEPKNSt6locale5facetEPSt16__numpunct_cacheIT_E
0020dfc0 W _ZNSt13__facet_shims23__moneypunct_fill_cacheIcLb0EEEvSt17integral_constantIbLb0EEPKNSt6locale5facetEPSt18__moneypunct_cacheIT_XT0_EE
001aaa20 W _ZNSt13__facet_shims23__moneypunct_fill_cacheIcLb0EEEvSt17integral_constantIbLb1EEPKNSt6locale5facetEPSt18__moneypunct_cacheIT_XT0_EE
0020dc60 W _ZNSt13__facet_shims23__moneypunct_fill_cacheIcLb1EEEvSt17integral_constantIbLb0EEPKNSt6locale5facetEPSt18__moneypunct_cacheIT_XT0_EE
001aa7e0 W _ZNSt13__facet_shims23__moneypunct_fill_cacheIcLb1EEEvSt17integral_constantIbLb1EEPKNSt6locale5facetEPSt18__moneypunct_cacheIT_XT0_EE
0020e730 W _ZNSt13__facet_shims23__moneypunct_fill_cacheIwLb0EEEvSt17integral_constantIbLb0EEPKNSt6locale5facetEPSt18__moneypunct_cacheIT_XT0_EE
001aaf10 W _ZNSt13__facet_shims23__moneypunct_fill_cacheIwLb0EEEvSt17integral_constantIbLb1EEPKNSt6locale5facetEPSt18__moneypunct_cacheIT_XT0_EE
0020e320 W _ZNSt13__facet_shims23__moneypunct_fill_cacheIwLb1EEEvSt17integral_constantIbLb0EEPKNSt6locale5facetEPSt18__moneypunct_cacheIT_XT0_EE
001aac60 W _ZNSt13__facet_shims23__moneypunct_fill_cacheIwLb1EEEvSt17integral_constantIbLb1EEPKNSt6locale5facetEPSt18__moneypunct_cacheIT_XT0_EE
002277d0 T _ZNSt13__future_base12_Result_baseC1Ev
002277d0 T _ZNSt13__future_base12_Result_baseC2Ev
00227830 T _ZNSt13__future_base12_Result_baseD0Ev
00227800 T _ZNSt13__future_base12_Result_baseD1Ev
00227800 T _ZNSt13__future_base12_Result_baseD2Ev
00227860 T _ZNSt13__future_base13_State_baseV211_Make_ready6_M_setEv
00227890 T _ZNSt13__future_base13_State_baseV211_Make_ready6_S_runEPv
0011a2a0 W _ZNSt13move_iteratorIP16NESTED_FILE_INFOEC1ES1_
0011a2a0 W _ZNSt13move_iteratorIP16NESTED_FILE_INFOEC2ES1_
0011a398 W _ZNSt13move_iteratorIP16NESTED_FILE_INFOEppEv
0011d90e W _ZNSt13move_iteratorIP8Cab_InfoEC1ES1_
0011d90e W _ZNSt13move_iteratorIP8Cab_InfoEC2ES1_
0011db32 W _ZNSt13move_iteratorIP8Cab_InfoEppEv
0010f3e2 W _ZNSt13move_iteratorIPcEC1ES0_
0010f3e2 W _ZNSt13move_iteratorIPcEC2ES0_
0010d710 W _ZNSt13move_iteratorIPN7peparse10rich_entryEEC1ES2_
0010d710 W _ZNSt13move_iteratorIPN7peparse10rich_entryEEC2ES2_
0010e1a2 W _ZNSt13move_iteratorIPN7peparse13aux_symbol_f1EEC1ES2_
0010e1a2 W _ZNSt13move_iteratorIPN7peparse13aux_symbol_f1EEC2ES2_
0010e21e W _ZNSt13move_iteratorIPN7peparse13aux_symbol_f2EEC1ES2_
0010e21e W _ZNSt13move_iteratorIPN7peparse13aux_symbol_f2EEC2ES2_
0010e29a W _ZNSt13move_iteratorIPN7peparse13aux_symbol_f3EEC1ES2_
0010e29a W _ZNSt13move_iteratorIPN7peparse13aux_symbol_f3EEC2ES2_
0010e316 W _ZNSt13move_iteratorIPN7peparse13aux_symbol_f4EEC1ES2_
0010e316 W _ZNSt13move_iteratorIPN7peparse13aux_symbol_f4EEC2ES2_
0010ffa4 W _ZNSt13move_iteratorIPN7peparse13aux_symbol_f4EEppEv
0010e392 W _ZNSt13move_iteratorIPN7peparse13aux_symbol_f5EEC1ES2_
0010e392 W _ZNSt13move_iteratorIPN7peparse13aux_symbol_f5EEC2ES2_
0010d858 W _ZNSt13move_iteratorIPN7peparse5relocEEC1ES2_
0010d858 W _ZNSt13move_iteratorIPN7peparse5relocEEC2ES2_
0010e10e W _ZNSt13move_iteratorIPN7peparse6symbolEEC1ES2_
0010e10e W _ZNSt13move_iteratorIPN7peparse6symbolEEC2ES2_
0010fd86 W _ZNSt13move_iteratorIPN7peparse6symbolEEppEv
0010d582 W _ZNSt13move_iteratorIPN7peparse7sectionEEC1ES2_
0010d582 W _ZNSt13move_iteratorIPN7peparse7sectionEEC2ES2_
0010f8be W _ZNSt13move_iteratorIPN7peparse7sectionEEppEv
0010d4ee W _ZNSt13move_iteratorIPN7peparse8resourceEEC1ES2_
0010d4ee W _ZNSt13move_iteratorIPN7peparse8resourceEEC2ES2_
0010f798 W _ZNSt13move_iteratorIPN7peparse8resourceEEppEv
0010d7b6 W _ZNSt13move_iteratorIPN7peparse9exportentEEC1ES2_
0010d7b6 W _ZNSt13move_iteratorIPN7peparse9exportentEEC2ES2_
0010fa7e W _ZNSt13move_iteratorIPN7peparse9exportentEEppEv
0010d8fe W _ZNSt13move_iteratorIPN7peparse9importentEEC1ES2_
0010d8fe W _ZNSt13move_iteratorIPN7peparse9importentEEC2ES2_
0010fb86 W _ZNSt13move_iteratorIPN7peparse9importentEEppEv
0011d884 W _ZNSt13move_iteratorIPNSt7__cxx1112basic_stringIcSt11char_traitsIcESaIcEEEEC1ES6_
0011d884 W _ZNSt13move_iteratorIPNSt7__cxx1112basic_stringIcSt11char_traitsIcESaIcEEEEC2ES6_
0011dab6 W _ZNSt13move_iteratorIPNSt7__cxx1112basic_stringIcSt11char_traitsIcESaIcEEEEppEv
00213fa0 T _ZNSt13random_device14_M_init_pretr1ERKSs
00213ea0 T _ZNSt13random_device7_M_initERKSs
0010d346 W _ZNSt13_Rb_tree_nodeISt4pairIKtKNSt7__cxx1112basic_stringIcSt11char_traitsIcESaIcEEEEE9_M_valptrEv
0010f57a W _ZNSt13_Rb_tree_nodeISt4pairIKtKNSt7__cxx1112basic_stringIcSt11char_traitsIcESaIcEEEEEC1Ev
0010f57a W _ZNSt13_Rb_tree_nodeISt4pairIKtKNSt7__cxx1112basic_stringIcSt11char_traitsIcESaIcEEEEEC2Ev
0010d060 W _ZNSt13_Rb_tree_nodeISt4pairIKtNSt7__cxx1112basic_stringIcSt11char_traitsIcESaIcEEEEE9_M_valptrEv
0010f47e W _ZNSt13_Rb_tree_nodeISt4pairIKtNSt7__cxx1112basic_stringIcSt11char_traitsIcESaIcEEEEEC1Ev
0010f47e W _ZNSt13_Rb_tree_nodeISt4pairIKtNSt7__cxx1112basic_stringIcSt11char_traitsIcESaIcEEEEEC2Ev
00222920 T _ZNSt13runtime_erroraSERKS_
00222a80 T _ZNSt13runtime_errorC1EPKc
0022bdd0 T _ZNSt13runtime_errorC1ERKNSt7__cxx1112basic_stringIcSt11char_traitsIcESaIcEEE
002228e0 T _ZNSt13runtime_errorC1ERKS_
0021ec80 T _ZNSt13runtime_errorC1ERKSs
00222a80 T _ZNSt13runtime_errorC2EPKc
0022bdd0 T _ZNSt13runtime_errorC2ERKNSt7__cxx1112basic_stringIcSt11char_traitsIcESaIcEEE
002228e0 T _ZNSt13runtime_errorC2ERKS_
0021ec80 T _ZNSt13runtime_errorC2ERKSs
0021ea20 T _ZNSt13runtime_errorD0Ev
0021e970 T _ZNSt13runtime_errorD1Ev
0021e970 T _ZNSt13runtime_errorD2Ev
001e2b80 W _ZNSt14basic_ifstreamIcSt11char_traitsIcEE4openEPKcSt13_Ios_Openmode
001e2a30 W _ZNSt14basic_ifstreamIcSt11char_traitsIcEE4openERKNSt7__cxx1112basic_stringIcS1_SaIcEEESt13_Ios_Openmode
001df9b0 W _ZNSt14basic_ifstreamIcSt11char_traitsIcEE4swapERS2_
001e3b90 W _ZNSt14basic_ifstreamIcSt11char_traitsIcEE5closeEv
001dfa60 W _ZNSt14basic_ifstreamIcSt11char_traitsIcEE7is_openEv
001e2710 W _ZNSt14basic_ifstreamIcSt11char_traitsIcEEaSEOS2_
001df870 W _ZNSt14basic_ifstreamIcSt11char_traitsIcEEC1EOS2_
001e36f0 W _ZNSt14basic_ifstreamIcSt11char_traitsIcEEC1EPKcSt13_Ios_Openmode
001e3840 W _ZNSt14basic_ifstreamIcSt11char_traitsIcEEC1ERKNSt7__cxx1112basic_stringIcS1_SaIcEEESt13_Ios_Openmode
001e20e0 W _ZNSt14basic_ifstreamIcSt11char_traitsIcEEC1Ev
001df790 W _ZNSt14basic_ifstreamIcSt11char_traitsIcEEC2EOS2_
001e3990 W _ZNSt14basic_ifstreamIcSt11char_traitsIcEEC2EPKcSt13_Ios_Openmode
001e3a90 W _ZNSt14basic_ifstreamIcSt11char_traitsIcEEC2ERKNSt7__cxx1112basic_stringIcS1_SaIcEEESt13_Ios_Openmode
001e2030 W _ZNSt14basic_ifstreamIcSt11char_traitsIcEEC2Ev
001e3c80 W _ZNSt14basic_ifstreamIcSt11char_traitsIcEED0Ev
001e3fa0 W _ZNSt14basic_ifstreamIcSt11char_traitsIcEED1Ev
001e40c0 W _ZNSt14basic_ifstreamIcSt11char_traitsIcEED2Ev
001e4ff0 W _ZNSt14basic_ifstreamIwSt11char_traitsIwEE4openEPKcSt13_Ios_Openmode
001e4ea0 W _ZNSt14basic_ifstreamIwSt11char_traitsIwEE4openERKNSt7__cxx1112basic_stringIcS0_IcESaIcEEESt13_Ios_Openmode
001e1690 W _ZNSt14basic_ifstreamIwSt11char_traitsIwEE4swapERS2_
001e6000 W _ZNSt14basic_ifstreamIwSt11char_traitsIwEE5closeEv
001e1740 W _ZNSt14basic_ifstreamIwSt11char_traitsIwEE7is_openEv
001e4b90 W _ZNSt14basic_ifstreamIwSt11char_traitsIwEEaSEOS2_
001e1550 W _ZNSt14basic_ifstreamIwSt11char_traitsIwEEC1EOS2_
001e5b60 W _ZNSt14basic_ifstreamIwSt11char_traitsIwEEC1EPKcSt13_Ios_Openmode
001e5cb0 W _ZNSt14basic_ifstreamIwSt11char_traitsIwEEC1ERKNSt7__cxx1112basic_stringIcS0_IcESaIcEEESt13_Ios_Openmode
001e4560 W _ZNSt14basic_ifstreamIwSt11char_traitsIwEEC1Ev
001e1470 W _ZNSt14basic_ifstreamIwSt11char_traitsIwEEC2EOS2_
001e5e00 W _ZNSt14basic_ifstreamIwSt11char_traitsIwEEC2EPKcSt13_Ios_Openmode
001e5f00 W _ZNSt14basic_ifstreamIwSt11char_traitsIwEEC2ERKNSt7__cxx1112basic_stringIcS0_IcESaIcEEESt13_Ios_Openmode
001e44b0 W _ZNSt14basic_ifstreamIwSt11char_traitsIwEEC2Ev
001e62c0 W _ZNSt14basic_ifstreamIwSt11char_traitsIwEED0Ev
001e6410 W _ZNSt14basic_ifstreamIwSt11char_traitsIwEED1Ev
001e6530 W _ZNSt14basic_ifstreamIwSt11char_traitsIwEED2Ev
001e7430 W _ZNSt14basic_iostreamIwSt11char_traitsIwEE4swapERS2_
001e73a0 W _ZNSt14basic_iostreamIwSt11char_traitsIwEEaSEOS2_
001e7280 W _ZNSt14basic_iostreamIwSt11char_traitsIwEEC1EOS2_
001e6f30 W _ZNSt14basic_iostreamIwSt11char_traitsIwEEC1EPSt15basic_streambufIwS1_E
001e70e0 W _ZNSt14basic_iostreamIwSt11char_traitsIwEEC1Ev
001e71c0 W _ZNSt14basic_iostreamIwSt11char_traitsIwEEC2EOS2_
001e6ea0 W _ZNSt14basic_iostreamIwSt11char_traitsIwEEC2EPSt15basic_streambufIwS1_E
001e7050 W _ZNSt14basic_iostreamIwSt11char_traitsIwEEC2Ev
001e6810 W _ZNSt14basic_iostreamIwSt11char_traitsIwEED0Ev
001e67c0 W _ZNSt14basic_iostreamIwSt11char_traitsIwEED1Ev
001e7010 W _ZNSt14basic_iostreamIwSt11char_traitsIwEED2Ev
001e2bf0 W _ZNSt14basic_ofstreamIcSt11char_traitsIcEE4openEPKcSt13_Ios_Openmode
001e2aa0 W _ZNSt14basic_ofstreamIcSt11char_traitsIcEE4openERKNSt7__cxx1112basic_stringIcS1_SaIcEEESt13_Ios_Openmode
001dfcc0 W _ZNSt14basic_ofstreamIcSt11char_traitsIcEE4swapERS2_
001e3be0 W _ZNSt14basic_ofstreamIcSt11char_traitsIcEE5closeEv
001dfd60 W _ZNSt14basic_ofstreamIcSt11char_traitsIcEE7is_openEv
001e2850 W _ZNSt14basic_ofstreamIcSt11char_traitsIcEEaSEOS2_
001dfb90 W _ZNSt14basic_ofstreamIcSt11char_traitsIcEEC1EOS2_
001e3450 W _ZNSt14basic_ofstreamIcSt11char_traitsIcEEC1EPKcSt13_Ios_Openmode
001e35a0 W _ZNSt14basic_ofstreamIcSt11char_traitsIcEEC1ERKNSt7__cxx1112basic_stringIcS1_SaIcEEESt13_Ios_Openmode
001e2280 W _ZNSt14basic_ofstreamIcSt11char_traitsIcEEC1Ev
001dfac0 W _ZNSt14basic_ofstreamIcSt11char_traitsIcEEC2EOS2_
001e3270 W _ZNSt14basic_ofstreamIcSt11char_traitsIcEEC2EPKcSt13_Ios_Openmode
001e3360 W _ZNSt14basic_ofstreamIcSt11char_traitsIcEEC2ERKNSt7__cxx1112basic_stringIcS1_SaIcEEESt13_Ios_Openmode
001e21e0 W _ZNSt14basic_ofstreamIcSt11char_traitsIcEEC2Ev
001e3d30 W _ZNSt14basic_ofstreamIcSt11char_traitsIcEED0Ev
001e3f00 W _ZNSt14basic_ofstreamIcSt11char_traitsIcEED1Ev
001e4040 W _ZNSt14basic_ofstreamIcSt11char_traitsIcEED2Ev
001e5060 W _ZNSt14basic_ofstreamIwSt11char_traitsIwEE4openEPKcSt13_Ios_Openmode
001e4f10 W _ZNSt14basic_ofstreamIwSt11char_traitsIwEE4openERKNSt7__cxx1112basic_stringIcS0_IcESaIcEEESt13_Ios_Openmode
001e1990 W _ZNSt14basic_ofstreamIwSt11char_traitsIwEE4swapERS2_
001e6050 W _ZNSt14basic_ofstreamIwSt11char_traitsIwEE5closeEv
001e1a30 W _ZNSt14basic_ofstreamIwSt11char_traitsIwEE7is_openEv
001e4cd0 W _ZNSt14basic_ofstreamIwSt11char_traitsIwEEaSEOS2_
001e1860 W _ZNSt14basic_ofstreamIwSt11char_traitsIwEEC1EOS2_
001e58c0 W _ZNSt14basic_ofstreamIwSt11char_traitsIwEEC1EPKcSt13_Ios_Openmode
001e5a10 W _ZNSt14basic_ofstreamIwSt11char_traitsIwEEC1ERKNSt7__cxx1112basic_stringIcS0_IcESaIcEEESt13_Ios_Openmode
001e4700 W _ZNSt14basic_ofstreamIwSt11char_traitsIwEEC1Ev
001e17a0 W _ZNSt14basic_ofstreamIwSt11char_traitsIwEEC2EOS2_
001e56e0 W _ZNSt14basic_ofstreamIwSt11char_traitsIwEEC2EPKcSt13_Ios_Openmode
001e57d0 W _ZNSt14basic_ofstreamIwSt11char_traitsIwEEC2ERKNSt7__cxx1112basic_stringIcS0_IcESaIcEEESt13_Ios_Openmode
001e4660 W _ZNSt14basic_ofstreamIwSt11char_traitsIwEEC2Ev
001e6210 W _ZNSt14basic_ofstreamIwSt11char_traitsIwEED0Ev
001e6370 W _ZNSt14basic_ofstreamIwSt11char_traitsIwEED1Ev
001e64b0 W _ZNSt14basic_ofstreamIwSt11char_traitsIwEED2Ev
00199140 W _ZNSt14codecvt_bynameIcc11__mbstate_tEC1EPKcj
001c52a0 W _ZNSt14codecvt_bynameIcc11__mbstate_tEC1ERKNSt7__cxx1112basic_stringIcSt11char_traitsIcESaIcEEEj
001991f0 W _ZNSt14codecvt_bynameIcc11__mbstate_tEC1ERKSsj
00199140 W _ZNSt14codecvt_bynameIcc11__mbstate_tEC2EPKcj
001c52a0 W _ZNSt14codecvt_bynameIcc11__mbstate_tEC2ERKNSt7__cxx1112basic_stringIcSt11char_traitsIcESaIcEEEj
001991f0 W _ZNSt14codecvt_bynameIcc11__mbstate_tEC2ERKSsj
001964e0 W _ZNSt14codecvt_bynameIcc11__mbstate_tED0Ev
001964b0 W _ZNSt14codecvt_bynameIcc11__mbstate_tED1Ev
001964b0 W _ZNSt14codecvt_bynameIcc11__mbstate_tED2Ev
001f61f0 W _ZNSt14codecvt_bynameIwc11__mbstate_tEC1EPKcj
001b2e20 W _ZNSt14codecvt_bynameIwc11__mbstate_tEC1ERKNSt7__cxx1112basic_stringIcSt11char_traitsIcESaIcEEEj
001f62a0 W _ZNSt14codecvt_bynameIwc11__mbstate_tEC1ERKSsj
001f61f0 W _ZNSt14codecvt_bynameIwc11__mbstate_tEC2EPKcj
001b2e20 W _ZNSt14codecvt_bynameIwc11__mbstate_tEC2ERKNSt7__cxx1112basic_stringIcSt11char_traitsIcESaIcEEEj
001f62a0 W _ZNSt14codecvt_bynameIwc11__mbstate_tEC2ERKSsj
001f35f0 W _ZNSt14codecvt_bynameIwc11__mbstate_tED0Ev
001f35c0 W _ZNSt14codecvt_bynameIwc11__mbstate_tED1Ev
001f35c0 W _ZNSt14codecvt_bynameIwc11__mbstate_tED2Ev
001993d0 W _ZNSt14collate_bynameIcEC1EPKcj
001994b0 W _ZNSt14collate_bynameIcEC1ERKSsj
001993d0 W _ZNSt14collate_bynameIcEC2EPKcj
001994b0 W _ZNSt14collate_bynameIcEC2ERKSsj
001962d0 W _ZNSt14collate_bynameIcED0Ev
00196290 W _ZNSt14collate_bynameIcED1Ev
00196290 W _ZNSt14collate_bynameIcED2Ev
001f6480 W _ZNSt14collate_bynameIwEC1EPKcj
001f6560 W _ZNSt14collate_bynameIwEC1ERKSsj
001f6480 W _ZNSt14collate_bynameIwEC2EPKcj
001f6560 W _ZNSt14collate_bynameIwEC2ERKSsj
001f33e0 W _ZNSt14collate_bynameIwED0Ev
001f33a0 W _ZNSt14collate_bynameIwED1Ev
001f33a0 W _ZNSt14collate_bynameIwED2Ev
00222b20 T _ZNSt14overflow_errorC1EPKc
0022be50 T _ZNSt14overflow_errorC1ERKNSt7__cxx1112basic_stringIcSt11char_traitsIcESaIcEEE
0021ed00 T _ZNSt14overflow_errorC1ERKSs
00222b20 T _ZNSt14overflow_errorC2EPKc
0022be50 T _ZNSt14overflow_errorC2ERKNSt7__cxx1112basic_stringIcSt11char_traitsIcESaIcEEE
0021ed00 T _ZNSt14overflow_errorC2ERKSs
0021eae0 T _ZNSt14overflow_errorD0Ev
0021eab0 T _ZNSt14overflow_errorD1Ev
0021eab0 T _ZNSt14overflow_errorD2Ev
001080bf W _ZNSt14pointer_traitsIPDsE10pointer_toERDs
0010d415 W _ZNSt14pointer_traitsIPKDsE10pointer_toERS0_
0012146c W _ZNSt14__shared_countILN9__gnu_cxx12_Lock_policyE2EE7_M_swapERS2_
00121286 W _ZNSt14__shared_countILN9__gnu_cxx12_Lock_policyE2EEC1ERKS2_
001210c6 W _ZNSt14__shared_countILN9__gnu_cxx12_Lock_policyE2EEC1Ev
00121490 W _ZNSt14__shared_countILN9__gnu_cxx12_Lock_policyE2EEC1IP14CUnpackManagerEET_
00121286 W _ZNSt14__shared_countILN9__gnu_cxx12_Lock_policyE2EEC2ERKS2_
00121490 W _ZNSt14__shared_countILN9__gnu_cxx12_Lock_policyE2EEC2IP14CUnpackManagerEET_
001211f8 W _ZNSt14__shared_countILN9__gnu_cxx12_Lock_policyE2EED1Ev
001211f8 W _ZNSt14__shared_countILN9__gnu_cxx12_Lock_policyE2EED2Ev
001ed300 W _ZNSt15basic_streambufIcSt11char_traitsIcEE10pubseekoffExSt12_Ios_SeekdirSt13_Ios_Openmode
001ed3a0 W _ZNSt15basic_streambufIcSt11char_traitsIcEE10pubseekposESt4fposI11__mbstate_tESt13_Ios_Openmode
001ed920 W _ZNSt15basic_streambufIcSt11char_traitsIcEE12__safe_gbumpEi
001ed930 W _ZNSt15basic_streambufIcSt11char_traitsIcEE12__safe_pbumpEi
001ed830 W _ZNSt15basic_streambufIcSt11char_traitsIcEE4setgEPcS3_S3_
001ed890 W _ZNSt15basic_streambufIcSt11char_traitsIcEE4setpEPcS3_
001eda00 W _ZNSt15basic_streambufIcSt11char_traitsIcEE4swapERS2_
001ecba0 W _ZNSt15basic_streambufIcSt11char_traitsIcEE4syncEv
001ed820 W _ZNSt15basic_streambufIcSt11char_traitsIcEE5gbumpEi
001ecb20 W _ZNSt15basic_streambufIcSt11char_traitsIcEE5imbueERKSt6locale
001ed880 W _ZNSt15basic_streambufIcSt11char_traitsIcEE5pbumpEi
001ed5f0 W _ZNSt15basic_streambufIcSt11char_traitsIcEE5sgetcEv
001ed640 W _ZNSt15basic_streambufIcSt11char_traitsIcEE5sgetnEPci
001ed710 W _ZNSt15basic_streambufIcSt11char_traitsIcEE5sputcEc
001ed770 W _ZNSt15basic_streambufIcSt11char_traitsIcEE5sputnEPKci
001ecf50 W _ZNSt15basic_streambufIcSt11char_traitsIcEE5uflowEv
001ed570 W _ZNSt15basic_streambufIcSt11char_traitsIcEE6sbumpcEv
001ecb30 W _ZNSt15basic_streambufIcSt11char_traitsIcEE6setbufEPci
001ed4b0 W _ZNSt15basic_streambufIcSt11char_traitsIcEE6snextcEv
001ed8b0 W _ZNSt15basic_streambufIcSt11char_traitsIcEE6stosscEv
001ecff0 W _ZNSt15basic_streambufIcSt11char_traitsIcEE6xsgetnEPci
001ecda0 W _ZNSt15basic_streambufIcSt11char_traitsIcEE6xsputnEPKci
001ed430 W _ZNSt15basic_streambufIcSt11char_traitsIcEE7pubsyncEv
001ecb40 W _ZNSt15basic_streambufIcSt11char_traitsIcEE7seekoffExSt12_Ios_SeekdirSt13_Ios_Openmode
001ecb70 W _ZNSt15basic_streambufIcSt11char_traitsIcEE7seekposESt4fposI11__mbstate_tESt13_Ios_Openmode
001ed6c0 W _ZNSt15basic_streambufIcSt11char_traitsIcEE7sungetcEv
001ed470 W _ZNSt15basic_streambufIcSt11char_traitsIcEE8in_availEv
001ecbe0 W _ZNSt15basic_streambufIcSt11char_traitsIcEE8overflowEi
001ed210 W _ZNSt15basic_streambufIcSt11char_traitsIcEE8pubimbueERKSt6locale
001ecbd0 W _ZNSt15basic_streambufIcSt11char_traitsIcEE9pbackfailEi
001ed2c0 W _ZNSt15basic_streambufIcSt11char_traitsIcEE9pubsetbufEPci
001ecbb0 W _ZNSt15basic_streambufIcSt11char_traitsIcEE9showmanycEv
001ed660 W _ZNSt15basic_streambufIcSt11char_traitsIcEE9sputbackcEc
001ecbc0 W _ZNSt15basic_streambufIcSt11char_traitsIcEE9underflowEv
001ed9a0 W _ZNSt15basic_streambufIcSt11char_traitsIcEEaSERKS2_
001ed940 W _ZNSt15basic_streambufIcSt11char_traitsIcEEC1ERKS2_
001ed790 W _ZNSt15basic_streambufIcSt11char_traitsIcEEC1Ev
001ed940 W _ZNSt15basic_streambufIcSt11char_traitsIcEEC2ERKS2_
001ed790 W _ZNSt15basic_streambufIcSt11char_traitsIcEEC2Ev
001ecd20 W _ZNSt15basic_streambufIcSt11char_traitsIcEED0Ev
001eccc0 W _ZNSt15basic_streambufIcSt11char_traitsIcEED1Ev
001eccc0 W _ZNSt15basic_streambufIcSt11char_traitsIcEED2Ev
001edc00 W _ZNSt15basic_streambufIwSt11char_traitsIwEE10pubseekoffExSt12_Ios_SeekdirSt13_Ios_Openmode
001edca0 W _ZNSt15basic_streambufIwSt11char_traitsIwEE10pubseekposESt4fposI11__mbstate_tESt13_Ios_Openmode
001ee200 W _ZNSt15basic_streambufIwSt11char_traitsIwEE12__safe_gbumpEi
001ee210 W _ZNSt15basic_streambufIwSt11char_traitsIwEE12__safe_pbumpEi
001ee110 W _ZNSt15basic_streambufIwSt11char_traitsIwEE4setgEPwS3_S3_
001ee170 W _ZNSt15basic_streambufIwSt11char_traitsIwEE4setpEPwS3_
001ee2e0 W _ZNSt15basic_streambufIwSt11char_traitsIwEE4swapERS2_
001ecc70 W _ZNSt15basic_streambufIwSt11char_traitsIwEE4syncEv
001ee100 W _ZNSt15basic_streambufIwSt11char_traitsIwEE5gbumpEi
001ecbf0 W _ZNSt15basic_streambufIwSt11char_traitsIwEE5imbueERKSt6locale
001ee160 W _ZNSt15basic_streambufIwSt11char_traitsIwEE5pbumpEi
001edee0 W _ZNSt15basic_streambufIwSt11char_traitsIwEE5sgetcEv
001edf30 W _ZNSt15basic_streambufIwSt11char_traitsIwEE5sgetnEPwi
001ee000 W _ZNSt15basic_streambufIwSt11char_traitsIwEE5sputcEw
001ee050 W _ZNSt15basic_streambufIwSt11char_traitsIwEE5sputnEPKwi
001ecfa0 W _ZNSt15basic_streambufIwSt11char_traitsIwEE5uflowEv
001ede60 W _ZNSt15basic_streambufIwSt11char_traitsIwEE6sbumpcEv
001ecc00 W _ZNSt15basic_streambufIwSt11char_traitsIwEE6setbufEPwi
001eddb0 W _ZNSt15basic_streambufIwSt11char_traitsIwEE6snextcEv
001ee190 W _ZNSt15basic_streambufIwSt11char_traitsIwEE6stosscEv
001ed0e0 W _ZNSt15basic_streambufIwSt11char_traitsIwEE6xsgetnEPwi
001ece70 W _ZNSt15basic_streambufIwSt11char_traitsIwEE6xsputnEPKwi
001edd30 W _ZNSt15basic_streambufIwSt11char_traitsIwEE7pubsyncEv
001ecc10 W _ZNSt15basic_streambufIwSt11char_traitsIwEE7seekoffExSt12_Ios_SeekdirSt13_Ios_Openmode
001ecc40 W _ZNSt15basic_streambufIwSt11char_traitsIwEE7seekposESt4fposI11__mbstate_tESt13_Ios_Openmode
001edfb0 W _ZNSt15basic_streambufIwSt11char_traitsIwEE7sungetcEv
001edd70 W _ZNSt15basic_streambufIwSt11char_traitsIwEE8in_availEv
001eccb0 W _ZNSt15basic_streambufIwSt11char_traitsIwEE8overflowEj
001edb10 W _ZNSt15basic_streambufIwSt11char_traitsIwEE8pubimbueERKSt6locale
001ecca0 W _ZNSt15basic_streambufIwSt11char_traitsIwEE9pbackfailEj
001edbc0 W _ZNSt15basic_streambufIwSt11char_traitsIwEE9pubsetbufEPwi
001ecc80 W _ZNSt15basic_streambufIwSt11char_traitsIwEE9showmanycEv
001edf50 W _ZNSt15basic_streambufIwSt11char_traitsIwEE9sputbackcEw
001ecc90 W _ZNSt15basic_streambufIwSt11char_traitsIwEE9underflowEv
001ee280 W _ZNSt15basic_streambufIwSt11char_traitsIwEEaSERKS2_
001ee220 W _ZNSt15basic_streambufIwSt11char_traitsIwEEC1ERKS2_
001ee070 W _ZNSt15basic_streambufIwSt11char_traitsIwEEC1Ev
001ee220 W _ZNSt15basic_streambufIwSt11char_traitsIwEEC2ERKS2_
001ee070 W _ZNSt15basic_streambufIwSt11char_traitsIwEEC2Ev
001ecd60 W _ZNSt15basic_streambufIwSt11char_traitsIwEED0Ev
001eccf0 W _ZNSt15basic_streambufIwSt11char_traitsIwEED1Ev
001eccf0 W _ZNSt15basic_streambufIwSt11char_traitsIwEED2Ev
002357b0 T _ZNSt15__exception_ptr13exception_ptr10_M_releaseEv
00235690 T _ZNSt15__exception_ptr13exception_ptr18_M_safe_bool_dummyEv
00235830 T _ZNSt15__exception_ptr13exception_ptr4swapERS0_
00235730 T _ZNSt15__exception_ptr13exception_ptr9_M_addrefEv
00235850 T _ZNSt15__exception_ptr13exception_ptraSERKS0_
00235720 T _ZNSt15__exception_ptr13exception_ptrC1EMS0_FvvE
00235750 T _ZNSt15__exception_ptr13exception_ptrC1EPv
00235780 T _ZNSt15__exception_ptr13exception_ptrC1ERKS0_
00235710 T _ZNSt15__exception_ptr13exception_ptrC1Ev
00235720 T _ZNSt15__exception_ptr13exception_ptrC2EMS0_FvvE
00235750 T _ZNSt15__exception_ptr13exception_ptrC2EPv
00235780 T _ZNSt15__exception_ptr13exception_ptrC2ERKS0_
00235710 T _ZNSt15__exception_ptr13exception_ptrC2Ev
00235800 T _ZNSt15__exception_ptr13exception_ptrD1Ev
00235800 T _ZNSt15__exception_ptr13exception_ptrD2Ev
00235910 T _ZNSt15__exception_ptreqERKNS_13exception_ptrES2_
00235920 T _ZNSt15__exception_ptrneERKNS_13exception_ptrES2_
00198fd0 W _ZNSt15messages_bynameIcEC1EPKcj
001990e0 W _ZNSt15messages_bynameIcEC1ERKSsj
00198fd0 W _ZNSt15messages_bynameIcEC2EPKcj
001990e0 W _ZNSt15messages_bynameIcEC2ERKSsj
00196470 W _ZNSt15messages_bynameIcED0Ev
00196440 W _ZNSt15messages_bynameIcED1Ev
00196440 W _ZNSt15messages_bynameIcED2Ev
001f6080 W _ZNSt15messages_bynameIwEC1EPKcj
001f6190 W _ZNSt15messages_bynameIwEC1ERKSsj
001f6080 W _ZNSt15messages_bynameIwEC2EPKcj
001f6190 W _ZNSt15messages_bynameIwEC2ERKSsj
001f3580 W _ZNSt15messages_bynameIwED0Ev
001f3550 W _ZNSt15messages_bynameIwED1Ev
001f3550 W _ZNSt15messages_bynameIwED2Ev
00197e70 W _ZNSt15numpunct_bynameIcEC1EPKcj
00197f70 W _ZNSt15numpunct_bynameIcEC1ERKSsj
00197e70 W _ZNSt15numpunct_bynameIcEC2EPKcj
00197f70 W _ZNSt15numpunct_bynameIcEC2ERKSsj
00195bd0 W _ZNSt15numpunct_bynameIcED0Ev
001956b0 W _ZNSt15numpunct_bynameIcED1Ev
001956b0 W _ZNSt15numpunct_bynameIcED2Ev
001f4f20 W _ZNSt15numpunct_bynameIwEC1EPKcj
001f5020 W _ZNSt15numpunct_bynameIwEC1ERKSsj
001f4f20 W _ZNSt15numpunct_bynameIwEC2EPKcj
001f5020 W _ZNSt15numpunct_bynameIwEC2ERKSsj
001f2d10 W _ZNSt15numpunct_bynameIwED0Ev
001f27f0 W _ZNSt15numpunct_bynameIwED1Ev
001f27f0 W _ZNSt15numpunct_bynameIwED2Ev
002275a0 W _ZNSt15_Sp_counted_ptrIDnLN9__gnu_cxx12_Lock_policyE2EE10_M_disposeEv
00121700 W _ZNSt15_Sp_counted_ptrIP14CUnpackManagerLN9__gnu_cxx12_Lock_policyE2EE10_M_destroyEv
001216d0 W _ZNSt15_Sp_counted_ptrIP14CUnpackManagerLN9__gnu_cxx12_Lock_policyE2EE10_M_disposeEv
0012171e W _ZNSt15_Sp_counted_ptrIP14CUnpackManagerLN9__gnu_cxx12_Lock_policyE2EE14_M_get_deleterERKSt9type_info
00121596 W _ZNSt15_Sp_counted_ptrIP14CUnpackManagerLN9__gnu_cxx12_Lock_policyE2EEC1ES1_
00121596 W _ZNSt15_Sp_counted_ptrIP14CUnpackManagerLN9__gnu_cxx12_Lock_policyE2EEC2ES1_
001216ac W _ZNSt15_Sp_counted_ptrIP14CUnpackManagerLN9__gnu_cxx12_Lock_policyE2EED0Ev
00121674 W _ZNSt15_Sp_counted_ptrIP14CUnpackManagerLN9__gnu_cxx12_Lock_policyE2EED1Ev
00121674 W _ZNSt15_Sp_counted_ptrIP14CUnpackManagerLN9__gnu_cxx12_Lock_policyE2EED2Ev
00198d40 W _ZNSt15time_get_bynameIcSt19istreambuf_iteratorIcSt11char_traitsIcEEEC1EPKcj
00198d70 W _ZNSt15time_get_bynameIcSt19istreambuf_iteratorIcSt11char_traitsIcEEEC1ERKSsj
00198d40 W _ZNSt15time_get_bynameIcSt19istreambuf_iteratorIcSt11char_traitsIcEEEC2EPKcj
00198d70 W _ZNSt15time_get_bynameIcSt19istreambuf_iteratorIcSt11char_traitsIcEEEC2ERKSsj
00195d80 W _ZNSt15time_get_bynameIcSt19istreambuf_iteratorIcSt11char_traitsIcEEED0Ev
00195a10 W _ZNSt15time_get_bynameIcSt19istreambuf_iteratorIcSt11char_traitsIcEEED1Ev
00195a10 W _ZNSt15time_get_bynameIcSt19istreambuf_iteratorIcSt11char_traitsIcEEED2Ev
001f5df0 W _ZNSt15time_get_bynameIwSt19istreambuf_iteratorIwSt11char_traitsIwEEEC1EPKcj
001f5e20 W _ZNSt15time_get_bynameIwSt19istreambuf_iteratorIwSt11char_traitsIwEEEC1ERKSsj
001f5df0 W _ZNSt15time_get_bynameIwSt19istreambuf_iteratorIwSt11char_traitsIwEEEC2EPKcj
001f5e20 W _ZNSt15time_get_bynameIwSt19istreambuf_iteratorIwSt11char_traitsIwEEEC2ERKSsj
001f2ec0 W _ZNSt15time_get_bynameIwSt19istreambuf_iteratorIwSt11char_traitsIwEEED0Ev
001f2b50 W _ZNSt15time_get_bynameIwSt19istreambuf_iteratorIwSt11char_traitsIwEEED1Ev
001f2b50 W _ZNSt15time_get_bynameIwSt19istreambuf_iteratorIwSt11char_traitsIwEEED2Ev
00198ab0 W _ZNSt15time_put_bynameIcSt19ostreambuf_iteratorIcSt11char_traitsIcEEEC1EPKcj
001c35e0 W _ZNSt15time_put_bynameIcSt19ostreambuf_iteratorIcSt11char_traitsIcEEEC1ERKNSt7__cxx1112basic_stringIcS2_SaIcEEEj
00198ae0 W _ZNSt15time_put_bynameIcSt19ostreambuf_iteratorIcSt11char_traitsIcEEEC1ERKSsj
00198ab0 W _ZNSt15time_put_bynameIcSt19ostreambuf_iteratorIcSt11char_traitsIcEEEC2EPKcj
001c35e0 W _ZNSt15time_put_bynameIcSt19ostreambuf_iteratorIcSt11char_traitsIcEEEC2ERKNSt7__cxx1112basic_stringIcS2_SaIcEEEj
00198ae0 W _ZNSt15time_put_bynameIcSt19ostreambuf_iteratorIcSt11char_traitsIcEEEC2ERKSsj
00195d00 W _ZNSt15time_put_bynameIcSt19ostreambuf_iteratorIcSt11char_traitsIcEEED0Ev
001959b0 W _ZNSt15time_put_bynameIcSt19ostreambuf_iteratorIcSt11char_traitsIcEEED1Ev
001959b0 W _ZNSt15time_put_bynameIcSt19ostreambuf_iteratorIcSt11char_traitsIcEEED2Ev
001f5b60 W _ZNSt15time_put_bynameIwSt19ostreambuf_iteratorIwSt11char_traitsIwEEEC1EPKcj
001b1800 W _ZNSt15time_put_bynameIwSt19ostreambuf_iteratorIwSt11char_traitsIwEEEC1ERKNSt7__cxx1112basic_stringIcS1_IcESaIcEEEj
001f5b90 W _ZNSt15time_put_bynameIwSt19ostreambuf_iteratorIwSt11char_traitsIwEEEC1ERKSsj
001f5b60 W _ZNSt15time_put_bynameIwSt19ostreambuf_iteratorIwSt11char_traitsIwEEEC2EPKcj
001b1800 W _ZNSt15time_put_bynameIwSt19ostreambuf_iteratorIwSt11char_traitsIwEEEC2ERKNSt7__cxx1112basic_stringIcS1_IcESaIcEEEj
001f5b90 W _ZNSt15time_put_bynameIwSt19ostreambuf_iteratorIwSt11char_traitsIwEEEC2ERKSsj
001f2e40 W _ZNSt15time_put_bynameIwSt19ostreambuf_iteratorIwSt11char_traitsIwEEED0Ev
001f2af0 W _ZNSt15time_put_bynameIwSt19ostreambuf_iteratorIwSt11char_traitsIwEEED1Ev
001f2af0 W _ZNSt15time_put_bynameIwSt19ostreambuf_iteratorIwSt11char_traitsIwEEED2Ev
00222b50 T _ZNSt15underflow_errorC1EPKc
0022be80 T _ZNSt15underflow_errorC1ERKNSt7__cxx1112basic_stringIcSt11char_traitsIcESaIcEEE
0021ed30 T _ZNSt15underflow_errorC1ERKSs
00222b50 T _ZNSt15underflow_errorC2EPKc
0022be80 T _ZNSt15underflow_errorC2ERKNSt7__cxx1112basic_stringIcSt11char_traitsIcESaIcEEE
0021ed30 T _ZNSt15underflow_errorC2ERKSs
0021eb40 T _ZNSt15underflow_errorD0Ev
0021eb10 T _ZNSt15underflow_errorD1Ev
0021eb10 T _ZNSt15underflow_errorD2Ev
0011a130 W _ZNSt16allocator_traitsISaI16NESTED_FILE_INFOEE10deallocateERS1_PS0_j
0011a0f7 W _ZNSt16allocator_traitsISaI16NESTED_FILE_INFOEE7destroyIS0_EEvRS1_PT_
0011a1a1 W _ZNSt16allocator_traitsISaI16NESTED_FILE_INFOEE8allocateERS1_j
0011a24a W _ZNSt16allocator_traitsISaI16NESTED_FILE_INFOEE8max_sizeERKS1_
00119cb2 W _ZNSt16allocator_traitsISaI16NESTED_FILE_INFOEE9constructIS0_IRKS0_EEEvRS1_PT_DpOT0_
00119cb2 W _ZNSt16allocator_traitsISaI16NESTED_FILE_INFOEE9constructIS0_JRKS0_EEEvRS1_PT_DpOT0_
0011d548 W _ZNSt16allocator_traitsISaI8Cab_InfoEE10deallocateERS1_PS0_j
0011d50f W _ZNSt16allocator_traitsISaI8Cab_InfoEE7destroyIS0_EEvRS1_PT_
0011d739 W _ZNSt16allocator_traitsISaI8Cab_InfoEE8allocateERS1_j
0011d8b2 W _ZNSt16allocator_traitsISaI8Cab_InfoEE8max_sizeERKS1_
0011cc0e W _ZNSt16allocator_traitsISaI8Cab_InfoEE9constructIS0_IRKS0_EEEvRS1_PT_DpOT0_
0011cc0e W _ZNSt16allocator_traitsISaI8Cab_InfoEE9constructIS0_JRKS0_EEEvRS1_PT_DpOT0_
0010a9dd W _ZNSt16allocator_traitsISaIcEE10deallocateERS0_Pcj
0010cd22 W _ZNSt16allocator_traitsISaIcEE7destroyIcEEvRS0_PT_
0010e5fb W _ZNSt16allocator_traitsISaIcEE8allocateERS0_j
0010cdb5 W _ZNSt16allocator_traitsISaIcEE8max_sizeERKS0_
0010a6e6 W _ZNSt16allocator_traitsISaIcEE9constructIcIcEEEvRS0_PT_DpOT0_
0010a6e6 W _ZNSt16allocator_traitsISaIcEE9constructIcJcEEEvRS0_PT_DpOT0_
0010b6fe W _ZNSt16allocator_traitsISaIDsEE10deallocateERS0_PDsj
0010b74b W _ZNSt16allocator_traitsISaIDsEE8allocateERS0_j
0010d443 W _ZNSt16allocator_traitsISaIDsEE8max_sizeERKS0_
0010e527 W _ZNSt16allocator_traitsISaIhEE10deallocateERS0_Phj
0010f318 W _ZNSt16allocator_traitsISaIhEE8allocateERS0_j
0010bab2 W _ZNSt16allocator_traitsISaIN7peparse10rich_entryEEE10deallocateERS2_PS1_j
001088e1 W _ZNSt16allocator_traitsISaIN7peparse10rich_entryEEE7destroyIS1_EEvRS2_PT_
0010ba57 W _ZNSt16allocator_traitsISaIN7peparse10rich_entryEEE8allocateERS2_j
0010d6ba W _ZNSt16allocator_traitsISaIN7peparse10rich_entryEEE8max_sizeERKS2_
00105a40 W _ZNSt16allocator_traitsISaIN7peparse10rich_entryEEE9constructIS1_IRKS1_EEEvRS2_PT_DpOT0_
00105a40 W _ZNSt16allocator_traitsISaIN7peparse10rich_entryEEE9constructIS1_JRKS1_EEEvRS2_PT_DpOT0_
0010bce2 W _ZNSt16allocator_traitsISaIN7peparse13aux_symbol_f1EEE10deallocateERS2_PS1_j
0010ecc3 W _ZNSt16allocator_traitsISaIN7peparse13aux_symbol_f1EEE37select_on_container_copy_constructionERKS2_
001098cf W _ZNSt16allocator_traitsISaIN7peparse13aux_symbol_f1EEE7destroyIS1_EEvRS2_PT_
0010c47f W _ZNSt16allocator_traitsISaIN7peparse13aux_symbol_f1EEE8allocateERS2_j
0010e153 W _ZNSt16allocator_traitsISaIN7peparse13aux_symbol_f1EEE8max_sizeERKS2_
00106770 W _ZNSt16allocator_traitsISaIN7peparse13aux_symbol_f1EEE9constructIS1_IRKS1_EEEvRS2_PT_DpOT0_
00106770 W _ZNSt16allocator_traitsISaIN7peparse13aux_symbol_f1EEE9constructIS1_JRKS1_EEEvRS2_PT_DpOT0_
0010bd24 W _ZNSt16allocator_traitsISaIN7peparse13aux_symbol_f2EEE10deallocateERS2_PS1_j
0010eda4 W _ZNSt16allocator_traitsISaIN7peparse13aux_symbol_f2EEE37select_on_container_copy_constructionERKS2_
00109abf W _ZNSt16allocator_traitsISaIN7peparse13aux_symbol_f2EEE7destroyIS1_EEvRS2_PT_
0010c4fd W _ZNSt16allocator_traitsISaIN7peparse13aux_symbol_f2EEE8allocateERS2_j
0010e1d0 W _ZNSt16allocator_traitsISaIN7peparse13aux_symbol_f2EEE8max_sizeERKS2_
0010695a W _ZNSt16allocator_traitsISaIN7peparse13aux_symbol_f2EEE9constructIS1_IRKS1_EEEvRS2_PT_DpOT0_
0010695a W _ZNSt16allocator_traitsISaIN7peparse13aux_symbol_f2EEE9constructIS1_JRKS1_EEEvRS2_PT_DpOT0_
0010bd66 W _ZNSt16allocator_traitsISaIN7peparse13aux_symbol_f3EEE10deallocateERS2_PS1_j
0010ee84 W _ZNSt16allocator_traitsISaIN7peparse13aux_symbol_f3EEE37select_on_container_copy_constructionERKS2_
00109caf W _ZNSt16allocator_traitsISaIN7peparse13aux_symbol_f3EEE7destroyIS1_EEvRS2_PT_
0010c57b W _ZNSt16allocator_traitsISaIN7peparse13aux_symbol_f3EEE8allocateERS2_j
0010e24c W _ZNSt16allocator_traitsISaIN7peparse13aux_symbol_f3EEE8max_sizeERKS2_
00106b4a W _ZNSt16allocator_traitsISaIN7peparse13aux_symbol_f3EEE9constructIS1_IRKS1_EEEvRS2_PT_DpOT0_
00106b4a W _ZNSt16allocator_traitsISaIN7peparse13aux_symbol_f3EEE9constructIS1_JRKS1_EEEvRS2_PT_DpOT0_
0010bda8 W _ZNSt16allocator_traitsISaIN7peparse13aux_symbol_f4EEE10deallocateERS2_PS1_j
0010ef64 W _ZNSt16allocator_traitsISaIN7peparse13aux_symbol_f4EEE37select_on_container_copy_constructionERKS2_
00109f0f W _ZNSt16allocator_traitsISaIN7peparse13aux_symbol_f4EEE7destroyIS1_EEvRS2_PT_
0010c5f9 W _ZNSt16allocator_traitsISaIN7peparse13aux_symbol_f4EEE8allocateERS2_j
0010e2c8 W _ZNSt16allocator_traitsISaIN7peparse13aux_symbol_f4EEE8max_sizeERKS2_
00106d3a W _ZNSt16allocator_traitsISaIN7peparse13aux_symbol_f4EEE9constructIS1_IRKS1_EEEvRS2_PT_DpOT0_
00106d3a W _ZNSt16allocator_traitsISaIN7peparse13aux_symbol_f4EEE9constructIS1_JRKS1_EEEvRS2_PT_DpOT0_
0010be14 W _ZNSt16allocator_traitsISaIN7peparse13aux_symbol_f5EEE10deallocateERS2_PS1_j
0010f044 W _ZNSt16allocator_traitsISaIN7peparse13aux_symbol_f5EEE37select_on_container_copy_constructionERKS2_
0010a109 W _ZNSt16allocator_traitsISaIN7peparse13aux_symbol_f5EEE7destroyIS1_EEvRS2_PT_
0010c689 W _ZNSt16allocator_traitsISaIN7peparse13aux_symbol_f5EEE8allocateERS2_j
0010e344 W _ZNSt16allocator_traitsISaIN7peparse13aux_symbol_f5EEE8max_sizeERKS2_
00106f24 W _ZNSt16allocator_traitsISaIN7peparse13aux_symbol_f5EEE9constructIS1_IRKS1_EEEvRS2_PT_DpOT0_
00106f24 W _ZNSt16allocator_traitsISaIN7peparse13aux_symbol_f5EEE9constructIS1_JRKS1_EEEvRS2_PT_DpOT0_
0010bbfa W _ZNSt16allocator_traitsISaIN7peparse5relocEEE10deallocateERS2_PS1_j
00108dad W _ZNSt16allocator_traitsISaIN7peparse5relocEEE7destroyIS1_EEvRS2_PT_
0010bb9f W _ZNSt16allocator_traitsISaIN7peparse5relocEEE8allocateERS2_j
0010d7fb W _ZNSt16allocator_traitsISaIN7peparse5relocEEE8max_sizeERKS2_
00105e35 W _ZNSt16allocator_traitsISaIN7peparse5relocEEE9constructIS1_IRKS1_EEEvRS2_PT_DpOT0_
00105e35 W _ZNSt16allocator_traitsISaIN7peparse5relocEEE9constructIS1_JRKS1_EEEvRS2_PT_DpOT0_
0010c43f W _ZNSt16allocator_traitsISaIN7peparse6symbolEEE10deallocateERS2_PS1_j
001096b1 W _ZNSt16allocator_traitsISaIN7peparse6symbolEEE7destroyIS1_EEvRS2_PT_
0010c3d3 W _ZNSt16allocator_traitsISaIN7peparse6symbolEEE8allocateERS2_j
0010e0b8 W _ZNSt16allocator_traitsISaIN7peparse6symbolEEE8max_sizeERKS2_
00106586 W _ZNSt16allocator_traitsISaIN7peparse6symbolEEE9constructIS1_IRKS1_EEEvRS2_PT_DpOT0_
00106586 W _ZNSt16allocator_traitsISaIN7peparse6symbolEEE9constructIS1_JRKS1_EEEvRS2_PT_DpOT0_
0010b8bd W _ZNSt16allocator_traitsISaIN7peparse7sectionEEE10deallocateERS2_PS1_j
0010a3d5 W _ZNSt16allocator_traitsISaIN7peparse7sectionEEE37select_on_container_copy_constructionERKS2_
00108691 W _ZNSt16allocator_traitsISaIN7peparse7sectionEEE7destroyIS1_EEvRS2_PT_
0010b851 W _ZNSt16allocator_traitsISaIN7peparse7sectionEEE8allocateERS2_j
0010d533 W _ZNSt16allocator_traitsISaIN7peparse7sectionEEE8max_sizeERKS2_
00105846 W _ZNSt16allocator_traitsISaIN7peparse7sectionEEE9constructIS1_IRKS1_EEEvRS2_PT_DpOT0_
00105846 W _ZNSt16allocator_traitsISaIN7peparse7sectionEEE9constructIS1_JRKS1_EEEvRS2_PT_DpOT0_
0010b811 W _ZNSt16allocator_traitsISaIN7peparse8resourceEEE10deallocateERS2_PS1_j
00108473 W _ZNSt16allocator_traitsISaIN7peparse8resourceEEE7destroyIS1_EEvRS2_PT_
0010b7a4 W _ZNSt16allocator_traitsISaIN7peparse8resourceEEE8allocateERS2_j
0010d498 W _ZNSt16allocator_traitsISaIN7peparse8resourceEEE8max_sizeERKS2_
0010563e W _ZNSt16allocator_traitsISaIN7peparse8resourceEEE9constructIS1_IRKS1_EEEvRS2_PT_DpOT0_
0010563e W _ZNSt16allocator_traitsISaIN7peparse8resourceEEE9constructIS1_JRKS1_EEEvRS2_PT_DpOT0_
0010bb5f W _ZNSt16allocator_traitsISaIN7peparse9exportentEEE10deallocateERS2_PS1_j
00108b8f W _ZNSt16allocator_traitsISaIN7peparse9exportentEEE7destroyIS1_EEvRS2_PT_
0010baf3 W _ZNSt16allocator_traitsISaIN7peparse9exportentEEE8allocateERS2_j
0010d755 W _ZNSt16allocator_traitsISaIN7peparse9exportentEEE8max_sizeERKS2_
00105c30 W _ZNSt16allocator_traitsISaIN7peparse9exportentEEE9constructIS1_IRKS1_EEEvRS2_PT_DpOT0_
00105c30 W _ZNSt16allocator_traitsISaIN7peparse9exportentEEE9constructIS1_JRKS1_EEEvRS2_PT_DpOT0_
0010bca7 W _ZNSt16allocator_traitsISaIN7peparse9importentEEE10deallocateERS2_PS1_j
0010905b W _ZNSt16allocator_traitsISaIN7peparse9importentEEE7destroyIS1_EEvRS2_PT_
0010bc3b W _ZNSt16allocator_traitsISaIN7peparse9importentEEE8allocateERS2_j
0010d89d W _ZNSt16allocator_traitsISaIN7peparse9importentEEE8max_sizeERKS2_
0010608c W _ZNSt16allocator_traitsISaIN7peparse9importentEEE9constructIS1_IRKS1_EEEvRS2_PT_DpOT0_
0010608c W _ZNSt16allocator_traitsISaIN7peparse9importentEEE9constructIS1_JRKS1_EEEvRS2_PT_DpOT0_
0011d5b8 W _ZNSt16allocator_traitsISaINSt7__cxx1112basic_stringIcSt11char_traitsIcESaIcEEEEE10deallocateERS6_PS5_j
0011d2f1 W _ZNSt16allocator_traitsISaINSt7__cxx1112basic_stringIcSt11char_traitsIcESaIcEEEEE7destroyIS5_EEvRS6_PT_
0011d6a9 W _ZNSt16allocator_traitsISaINSt7__cxx1112basic_stringIcSt11char_traitsIcESaIcEEEEE8allocateERS6_j
0011d828 W _ZNSt16allocator_traitsISaINSt7__cxx1112basic_stringIcSt11char_traitsIcESaIcEEEEE8max_sizeERKS6_
0011ca08 W _ZNSt16allocator_traitsISaINSt7__cxx1112basic_stringIcSt11char_traitsIcESaIcEEEEE9constructIS5_IRKS5_EEEvRS6_PT_DpOT0_
0011ca08 W _ZNSt16allocator_traitsISaINSt7__cxx1112basic_stringIcSt11char_traitsIcESaIcEEEEE9constructIS5_JRKS5_EEEvRS6_PT_DpOT0_
0010d37a W _ZNSt16allocator_traitsISaISt13_Rb_tree_nodeISt4pairIKtKNSt7__cxx1112basic_stringIcSt11char_traitsIcESaIcEEEEEEE10deallocateERSC_PSB_j
0010d360 W _ZNSt16allocator_traitsISaISt13_Rb_tree_nodeISt4pairIKtKNSt7__cxx1112basic_stringIcSt11char_traitsIcESaIcEEEEEEE7destroyISA_EEvRSC_PT_
00110283 W _ZNSt16allocator_traitsISaISt13_Rb_tree_nodeISt4pairIKtKNSt7__cxx1112basic_stringIcSt11char_traitsIcESaIcEEEEEEE8allocateERSC_j
0011029e W _ZNSt16allocator_traitsISaISt13_Rb_tree_nodeISt4pairIKtKNSt7__cxx1112basic_stringIcSt11char_traitsIcESaIcEEEEEEE9constructISA_IRKSA_EEEvRSC_PT_DpOT0_
0011029e W _ZNSt16allocator_traitsISaISt13_Rb_tree_nodeISt4pairIKtKNSt7__cxx1112basic_stringIcSt11char_traitsIcESaIcEEEEEEE9constructISA_JRKSA_EEEvRSC_PT_DpOT0_
0010d094 W _ZNSt16allocator_traitsISaISt13_Rb_tree_nodeISt4pairIKtNSt7__cxx1112basic_stringIcSt11char_traitsIcESaIcEEEEEEE10deallocateERSB_PSA_j
0010d07a W _ZNSt16allocator_traitsISaISt13_Rb_tree_nodeISt4pairIKtNSt7__cxx1112basic_stringIcSt11char_traitsIcESaIcEEEEEEE7destroyIS9_EEvRSB_PT_
0011023f W _ZNSt16allocator_traitsISaISt13_Rb_tree_nodeISt4pairIKtNSt7__cxx1112basic_stringIcSt11char_traitsIcESaIcEEEEEEE8allocateERSB_j
0011025a W _ZNSt16allocator_traitsISaISt13_Rb_tree_nodeISt4pairIKtNSt7__cxx1112basic_stringIcSt11char_traitsIcESaIcEEEEEEE9constructIS9_IRKS9_EEEvRSB_PT_DpOT0_
0011025a W _ZNSt16allocator_traitsISaISt13_Rb_tree_nodeISt4pairIKtNSt7__cxx1112basic_stringIcSt11char_traitsIcESaIcEEEEEEE9constructIS9_JRKS9_EEEvRSB_PT_DpOT0_
002229f0 T _ZNSt16invalid_argumentC1EPKc
0022bd40 T _ZNSt16invalid_argumentC1ERKNSt7__cxx1112basic_stringIcSt11char_traitsIcESaIcEEE
0021ebf0 T _ZNSt16invalid_argumentC1ERKSs
002229f0 T _ZNSt16invalid_argumentC2EPKc
0022bd40 T _ZNSt16invalid_argumentC2ERKNSt7__cxx1112basic_stringIcSt11char_traitsIcESaIcEEE
0021ebf0 T _ZNSt16invalid_argumentC2ERKSs
0021e880 T _ZNSt16invalid_argumentD0Ev
0021e850 T _ZNSt16invalid_argumentD1Ev
0021e850 T _ZNSt16invalid_argumentD2Ev
00199d90 W _ZNSt16__numpunct_cacheIcE8_M_cacheERKSt6locale
00197ae0 W _ZNSt16__numpunct_cacheIcEC1Ej
00197ae0 W _ZNSt16__numpunct_cacheIcEC2Ej
00195ba0 W _ZNSt16__numpunct_cacheIcED0Ev
00195880 W _ZNSt16__numpunct_cacheIcED1Ev
00195880 W _ZNSt16__numpunct_cacheIcED2Ev
001f6c90 W _ZNSt16__numpunct_cacheIwE8_M_cacheERKSt6locale
001f4b90 W _ZNSt16__numpunct_cacheIwEC1Ej
001f4b90 W _ZNSt16__numpunct_cacheIwEC2Ej
001f2ce0 W _ZNSt16__numpunct_cacheIwED0Ev
001f29c0 W _ZNSt16__numpunct_cacheIwED1Ev
001f29c0 W _ZNSt16__numpunct_cacheIwED2Ev
00121448 W _ZNSt16_Sp_counted_baseILN9__gnu_cxx12_Lock_policyE2EE10_M_destroyEv
001212b4 W _ZNSt16_Sp_counted_baseILN9__gnu_cxx12_Lock_policyE2EE10_M_releaseEv
00121430 W _ZNSt16_Sp_counted_baseILN9__gnu_cxx12_Lock_policyE2EE15_M_add_ref_copyEv
0012163e W _ZNSt16_Sp_counted_baseILN9__gnu_cxx12_Lock_policyE2EEC1Ev
0012163e W _ZNSt16_Sp_counted_baseILN9__gnu_cxx12_Lock_policyE2EEC2Ev
00121572 W _ZNSt16_Sp_counted_baseILN9__gnu_cxx12_Lock_policyE2EED0Ev
00121548 W _ZNSt16_Sp_counted_baseILN9__gnu_cxx12_Lock_policyE2EED1Ev
00121548 W _ZNSt16_Sp_counted_baseILN9__gnu_cxx12_Lock_policyE2EED2Ev
001f2660 T _ZNSt17bad_function_callD0Ev
001f2630 T _ZNSt17bad_function_callD1Ev
001f2630 T _ZNSt17bad_function_callD2Ev
00244cd2 u _ZNSt17moneypunct_bynameIcLb0EE4intlE
001974b0 W _ZNSt17moneypunct_bynameIcLb0EEC1EPKcj
001975c0 W _ZNSt17moneypunct_bynameIcLb0EEC1ERKSsj
001974b0 W _ZNSt17moneypunct_bynameIcLb0EEC2EPKcj
001975c0 W _ZNSt17moneypunct_bynameIcLb0EEC2ERKSsj
00195aa0 W _ZNSt17moneypunct_bynameIcLb0EED0Ev
00195630 W _ZNSt17moneypunct_bynameIcLb0EED1Ev
00195630 W _ZNSt17moneypunct_bynameIcLb0EED2Ev
00244cd1 u _ZNSt17moneypunct_bynameIcLb1EE4intlE
001976d0 W _ZNSt17moneypunct_bynameIcLb1EEC1EPKcj
001977e0 W _ZNSt17moneypunct_bynameIcLb1EEC1ERKSsj
001976d0 W _ZNSt17moneypunct_bynameIcLb1EEC2EPKcj
001977e0 W _ZNSt17moneypunct_bynameIcLb1EEC2ERKSsj
00195ae0 W _ZNSt17moneypunct_bynameIcLb1EED0Ev
00195660 W _ZNSt17moneypunct_bynameIcLb1EED1Ev
00195660 W _ZNSt17moneypunct_bynameIcLb1EED2Ev
00246ab5 u _ZNSt17moneypunct_bynameIwLb0EE4intlE
001f4570 W _ZNSt17moneypunct_bynameIwLb0EEC1EPKcj
001f4680 W _ZNSt17moneypunct_bynameIwLb0EEC1ERKSsj
001f4570 W _ZNSt17moneypunct_bynameIwLb0EEC2EPKcj
001f4680 W _ZNSt17moneypunct_bynameIwLb0EEC2ERKSsj
001f2be0 W _ZNSt17moneypunct_bynameIwLb0EED0Ev
001f2770 W _ZNSt17moneypunct_bynameIwLb0EED1Ev
001f2770 W _ZNSt17moneypunct_bynameIwLb0EED2Ev
00246ab4 u _ZNSt17moneypunct_bynameIwLb1EE4intlE
001f4790 W _ZNSt17moneypunct_bynameIwLb1EEC1EPKcj
001f48a0 W _ZNSt17moneypunct_bynameIwLb1EEC1ERKSsj
001f4790 W _ZNSt17moneypunct_bynameIwLb1EEC2EPKcj
001f48a0 W _ZNSt17moneypunct_bynameIwLb1EEC2ERKSsj
001f2c20 W _ZNSt17moneypunct_bynameIwLb1EED0Ev
001f27a0 W _ZNSt17moneypunct_bynameIwLb1EED1Ev
001f27a0 W _ZNSt17moneypunct_bynameIwLb1EED2Ev
0010b028 W _ZNSt17_Rb_tree_iteratorISt4pairIKtKNSt7__cxx1112basic_stringIcSt11char_traitsIcESaIcEEEEEC1EPSt18_Rb_tree_node_base
0010b028 W _ZNSt17_Rb_tree_iteratorISt4pairIKtKNSt7__cxx1112basic_stringIcSt11char_traitsIcESaIcEEEEEC2EPSt18_Rb_tree_node_base
0010d2cc W _ZNSt17_Rb_tree_iteratorISt4pairIKtKNSt7__cxx1112basic_stringIcSt11char_traitsIcESaIcEEEEEmmEv
0010d2f0 W _ZNSt17_Rb_tree_iteratorISt4pairIKtKNSt7__cxx1112basic_stringIcSt11char_traitsIcESaIcEEEEEppEv
0010aa4c W _ZNSt17_Rb_tree_iteratorISt4pairIKtNSt7__cxx1112basic_stringIcSt11char_traitsIcESaIcEEEEEC1EPSt18_Rb_tree_node_base
0010aa4c W _ZNSt17_Rb_tree_iteratorISt4pairIKtNSt7__cxx1112basic_stringIcSt11char_traitsIcESaIcEEEEEC2EPSt18_Rb_tree_node_base
0010cfe6 W _ZNSt17_Rb_tree_iteratorISt4pairIKtNSt7__cxx1112basic_stringIcSt11char_traitsIcESaIcEEEEEmmEv
0010d00a W _ZNSt17_Rb_tree_iteratorISt4pairIKtNSt7__cxx1112basic_stringIcSt11char_traitsIcESaIcEEEEEppEv
002bd0c0 D _ZNSt17__timepunct_cacheIcE12_S_timezonesE
00198870 W _ZNSt17__timepunct_cacheIcEC1Ej
00198870 W _ZNSt17__timepunct_cacheIcEC2Ej
00195c90 W _ZNSt17__timepunct_cacheIcED0Ev
00195950 W _ZNSt17__timepunct_cacheIcED1Ev
00195950 W _ZNSt17__timepunct_cacheIcED2Ev
002bd080 D _ZNSt17__timepunct_cacheIwE12_S_timezonesE
001f5920 W _ZNSt17__timepunct_cacheIwEC1Ej
001f5920 W _ZNSt17__timepunct_cacheIwEC2Ej
001f2dd0 W _ZNSt17__timepunct_cacheIwED0Ev
001f2a90 W _ZNSt17__timepunct_cacheIwED1Ev
001f2a90 W _ZNSt17__timepunct_cacheIwED2Ev
0022bb40 T _ZNSt18condition_variable10notify_allEv
0022bb10 T _ZNSt18condition_variable10notify_oneEv
0022bad0 T _ZNSt18condition_variable4waitERSt11unique_lockISt5mutexE
0022baa0 T _ZNSt18condition_variableC1Ev
0022baa0 T _ZNSt18condition_variableC2Ev
0022bab0 T _ZNSt18condition_variableD1Ev
0022bab0 T _ZNSt18condition_variableD2Ev
0019a920 W _ZNSt18__moneypunct_cacheIcLb0EE8_M_cacheERKSt6locale
001969f0 W _ZNSt18__moneypunct_cacheIcLb0EEC1Ej
001969f0 W _ZNSt18__moneypunct_cacheIcLb0EEC2Ej
00195a40 W _ZNSt18__moneypunct_cacheIcLb0EED0Ev
00195720 W _ZNSt18__moneypunct_cacheIcLb0EED1Ev
00195720 W _ZNSt18__moneypunct_cacheIcLb0EED2Ev
0019a2f0 W _ZNSt18__moneypunct_cacheIcLb1EE8_M_cacheERKSt6locale
00196a90 W _ZNSt18__moneypunct_cacheIcLb1EEC1Ej
00196a90 W _ZNSt18__moneypunct_cacheIcLb1EEC2Ej
00195a70 W _ZNSt18__moneypunct_cacheIcLb1EED0Ev
001957a0 W _ZNSt18__moneypunct_cacheIcLb1EED1Ev
001957a0 W _ZNSt18__moneypunct_cacheIcLb1EED2Ev
001f7860 W _ZNSt18__moneypunct_cacheIwLb0EE8_M_cacheERKSt6locale
001f3ab0 W _ZNSt18__moneypunct_cacheIwLb0EEC1Ej
001f3ab0 W _ZNSt18__moneypunct_cacheIwLb0EEC2Ej
001f2b80 W _ZNSt18__moneypunct_cacheIwLb0EED0Ev
001f2860 W _ZNSt18__moneypunct_cacheIwLb0EED1Ev
001f2860 W _ZNSt18__moneypunct_cacheIwLb0EED2Ev
001f7200 W _ZNSt18__moneypunct_cacheIwLb1EE8_M_cacheERKSt6locale
001f3b50 W _ZNSt18__moneypunct_cacheIwLb1EEC1Ej
001f3b50 W _ZNSt18__moneypunct_cacheIwLb1EEC2Ej
001f2bb0 W _ZNSt18__moneypunct_cacheIwLb1EED0Ev
001f28e0 W _ZNSt18__moneypunct_cacheIwLb1EED1Ev
001f28e0 W _ZNSt18__moneypunct_cacheIwLb1EED2Ev
0010f472 W _ZNSt18_Rb_tree_node_baseC1Ev
0010f472 W _ZNSt18_Rb_tree_node_baseC2Ev
002241a0 T _ZNSt19__codecvt_utf8_baseIDiED0Ev
00224170 T _ZNSt19__codecvt_utf8_baseIDiED1Ev
00224170 T _ZNSt19__codecvt_utf8_baseIDiED2Ev
00224020 T _ZNSt19__codecvt_utf8_baseIDsED0Ev
00223ff0 T _ZNSt19__codecvt_utf8_baseIDsED1Ev
00223ff0 T _ZNSt19__codecvt_utf8_baseIDsED2Ev
00224550 T _ZNSt19__codecvt_utf8_baseIwED0Ev
00224520 T _ZNSt19__codecvt_utf8_baseIwED1Ev
00224520 T _ZNSt19__codecvt_utf8_baseIwED2Ev
0019c540 W _ZNSt19istreambuf_iteratorIcSt11char_traitsIcEEppEv
001b3770 W _ZNSt19istreambuf_iteratorIwSt11char_traitsIwEEppEv
00214880 T _ZNSt20bad_array_new_lengthD0Ev
00214850 T _ZNSt20bad_array_new_lengthD1Ev
00214850 T _ZNSt20bad_array_new_lengthD2Ev
00224200 T _ZNSt20__codecvt_utf16_baseIDiED0Ev
002241d0 T _ZNSt20__codecvt_utf16_baseIDiED1Ev
002241d0 T _ZNSt20__codecvt_utf16_baseIDiED2Ev
00224080 T _ZNSt20__codecvt_utf16_baseIDsED0Ev
00224050 T _ZNSt20__codecvt_utf16_baseIDsED1Ev
00224050 T _ZNSt20__codecvt_utf16_baseIDsED2Ev
002245b0 T _ZNSt20__codecvt_utf16_baseIwED0Ev
00224580 T _ZNSt20__codecvt_utf16_baseIwED1Ev
00224580 T _ZNSt20__codecvt_utf16_baseIwED2Ev
001103ae W _ZNSt20__copy_move_backwardILb1ELb0ESt26random_access_iterator_tagE13__copy_move_bIPN7peparse7sectionES5_EET0_T_S7_S6_
0010fca4 W _ZNSt20__uninitialized_copyILb0EE13__uninit_copyIN9__gnu_cxx17__normal_iteratorIPKN7peparse13aux_symbol_f4ESt6vectorIS5_SaIS5_EEEEPS5_EET0_T_SE_SD_
0010c8ba W _ZNSt20__uninitialized_copyILb0EE13__uninit_copyIN9__gnu_cxx17__normal_iteratorIPKN7peparse7sectionESt6vectorIS5_SaIS5_EEEEPS5_EET0_T_SE_SD_
0011a2d8 W _ZNSt20__uninitialized_copyILb0EE13__uninit_copyISt13move_iteratorIP16NESTED_FILE_INFOES4_EET0_T_S7_S6_
0011d9f4 W _ZNSt20__uninitialized_copyILb0EE13__uninit_copyISt13move_iteratorIP8Cab_InfoES4_EET0_T_S7_S6_
0010f24e W _ZNSt20__uninitialized_copyILb0EE13__uninit_copyISt13move_iteratorIPN7peparse13aux_symbol_f4EES5_EET0_T_S8_S7_
0010f12e W _ZNSt20__uninitialized_copyILb0EE13__uninit_copyISt13move_iteratorIPN7peparse6symbolEES5_EET0_T_S8_S7_
0010e930 W _ZNSt20__uninitialized_copyILb0EE13__uninit_copyISt13move_iteratorIPN7peparse7sectionEES5_EET0_T_S8_S7_
0010e882 W _ZNSt20__uninitialized_copyILb0EE13__uninit_copyISt13move_iteratorIPN7peparse8resourceEES5_EET0_T_S8_S7_
0010eb4c W _ZNSt20__uninitialized_copyILb0EE13__uninit_copyISt13move_iteratorIPN7peparse9exportentEES5_EET0_T_S8_S7_
0010ec20 W _ZNSt20__uninitialized_copyILb0EE13__uninit_copyISt13move_iteratorIPN7peparse9importentEES5_EET0_T_S8_S7_
0011d946 W _ZNSt20__uninitialized_copyILb0EE13__uninit_copyISt13move_iteratorIPNSt7__cxx1112basic_stringIcSt11char_traitsIcESaIcEEEES9_EET0_T_SC_SB_
0010fc3e W _ZNSt20__uninitialized_copyILb1EE13__uninit_copyIN9__gnu_cxx17__normal_iteratorIPKN7peparse13aux_symbol_f1ESt6vectorIS5_SaIS5_EEEEPS5_EET0_T_SE_SD_
0010fc60 W _ZNSt20__uninitialized_copyILb1EE13__uninit_copyIN9__gnu_cxx17__normal_iteratorIPKN7peparse13aux_symbol_f2ESt6vectorIS5_SaIS5_EEEEPS5_EET0_T_SE_SD_
0010fc82 W _ZNSt20__uninitialized_copyILb1EE13__uninit_copyIN9__gnu_cxx17__normal_iteratorIPKN7peparse13aux_symbol_f3ESt6vectorIS5_SaIS5_EEEEPS5_EET0_T_SE_SD_
0010fd4e W _ZNSt20__uninitialized_copyILb1EE13__uninit_copyIN9__gnu_cxx17__normal_iteratorIPKN7peparse13aux_symbol_f5ESt6vectorIS5_SaIS5_EEEEPS5_EET0_T_SE_SD_
0010f389 W _ZNSt20__uninitialized_copyILb1EE13__uninit_copyIPhS2_EET0_T_S4_S3_
001100f8 W _ZNSt20__uninitialized_copyILb1EE13__uninit_copyISt13move_iteratorIPcES3_EET0_T_S6_S5_
0010eb26 W _ZNSt20__uninitialized_copyILb1EE13__uninit_copyISt13move_iteratorIPN7peparse10rich_entryEES5_EET0_T_S8_S7_
0010f1dc W _ZNSt20__uninitialized_copyILb1EE13__uninit_copyISt13move_iteratorIPN7peparse13aux_symbol_f1EES5_EET0_T_S8_S7_
0010f202 W _ZNSt20__uninitialized_copyILb1EE13__uninit_copyISt13move_iteratorIPN7peparse13aux_symbol_f2EES5_EET0_T_S8_S7_
0010f228 W _ZNSt20__uninitialized_copyILb1EE13__uninit_copyISt13move_iteratorIPN7peparse13aux_symbol_f3EES5_EET0_T_S8_S7_
0010f2fc W _ZNSt20__uninitialized_copyILb1EE13__uninit_copyISt13move_iteratorIPN7peparse13aux_symbol_f5EES5_EET0_T_S8_S7_
0010ebfa W _ZNSt20__uninitialized_copyILb1EE13__uninit_copyISt13move_iteratorIPN7peparse5relocEES5_EET0_T_S8_S7_
00107e1c W _ZNSt23_Rb_tree_const_iteratorISt4pairIKtKNSt7__cxx1112basic_stringIcSt11char_traitsIcESaIcEEEEEC1EPKSt18_Rb_tree_node_base
00107aee W _ZNSt23_Rb_tree_const_iteratorISt4pairIKtKNSt7__cxx1112basic_stringIcSt11char_traitsIcESaIcEEEEEC1ERKSt17_Rb_tree_iteratorIS9_E
00107e1c W _ZNSt23_Rb_tree_const_iteratorISt4pairIKtKNSt7__cxx1112basic_stringIcSt11char_traitsIcESaIcEEEEEC2EPKSt18_Rb_tree_node_base
00107aee W _ZNSt23_Rb_tree_const_iteratorISt4pairIKtKNSt7__cxx1112basic_stringIcSt11char_traitsIcESaIcEEEEEC2ERKSt17_Rb_tree_iteratorIS9_E
00107d0a W _ZNSt23_Rb_tree_const_iteratorISt4pairIKtNSt7__cxx1112basic_stringIcSt11char_traitsIcESaIcEEEEEC1EPKSt18_Rb_tree_node_base
0010791c W _ZNSt23_Rb_tree_const_iteratorISt4pairIKtNSt7__cxx1112basic_stringIcSt11char_traitsIcESaIcEEEEEC1ERKSt17_Rb_tree_iteratorIS8_E
00107d0a W _ZNSt23_Rb_tree_const_iteratorISt4pairIKtNSt7__cxx1112basic_stringIcSt11char_traitsIcESaIcEEEEEC2EPKSt18_Rb_tree_node_base
0010791c W _ZNSt23_Rb_tree_const_iteratorISt4pairIKtNSt7__cxx1112basic_stringIcSt11char_traitsIcESaIcEEEEEC2ERKSt17_Rb_tree_iteratorIS8_E
00224260 T _ZNSt25__codecvt_utf8_utf16_baseIDiED0Ev
00224230 T _ZNSt25__codecvt_utf8_utf16_baseIDiED1Ev
00224230 T _ZNSt25__codecvt_utf8_utf16_baseIDiED2Ev
002240e0 T _ZNSt25__codecvt_utf8_utf16_baseIDsED0Ev
002240b0 T _ZNSt25__codecvt_utf8_utf16_baseIDsED1Ev
002240b0 T _ZNSt25__codecvt_utf8_utf16_baseIDsED2Ev
00224610 T _ZNSt25__codecvt_utf8_utf16_baseIwED0Ev
002245e0 T _ZNSt25__codecvt_utf8_utf16_baseIwED1Ev
002245e0 T _ZNSt25__codecvt_utf8_utf16_baseIwED2Ev
0022bfb0 T _ZNSt28__atomic_futex_unsigned_base19_M_futex_notify_allEPj
0022beb0 T _ZNSt28__atomic_futex_unsigned_base19_M_futex_wait_untilEPjjbNSt6chrono8durationIxSt5ratioILx1ELx1EEEENS2_IxS3_ILx1ELx1000000000EEEE
00103534 W _ZNSt3mapItKNSt7__cxx1112basic_stringIcSt11char_traitsIcESaIcEEESt4lessItESaISt4pairIKtS6_EEEC1ESt16initializer_listISB_ERKS8_RKSC_
00103534 W _ZNSt3mapItKNSt7__cxx1112basic_stringIcSt11char_traitsIcESaIcEEESt4lessItESaISt4pairIKtS6_EEEC2ESt16initializer_listISB_ERKS8_RKSC_
00102c0a W _ZNSt3mapItKNSt7__cxx1112basic_stringIcSt11char_traitsIcESaIcEEESt4lessItESaISt4pairIKtS6_EEED1Ev
00102c0a W _ZNSt3mapItKNSt7__cxx1112basic_stringIcSt11char_traitsIcESaIcEEESt4lessItESaISt4pairIKtS6_EEED2Ev
00103386 W _ZNSt3mapItNSt7__cxx1112basic_stringIcSt11char_traitsIcESaIcEEESt4lessItESaISt4pairIKtS5_EEEC1ESt16initializer_listISA_ERKS7_RKSB_
00103386 W _ZNSt3mapItNSt7__cxx1112basic_stringIcSt11char_traitsIcESaIcEEESt4lessItESaISt4pairIKtS5_EEEC2ESt16initializer_listISA_ERKS7_RKSB_
0010221a W _ZNSt3mapItNSt7__cxx1112basic_stringIcSt11char_traitsIcESaIcEEESt4lessItESaISt4pairIKtS5_EEED1Ev
0010221a W _ZNSt3mapItNSt7__cxx1112basic_stringIcSt11char_traitsIcESaIcEEESt4lessItESaISt4pairIKtS5_EEED2Ev
00222380 T _ZNSt3_V214error_categoryD0Ev
002222b0 T _ZNSt3_V214error_categoryD1Ev
002222b0 T _ZNSt3_V214error_categoryD2Ev
002223b0 T _ZNSt3_V215system_categoryEv
002223d0 T _ZNSt3_V216generic_categoryEv
00110c46 W _ZNSt4pairIKtKNSt7__cxx1112basic_stringIcSt11char_traitsIcESaIcEEEEC1ERKS8_
00102b3a W _ZNSt4pairIKtKNSt7__cxx1112basic_stringIcSt11char_traitsIcESaIcEEEEC1ItPKcvEEOS_IT_T0_E
00110c46 W _ZNSt4pairIKtKNSt7__cxx1112basic_stringIcSt11char_traitsIcESaIcEEEEC2ERKS8_
00102bee W _ZNSt4pairIKtKNSt7__cxx1112basic_stringIcSt11char_traitsIcESaIcEEEED1Ev
00102bee W _ZNSt4pairIKtKNSt7__cxx1112basic_stringIcSt11char_traitsIcESaIcEEEED2Ev
00110b7e W _ZNSt4pairIKtNSt7__cxx1112basic_stringIcSt11char_traitsIcESaIcEEEEC1ERKS7_
001021b6 W _ZNSt4pairIKtNSt7__cxx1112basic_stringIcSt11char_traitsIcESaIcEEEEC1ItS6_vEEOS_IT_T0_E
00110b7e W _ZNSt4pairIKtNSt7__cxx1112basic_stringIcSt11char_traitsIcESaIcEEEEC2ERKS7_
001021fe W _ZNSt4pairIKtNSt7__cxx1112basic_stringIcSt11char_traitsIcESaIcEEEED1Ev
001021fe W _ZNSt4pairIKtNSt7__cxx1112basic_stringIcSt11char_traitsIcESaIcEEEED2Ev
0010d106 W _ZNSt4pairIPSt18_Rb_tree_node_baseS1_EC1IRPSt13_Rb_tree_nodeIS_IKtKNSt7__cxx1112basic_stringIcSt11char_traitsIcESaIcEEEEESG_vEEOT_OT0_
0010ce20 W _ZNSt4pairIPSt18_Rb_tree_node_baseS1_EC1IRPSt13_Rb_tree_nodeIS_IKtNSt7__cxx1112basic_stringIcSt11char_traitsIcESaIcEEEEESF_vEEOT_OT0_
0010aa8c W _ZNSt4pairIPSt18_Rb_tree_node_baseS1_EC1IRS1_S4_vEEOT_OT0_
0010aac0 W _ZNSt4pairIPSt18_Rb_tree_node_baseS1_EC1IRS1_vEEOT_RKS1_
0010aa62 W _ZNSt4pairIPSt18_Rb_tree_node_baseS1_EC1IRS1_vEERKS1_OT_
0010d106 W _ZNSt4pairIPSt18_Rb_tree_node_baseS1_EC2IRPSt13_Rb_tree_nodeIS_IKtKNSt7__cxx1112basic_stringIcSt11char_traitsIcESaIcEEEEESG_vEEOT_OT0_
0010ce20 W _ZNSt4pairIPSt18_Rb_tree_node_baseS1_EC2IRPSt13_Rb_tree_nodeIS_IKtNSt7__cxx1112basic_stringIcSt11char_traitsIcESaIcEEEEESF_vEEOT_OT0_
0010aa8c W _ZNSt4pairIPSt18_Rb_tree_node_baseS1_EC2IRS1_S4_vEEOT_OT0_
0010aac0 W _ZNSt4pairIPSt18_Rb_tree_node_baseS1_EC2IRS1_vEEOT_RKS1_
0010aa62 W _ZNSt4pairIPSt18_Rb_tree_node_baseS1_EC2IRS1_vEERKS1_OT_
0010211e W _ZNSt4pairItNSt7__cxx1112basic_stringIcSt11char_traitsIcESaIcEEEEC1ItvEEOT_RKS5_
00102154 W _ZNSt4pairItNSt7__cxx1112basic_stringIcSt11char_traitsIcESaIcEEEED1Ev
00102154 W _ZNSt4pairItNSt7__cxx1112basic_stringIcSt11char_traitsIcESaIcEEEED2Ev
0010223a W _ZNSt4pairItPKcEC1ItvEEOT_RKS1_
00245298 R _ZNSt5ctypeIcE10table_sizeE
002225e0 T _ZNSt5ctypeIcE13classic_tableEv
002bf75c B _ZNSt5ctypeIcE2idE
00222620 T _ZNSt5ctypeIcEC1EP15__locale_structPKtbj
00222700 T _ZNSt5ctypeIcEC1EPKtbj
00222620 T _ZNSt5ctypeIcEC2EP15__locale_structPKtbj
00222700 T _ZNSt5ctypeIcEC2EPKtbj
001ad3a0 T _ZNSt5ctypeIcED0Ev
001ad2c0 T _ZNSt5ctypeIcED1Ev
001ad2c0 T _ZNSt5ctypeIcED2Ev
001ad1a0 T _ZNSt5ctypeIwE19_M_initialize_ctypeEv
002bf758 B _ZNSt5ctypeIwE2idE
001ad660 T _ZNSt5ctypeIwEC1Ej
001ad6d0 T _ZNSt5ctypeIwEC1EP15__locale_structj
001ad660 T _ZNSt5ctypeIwEC2Ej
001ad6d0 T _ZNSt5ctypeIwEC2EP15__locale_structj
001ad3d0 T _ZNSt5ctypeIwED0Ev
001ad320 T _ZNSt5ctypeIwED1Ev
001ad320 T _ZNSt5ctypeIwED2Ev
0019ba70 W _ZNSt5__padIcSt11char_traitsIcEE6_S_padERSt8ios_basecPcPKcii
001f8980 W _ZNSt5__padIwSt11char_traitsIwEE6_S_padERSt8ios_basewPwPKwii
002bf6bc B _ZNSt6locale10_S_classicE
002b7ac0 D _ZNSt6locale13_S_categoriesE
0021b8f0 T _ZNSt6locale13_S_initializeEv
002bafa0 D _ZNSt6locale17_S_twinned_facetsE
0021b8b0 T _ZNSt6locale18_S_initialize_onceEv
001921a0 T _ZNSt6locale21_S_normalize_categoryEi
002bf6a8 B _ZNSt6locale2id11_S_refcountE
002445e4 R _ZNSt6locale3allE
00244600 R _ZNSt6locale4noneE
002445f0 R _ZNSt6locale4timeE
002445fc R _ZNSt6locale5ctypeE
002bf6b0 B _ZNSt6locale5facet11_S_c_localeE
001922b0 T _ZNSt6locale5facet13_S_get_c_nameEv
00192250 T _ZNSt6locale5facet15_S_get_c_localeEv
0021c0d0 T _ZNSt6locale5facet17_S_clone_c_localeERP15__locale_struct
0021c050 T _ZNSt6locale5facet18_S_create_c_localeERP15__locale_structPKcS2_
00191bd0 T _ZNSt6locale5facet18_S_initialize_onceEv
0021c090 T _ZNSt6locale5facet19_S_destroy_c_localeERP15__locale_struct
0021c0f0 T _ZNSt6locale5facet20_S_lc_ctype_c_localeEP15__locale_structPKc
002bf6ac B _ZNSt6locale5facet7_S_onceE
002445e2 R _ZNSt6locale5facet9_S_c_nameE
00191ba0 T _ZNSt6locale5facetD0Ev
00191b90 T _ZNSt6locale5facetD1Ev
00191b90 T _ZNSt6locale5facetD2Ev
002bb084 D _ZNSt6locale5_Impl10_S_id_timeE
002bb0c8 D _ZNSt6locale5_Impl11_S_id_ctypeE
002261a0 T _ZNSt6locale5_Impl13_M_init_extraEPPNS_5facetE
002269f0 T _ZNSt6locale5_Impl13_M_init_extraEPvS1_PKcS3_
002bb0a0 D _ZNSt6locale5_Impl13_S_id_collateE
002bb0ac D _ZNSt6locale5_Impl13_S_id_numericE
002bb044 D _ZNSt6locale5_Impl14_S_id_messagesE
002bb060 D _ZNSt6locale5_Impl14_S_id_monetaryE
00192ce0 T _ZNSt6locale5_Impl16_M_install_cacheEPKNS_5facetEj
00192780 T _ZNSt6locale5_Impl16_M_install_facetEPKNS_2idEPKNS_5facetE
00192c30 T _ZNSt6locale5_Impl16_M_replace_facetEPKS0_PKNS_2idE
00192c90 T _ZNSt6locale5_Impl19_M_replace_categoryEPKS0_PKPKNS_2idE
002bb028 D _ZNSt6locale5_Impl19_S_facet_categoriesE
0021a890 T _ZNSt6locale5_ImplC1Ej
00192550 T _ZNSt6locale5_ImplC1ERKS0_j
0021a890 T _ZNSt6locale5_ImplC2Ej
00192550 T _ZNSt6locale5_ImplC2ERKS0_j
001922d0 T _ZNSt6locale5_ImplD1Ev
001922d0 T _ZNSt6locale5_ImplD2Ev
0021ba90 T _ZNSt6locale6globalERKS_
0021ba50 T _ZNSt6locale7classicEv
002445f4 R _ZNSt6locale7collateE
002445f8 R _ZNSt6locale7numericE
002bf6b4 B _ZNSt6locale7_S_onceE
002445e8 R _ZNSt6locale8messagesE
002445ec R _ZNSt6locale8monetaryE
002bf6b8 B _ZNSt6locale9_S_globalE
00192470 T _ZNSt6localeaSERKS_
00191cc0 T _ZNSt6localeC1EPNS_5_ImplE
00191c80 T _ZNSt6localeC1ERKS_
0021b950 T _ZNSt6localeC1Ev
00191cc0 T _ZNSt6localeC2EPNS_5_ImplE
00191c80 T _ZNSt6localeC2ERKS_
0021b950 T _ZNSt6localeC2Ev
001924f0 T _ZNSt6localeD1Ev
001924f0 T _ZNSt6localeD2Ev
00119cdc W _ZNSt6vectorI16NESTED_FILE_INFOSaIS0_EE19_M_emplace_back_auxIIRKS0_EEEvDpOT_
00119cdc W _ZNSt6vectorI16NESTED_FILE_INFOSaIS0_EE19_M_emplace_back_auxIJRKS0_EEEvDpOT_
00119b34 W _ZNSt6vectorI16NESTED_FILE_INFOSaIS0_EE3endEv
00119b14 W _ZNSt6vectorI16NESTED_FILE_INFOSaIS0_EE5beginEv
00119ba8 W _ZNSt6vectorI16NESTED_FILE_INFOSaIS0_EE9push_backERKS0_
00119aba W _ZNSt6vectorI16NESTED_FILE_INFOSaIS0_EEC1Ev
00119aba W _ZNSt6vectorI16NESTED_FILE_INFOSaIS0_EEC2Ev
00119ad2 W _ZNSt6vectorI16NESTED_FILE_INFOSaIS0_EED1Ev
00119ad2 W _ZNSt6vectorI16NESTED_FILE_INFOSaIS0_EED2Ev
0011cc38 W _ZNSt6vectorI8Cab_InfoSaIS0_EE19_M_emplace_back_auxIIRKS0_EEEvDpOT_
0011cc38 W _ZNSt6vectorI8Cab_InfoSaIS0_EE19_M_emplace_back_auxIJRKS0_EEEvDpOT_
0011c546 W _ZNSt6vectorI8Cab_InfoSaIS0_EE3endEv
0011c526 W _ZNSt6vectorI8Cab_InfoSaIS0_EE5beginEv
0011c758 W _ZNSt6vectorI8Cab_InfoSaIS0_EE9push_backERKS0_
0011c4cc W _ZNSt6vectorI8Cab_InfoSaIS0_EEC1Ev
0011c4cc W _ZNSt6vectorI8Cab_InfoSaIS0_EEC2Ev
0011c4e4 W _ZNSt6vectorI8Cab_InfoSaIS0_EED1Ev
0011c4e4 W _ZNSt6vectorI8Cab_InfoSaIS0_EED2Ev
0010779c W _ZNSt6vectorIcSaIcEE12emplace_backIIcEEEvDpOT_
0010779c W _ZNSt6vectorIcSaIcEE12emplace_backIJcEEEvDpOT_
0010a710 W _ZNSt6vectorIcSaIcEE19_M_emplace_back_auxIIcEEEvDpOT_
0010a710 W _ZNSt6vectorIcSaIcEE19_M_emplace_back_auxIJcEEEvDpOT_
00104ba0 W _ZNSt6vectorIcSaIcEE3endEv
00104b80 W _ZNSt6vectorIcSaIcEE5beginEv
00104b5a W _ZNSt6vectorIcSaIcEE9push_backEOc
00104af8 W _ZNSt6vectorIcSaIcEEC1Ev
00104af8 W _ZNSt6vectorIcSaIcEEC2Ev
00104b10 W _ZNSt6vectorIcSaIcEED1Ev
00104b10 W _ZNSt6vectorIcSaIcEED2Ev
0010a4ce W _ZNSt6vectorIhSaIhEE13_M_assign_auxIPhEEvT_S4_St20forward_iterator_tag
0010767e W _ZNSt6vectorIhSaIhEE15_M_erase_at_endEPh
001076b8 W _ZNSt6vectorIhSaIhEE18_M_assign_dispatchIPhEEvT_S4_St12__false_type
0010c9e8 W _ZNSt6vectorIhSaIhEE20_M_allocate_and_copyIPhEES3_jT_S4_
001049c4 W _ZNSt6vectorIhSaIhEE5clearEv
001049e2 W _ZNSt6vectorIhSaIhEE6assignIPhvEEvT_S4_
00105a6a W _ZNSt6vectorIN7peparse10rich_entryESaIS1_EE19_M_emplace_back_auxIIRKS1_EEEvDpOT_
00105a6a W _ZNSt6vectorIN7peparse10rich_entryESaIS1_EE19_M_emplace_back_auxIJRKS1_EEEvDpOT_
00103a2c W _ZNSt6vectorIN7peparse10rich_entryESaIS1_EE3endEv
00103a0c W _ZNSt6vectorIN7peparse10rich_entryESaIS1_EE5beginEv
00103d8c W _ZNSt6vectorIN7peparse10rich_entryESaIS1_EE9push_backERKS1_
00104394 W _ZNSt6vectorIN7peparse10rich_entryESaIS1_EEC1Ev
00104394 W _ZNSt6vectorIN7peparse10rich_entryESaIS1_EEC2Ev
001043ac W _ZNSt6vectorIN7peparse10rich_entryESaIS1_EED1Ev
001043ac W _ZNSt6vectorIN7peparse10rich_entryESaIS1_EED2Ev
0010679a W _ZNSt6vectorIN7peparse13aux_symbol_f1ESaIS1_EE19_M_emplace_back_auxIIRKS1_EEEvDpOT_
0010679a W _ZNSt6vectorIN7peparse13aux_symbol_f1ESaIS1_EE19_M_emplace_back_auxIJRKS1_EEEvDpOT_
001041f0 W _ZNSt6vectorIN7peparse13aux_symbol_f1ESaIS1_EE9push_backERKS1_
0011078e W _ZNSt6vectorIN7peparse13aux_symbol_f1ESaIS1_EEC1EOS3_
0010be38 W _ZNSt6vectorIN7peparse13aux_symbol_f1ESaIS1_EEC1ERKS3_
00103fda W _ZNSt6vectorIN7peparse13aux_symbol_f1ESaIS1_EEC1Ev
0011078e W _ZNSt6vectorIN7peparse13aux_symbol_f1ESaIS1_EEC2EOS3_
0010be38 W _ZNSt6vectorIN7peparse13aux_symbol_f1ESaIS1_EEC2ERKS3_
00103fda W _ZNSt6vectorIN7peparse13aux_symbol_f1ESaIS1_EEC2Ev
00103ff2 W _ZNSt6vectorIN7peparse13aux_symbol_f1ESaIS1_EED1Ev
00103ff2 W _ZNSt6vectorIN7peparse13aux_symbol_f1ESaIS1_EED2Ev
00106984 W _ZNSt6vectorIN7peparse13aux_symbol_f2ESaIS1_EE19_M_emplace_back_auxIIRKS1_EEEvDpOT_
00106984 W _ZNSt6vectorIN7peparse13aux_symbol_f2ESaIS1_EE19_M_emplace_back_auxIJRKS1_EEEvDpOT_
00104244 W _ZNSt6vectorIN7peparse13aux_symbol_f2ESaIS1_EE9push_backERKS1_
001107c0 W _ZNSt6vectorIN7peparse13aux_symbol_f2ESaIS1_EEC1EOS3_
0010bf50 W _ZNSt6vectorIN7peparse13aux_symbol_f2ESaIS1_EEC1ERKS3_
00104034 W _ZNSt6vectorIN7peparse13aux_symbol_f2ESaIS1_EEC1Ev
001107c0 W _ZNSt6vectorIN7peparse13aux_symbol_f2ESaIS1_EEC2EOS3_
0010bf50 W _ZNSt6vectorIN7peparse13aux_symbol_f2ESaIS1_EEC2ERKS3_
00104034 W _ZNSt6vectorIN7peparse13aux_symbol_f2ESaIS1_EEC2Ev
0010404c W _ZNSt6vectorIN7peparse13aux_symbol_f2ESaIS1_EED1Ev
0010404c W _ZNSt6vectorIN7peparse13aux_symbol_f2ESaIS1_EED2Ev
00106b74 W _ZNSt6vectorIN7peparse13aux_symbol_f3ESaIS1_EE19_M_emplace_back_auxIIRKS1_EEEvDpOT_
00106b74 W _ZNSt6vectorIN7peparse13aux_symbol_f3ESaIS1_EE19_M_emplace_back_auxIJRKS1_EEEvDpOT_
00104298 W _ZNSt6vectorIN7peparse13aux_symbol_f3ESaIS1_EE9push_backERKS1_
001107f2 W _ZNSt6vectorIN7peparse13aux_symbol_f3ESaIS1_EEC1EOS3_
0010c068 W _ZNSt6vectorIN7peparse13aux_symbol_f3ESaIS1_EEC1ERKS3_
0010408e W _ZNSt6vectorIN7peparse13aux_symbol_f3ESaIS1_EEC1Ev
001107f2 W _ZNSt6vectorIN7peparse13aux_symbol_f3ESaIS1_EEC2EOS3_
0010c068 W _ZNSt6vectorIN7peparse13aux_symbol_f3ESaIS1_EEC2ERKS3_
0010408e W _ZNSt6vectorIN7peparse13aux_symbol_f3ESaIS1_EEC2Ev
001040a6 W _ZNSt6vectorIN7peparse13aux_symbol_f3ESaIS1_EED1Ev
001040a6 W _ZNSt6vectorIN7peparse13aux_symbol_f3ESaIS1_EED2Ev
00106d64 W _ZNSt6vectorIN7peparse13aux_symbol_f4ESaIS1_EE19_M_emplace_back_auxIIRKS1_EEEvDpOT_
00106d64 W _ZNSt6vectorIN7peparse13aux_symbol_f4ESaIS1_EE19_M_emplace_back_auxIJRKS1_EEEvDpOT_
001042ec W _ZNSt6vectorIN7peparse13aux_symbol_f4ESaIS1_EE9push_backERKS1_
00110824 W _ZNSt6vectorIN7peparse13aux_symbol_f4ESaIS1_EEC1EOS3_
0010c180 W _ZNSt6vectorIN7peparse13aux_symbol_f4ESaIS1_EEC1ERKS3_
001040e8 W _ZNSt6vectorIN7peparse13aux_symbol_f4ESaIS1_EEC1Ev
00110824 W _ZNSt6vectorIN7peparse13aux_symbol_f4ESaIS1_EEC2EOS3_
0010c180 W _ZNSt6vectorIN7peparse13aux_symbol_f4ESaIS1_EEC2ERKS3_
001040e8 W _ZNSt6vectorIN7peparse13aux_symbol_f4ESaIS1_EEC2Ev
00104100 W _ZNSt6vectorIN7peparse13aux_symbol_f4ESaIS1_EED1Ev
00104100 W _ZNSt6vectorIN7peparse13aux_symbol_f4ESaIS1_EED2Ev
00106f4e W _ZNSt6vectorIN7peparse13aux_symbol_f5ESaIS1_EE19_M_emplace_back_auxIIRKS1_EEEvDpOT_
00106f4e W _ZNSt6vectorIN7peparse13aux_symbol_f5ESaIS1_EE19_M_emplace_back_auxIJRKS1_EEEvDpOT_
00104340 W _ZNSt6vectorIN7peparse13aux_symbol_f5ESaIS1_EE9push_backERKS1_
00110856 W _ZNSt6vectorIN7peparse13aux_symbol_f5ESaIS1_EEC1EOS3_
0010c298 W _ZNSt6vectorIN7peparse13aux_symbol_f5ESaIS1_EEC1ERKS3_
00104142 W _ZNSt6vectorIN7peparse13aux_symbol_f5ESaIS1_EEC1Ev
00110856 W _ZNSt6vectorIN7peparse13aux_symbol_f5ESaIS1_EEC2EOS3_
0010c298 W _ZNSt6vectorIN7peparse13aux_symbol_f5ESaIS1_EEC2ERKS3_
00104142 W _ZNSt6vectorIN7peparse13aux_symbol_f5ESaIS1_EEC2Ev
0010415a W _ZNSt6vectorIN7peparse13aux_symbol_f5ESaIS1_EED1Ev
0010415a W _ZNSt6vectorIN7peparse13aux_symbol_f5ESaIS1_EED2Ev
00105e5e W _ZNSt6vectorIN7peparse5relocESaIS1_EE19_M_emplace_back_auxIIRKS1_EEEvDpOT_
00105e5e W _ZNSt6vectorIN7peparse5relocESaIS1_EE19_M_emplace_back_auxIJRKS1_EEEvDpOT_
00104828 W _ZNSt6vectorIN7peparse5relocESaIS1_EE3endEv
00104808 W _ZNSt6vectorIN7peparse5relocESaIS1_EE5beginEv
00103e34 W _ZNSt6vectorIN7peparse5relocESaIS1_EE9push_backERKS1_
001044fc W _ZNSt6vectorIN7peparse5relocESaIS1_EEC1Ev
001044fc W _ZNSt6vectorIN7peparse5relocESaIS1_EEC2Ev
00104514 W _ZNSt6vectorIN7peparse5relocESaIS1_EED1Ev
00104514 W _ZNSt6vectorIN7peparse5relocESaIS1_EED2Ev
001065b0 W _ZNSt6vectorIN7peparse6symbolESaIS1_EE19_M_emplace_back_auxIIRKS1_EEEvDpOT_
001065b0 W _ZNSt6vectorIN7peparse6symbolESaIS1_EE19_M_emplace_back_auxIJRKS1_EEEvDpOT_
001048bc W _ZNSt6vectorIN7peparse6symbolESaIS1_EE3endEv
0010489c W _ZNSt6vectorIN7peparse6symbolESaIS1_EE5beginEv
0010419c W _ZNSt6vectorIN7peparse6symbolESaIS1_EE9push_backERKS1_
001045b0 W _ZNSt6vectorIN7peparse6symbolESaIS1_EEC1Ev
001045b0 W _ZNSt6vectorIN7peparse6symbolESaIS1_EEC2Ev
001045c8 W _ZNSt6vectorIN7peparse6symbolESaIS1_EED1Ev
001045c8 W _ZNSt6vectorIN7peparse6symbolESaIS1_EED2Ev
00105870 W _ZNSt6vectorIN7peparse7sectionESaIS1_EE19_M_emplace_back_auxIIRKS1_EEEvDpOT_
00105870 W _ZNSt6vectorIN7peparse7sectionESaIS1_EE19_M_emplace_back_auxIJRKS1_EEEvDpOT_
00103d6a W _ZNSt6vectorIN7peparse7sectionESaIS1_EE3endEv
00103d4a W _ZNSt6vectorIN7peparse7sectionESaIS1_EE5beginEv
00103cf6 W _ZNSt6vectorIN7peparse7sectionESaIS1_EE9push_backERKS1_
0010460a W _ZNSt6vectorIN7peparse7sectionESaIS1_EEC1ERKS3_
001043ee W _ZNSt6vectorIN7peparse7sectionESaIS1_EEC1Ev
0010460a W _ZNSt6vectorIN7peparse7sectionESaIS1_EEC2ERKS3_
001043ee W _ZNSt6vectorIN7peparse7sectionESaIS1_EEC2Ev
00104406 W _ZNSt6vectorIN7peparse7sectionESaIS1_EED1Ev
00104406 W _ZNSt6vectorIN7peparse7sectionESaIS1_EED2Ev
00104a6c W _ZNSt6vectorIN7peparse7sectionESaIS1_EEixEj
00105668 W _ZNSt6vectorIN7peparse8resourceESaIS1_EE19_M_emplace_back_auxIIRKS1_EEEvDpOT_
00105668 W _ZNSt6vectorIN7peparse8resourceESaIS1_EE19_M_emplace_back_auxIJRKS1_EEEvDpOT_
00103ac0 W _ZNSt6vectorIN7peparse8resourceESaIS1_EE3endEv
00103aa0 W _ZNSt6vectorIN7peparse8resourceESaIS1_EE5beginEv
00103c86 W _ZNSt6vectorIN7peparse8resourceESaIS1_EE9push_backERKS1_
00104448 W _ZNSt6vectorIN7peparse8resourceESaIS1_EEC1Ev
00104448 W _ZNSt6vectorIN7peparse8resourceESaIS1_EEC2Ev
00104460 W _ZNSt6vectorIN7peparse8resourceESaIS1_EED1Ev
00104460 W _ZNSt6vectorIN7peparse8resourceESaIS1_EED2Ev
00104c50 W _ZNSt6vectorIN7peparse8resourceESaIS1_EEixEj
00105c5a W _ZNSt6vectorIN7peparse9exportentESaIS1_EE19_M_emplace_back_auxIIRKS1_EEEvDpOT_
00105c5a W _ZNSt6vectorIN7peparse9exportentESaIS1_EE19_M_emplace_back_auxIJRKS1_EEEvDpOT_
00104950 W _ZNSt6vectorIN7peparse9exportentESaIS1_EE3endEv
00104930 W _ZNSt6vectorIN7peparse9exportentESaIS1_EE5beginEv
00103de0 W _ZNSt6vectorIN7peparse9exportentESaIS1_EE9push_backERKS1_
00104556 W _ZNSt6vectorIN7peparse9exportentESaIS1_EEC1Ev
00104556 W _ZNSt6vectorIN7peparse9exportentESaIS1_EEC2Ev
0010456e W _ZNSt6vectorIN7peparse9exportentESaIS1_EED1Ev
0010456e W _ZNSt6vectorIN7peparse9exportentESaIS1_EED2Ev
001060b6 W _ZNSt6vectorIN7peparse9importentESaIS1_EE19_M_emplace_back_auxIIRKS1_EEEvDpOT_
001060b6 W _ZNSt6vectorIN7peparse9importentESaIS1_EE19_M_emplace_back_auxIJRKS1_EEEvDpOT_
00104794 W _ZNSt6vectorIN7peparse9importentESaIS1_EE3endEv
00104774 W _ZNSt6vectorIN7peparse9importentESaIS1_EE5beginEv
00103e88 W _ZNSt6vectorIN7peparse9importentESaIS1_EE9push_backERKS1_
001044a2 W _ZNSt6vectorIN7peparse9importentESaIS1_EEC1Ev
001044a2 W _ZNSt6vectorIN7peparse9importentESaIS1_EEC2Ev
001044ba W _ZNSt6vectorIN7peparse9importentESaIS1_EED1Ev
001044ba W _ZNSt6vectorIN7peparse9importentESaIS1_EED2Ev
0011ca32 W _ZNSt6vectorINSt7__cxx1112basic_stringIcSt11char_traitsIcESaIcEEESaIS5_EE19_M_emplace_back_auxIIRKS5_EEEvDpOT_
0011ca32 W _ZNSt6vectorINSt7__cxx1112basic_stringIcSt11char_traitsIcESaIcEEESaIS5_EE19_M_emplace_back_auxIJRKS5_EEEvDpOT_
0011c636 W _ZNSt6vectorINSt7__cxx1112basic_stringIcSt11char_traitsIcESaIcEEESaIS5_EE3endEv
0011c616 W _ZNSt6vectorINSt7__cxx1112basic_stringIcSt11char_traitsIcESaIcEEESaIS5_EE5beginEv
0011c704 W _ZNSt6vectorINSt7__cxx1112basic_stringIcSt11char_traitsIcESaIcEEESaIS5_EE9push_backERKS5_
0011c5bc W _ZNSt6vectorINSt7__cxx1112basic_stringIcSt11char_traitsIcESaIcEEESaIS5_EEC1Ev
0011c5bc W _ZNSt6vectorINSt7__cxx1112basic_stringIcSt11char_traitsIcESaIcEEESaIS5_EEC2Ev
0011c5d4 W _ZNSt6vectorINSt7__cxx1112basic_stringIcSt11char_traitsIcESaIcEEESaIS5_EED1Ev
0011c5d4 W _ZNSt6vectorINSt7__cxx1112basic_stringIcSt11char_traitsIcESaIcEEESaIS5_EED2Ev
0011ede4 W _ZNSt6vectorINSt7__cxx1112basic_stringIcSt11char_traitsIcESaIcEEESaIS5_EEixEj
002bf954 B _ZNSt7codecvtIcc11__mbstate_tE2idE
00219650 T _ZNSt7codecvtIcc11__mbstate_tEC1Ej
002196b0 T _ZNSt7codecvtIcc11__mbstate_tEC1EP15__locale_structj
00219650 T _ZNSt7codecvtIcc11__mbstate_tEC2Ej
002196b0 T _ZNSt7codecvtIcc11__mbstate_tEC2EP15__locale_structj
00219580 T _ZNSt7codecvtIcc11__mbstate_tED0Ev
00219510 T _ZNSt7codecvtIcc11__mbstate_tED1Ev
00219510 T _ZNSt7codecvtIcc11__mbstate_tED2Ev
002c08f8 B _ZNSt7codecvtIDic11__mbstate_tE2idE
00224140 T _ZNSt7codecvtIDic11__mbstate_tED0Ev
00224110 T _ZNSt7codecvtIDic11__mbstate_tED1Ev
00224110 T _ZNSt7codecvtIDic11__mbstate_tED2Ev
002c08fc B _ZNSt7codecvtIDsc11__mbstate_tE2idE
00223fc0 T _ZNSt7codecvtIDsc11__mbstate_tED0Ev
00223f90 T _ZNSt7codecvtIDsc11__mbstate_tED1Ev
00223f90 T _ZNSt7codecvtIDsc11__mbstate_tED2Ev
002bf950 B _ZNSt7codecvtIwc11__mbstate_tE2idE
002196f0 T _ZNSt7codecvtIwc11__mbstate_tEC1Ej
00219750 T _ZNSt7codecvtIwc11__mbstate_tEC1EP15__locale_structj
002196f0 T _ZNSt7codecvtIwc11__mbstate_tEC2Ej
00219750 T _ZNSt7codecvtIwc11__mbstate_tEC2EP15__locale_structj
00219620 T _ZNSt7codecvtIwc11__mbstate_tED0Ev
002195b0 T _ZNSt7codecvtIwc11__mbstate_tED1Ev
002195b0 T _ZNSt7codecvtIwc11__mbstate_tED2Ev
002bf728 u _ZNSt7collateIcE2idE
001992a0 W _ZNSt7collateIcEC1Ej
001992f0 W _ZNSt7collateIcEC1EP15__locale_structj
001992a0 W _ZNSt7collateIcEC2Ej
001992f0 W _ZNSt7collateIcEC2EP15__locale_structj
00196250 W _ZNSt7collateIcED0Ev
00196210 W _ZNSt7collateIcED1Ev
00196210 W _ZNSt7collateIcED2Ev
002bf888 u _ZNSt7collateIwE2idE
001f6350 W _ZNSt7collateIwEC1Ej
001f63a0 W _ZNSt7collateIwEC1EP15__locale_structj
001f6350 W _ZNSt7collateIwEC2Ej
001f63a0 W _ZNSt7collateIwEC2EP15__locale_structj
001f3360 W _ZNSt7collateIwED0Ev
001f3320 W _ZNSt7collateIwED1Ev
001f3320 W _ZNSt7collateIwED2Ev
00220840 T _ZNSt7__cxx1110moneypunctIcLb0EE24_M_initialize_moneypunctEP15__locale_structPKc
002bf824 u _ZNSt7__cxx1110moneypunctIcLb0EE2idE
00245c64 u _ZNSt7__cxx1110moneypunctIcLb0EE4intlE
001be1d0 W _ZNSt7__cxx1110moneypunctIcLb0EEC1Ej
001be290 W _ZNSt7__cxx1110moneypunctIcLb0EEC1EP15__locale_structPKcj
001be230 W _ZNSt7__cxx1110moneypunctIcLb0EEC1EPSt18__moneypunct_cacheIcLb0EEj
001be1d0 W _ZNSt7__cxx1110moneypunctIcLb0EEC2Ej
001be290 W _ZNSt7__cxx1110moneypunctIcLb0EEC2EP15__locale_structPKcj
001be230 W _ZNSt7__cxx1110moneypunctIcLb0EEC2EPSt18__moneypunct_cacheIcLb0EEj
00221030 T _ZNSt7__cxx1110moneypunctIcLb0EED0Ev
00220f20 T _ZNSt7__cxx1110moneypunctIcLb0EED1Ev
00220f20 T _ZNSt7__cxx1110moneypunctIcLb0EED2Ev
002202a0 T _ZNSt7__cxx1110moneypunctIcLb1EE24_M_initialize_moneypunctEP15__locale_structPKc
002bf820 u _ZNSt7__cxx1110moneypunctIcLb1EE2idE
00245c63 u _ZNSt7__cxx1110moneypunctIcLb1EE4intlE
001be710 W _ZNSt7__cxx1110moneypunctIcLb1EEC1Ej
001be7d0 W _ZNSt7__cxx1110moneypunctIcLb1EEC1EP15__locale_structPKcj
001be770 W _ZNSt7__cxx1110moneypunctIcLb1EEC1EPSt18__moneypunct_cacheIcLb1EEj
001be710 W _ZNSt7__cxx1110moneypunctIcLb1EEC2Ej
001be7d0 W _ZNSt7__cxx1110moneypunctIcLb1EEC2EP15__locale_structPKcj
001be770 W _ZNSt7__cxx1110moneypunctIcLb1EEC2EPSt18__moneypunct_cacheIcLb1EEj
00220ef0 T _ZNSt7__cxx1110moneypunctIcLb1EED0Ev
00220de0 T _ZNSt7__cxx1110moneypunctIcLb1EED1Ev
00220de0 T _ZNSt7__cxx1110moneypunctIcLb1EED2Ev
002216b0 T _ZNSt7__cxx1110moneypunctIwLb0EE24_M_initialize_moneypunctEP15__locale_structPKc
002bf7c4 u _ZNSt7__cxx1110moneypunctIwLb0EE2idE
00245804 u _ZNSt7__cxx1110moneypunctIwLb0EE4intlE
001aee60 W _ZNSt7__cxx1110moneypunctIwLb0EEC1Ej
001aef20 W _ZNSt7__cxx1110moneypunctIwLb0EEC1EP15__locale_structPKcj
001aeec0 W _ZNSt7__cxx1110moneypunctIwLb0EEC1EPSt18__moneypunct_cacheIwLb0EEj
001aee60 W _ZNSt7__cxx1110moneypunctIwLb0EEC2Ej
001aef20 W _ZNSt7__cxx1110moneypunctIwLb0EEC2EP15__locale_structPKcj
001aeec0 W _ZNSt7__cxx1110moneypunctIwLb0EEC2EPSt18__moneypunct_cacheIwLb0EEj
00221f30 T _ZNSt7__cxx1110moneypunctIwLb0EED0Ev
00221e30 T _ZNSt7__cxx1110moneypunctIwLb0EED1Ev
00221e30 T _ZNSt7__cxx1110moneypunctIwLb0EED2Ev
00221060 T _ZNSt7__cxx1110moneypunctIwLb1EE24_M_initialize_moneypunctEP15__locale_structPKc
002bf7c0 u _ZNSt7__cxx1110moneypunctIwLb1EE2idE
00245803 u _ZNSt7__cxx1110moneypunctIwLb1EE4intlE
001af420 W _ZNSt7__cxx1110moneypunctIwLb1EEC1Ej
001af4e0 W _ZNSt7__cxx1110moneypunctIwLb1EEC1EP15__locale_structPKcj
001af480 W _ZNSt7__cxx1110moneypunctIwLb1EEC1EPSt18__moneypunct_cacheIwLb1EEj
001af420 W _ZNSt7__cxx1110moneypunctIwLb1EEC2Ej
001af4e0 W _ZNSt7__cxx1110moneypunctIwLb1EEC2EP15__locale_structPKcj
001af480 W _ZNSt7__cxx1110moneypunctIwLb1EEC2EPSt18__moneypunct_cacheIwLb1EEj
00221e00 T _ZNSt7__cxx1110moneypunctIwLb1EED0Ev
00221d00 T _ZNSt7__cxx1110moneypunctIwLb1EED1Ev
00221d00 T _ZNSt7__cxx1110moneypunctIwLb1EED2Ev
001d85f0 W _ZNSt7__cxx1112basic_stringIcSt11char_traitsIcESaIcEE10_M_destroyEj
001d85c0 W _ZNSt7__cxx1112basic_stringIcSt11char_traitsIcESaIcEE10_M_disposeEv
001d98c0 W _ZNSt7__cxx1112basic_stringIcSt11char_traitsIcESaIcEE10_M_replaceEjjPKcj
001d8a50 W _ZNSt7__cxx1112basic_stringIcSt11char_traitsIcESaIcEE10_S_compareEjj
001d84f0 W _ZNSt7__cxx1112basic_stringIcSt11char_traitsIcESaIcEE11_M_capacityEj
001db4e0 W _ZNSt7__cxx1112basic_stringIcSt11char_traitsIcESaIcEE12_Alloc_hiderC1EPcRKS3_
001db4e0 W _ZNSt7__cxx1112basic_stringIcSt11char_traitsIcESaIcEE12_Alloc_hiderC2EPcRKS3_
00103226 W _ZNSt7__cxx1112basic_stringIcSt11char_traitsIcESaIcEE12_Alloc_hiderD1Ev
00103226 W _ZNSt7__cxx1112basic_stringIcSt11char_traitsIcESaIcEE12_Alloc_hiderD2Ev
001d8610 W _ZNSt7__cxx1112basic_stringIcSt11char_traitsIcESaIcEE12_M_constructEjc
001db580 W _ZNSt7__cxx1112basic_stringIcSt11char_traitsIcESaIcEE12_M_constructIN9__gnu_cxx17__normal_iteratorIPcS4_EEEEvT_SA_St20forward_iterator_tag
0010e656 W _ZNSt7__cxx1112basic_stringIcSt11char_traitsIcESaIcEE12_M_constructIN9__gnu_cxx17__normal_iteratorIPcSt6vectorIcS3_EEEEEvT_SC_
00110114 W _ZNSt7__cxx1112basic_stringIcSt11char_traitsIcESaIcEE12_M_constructIN9__gnu_cxx17__normal_iteratorIPcSt6vectorIcS3_EEEEEvT_SC_St20forward_iterator_tag
001db660 W _ZNSt7__cxx1112basic_stringIcSt11char_traitsIcESaIcEE12_M_constructIN9__gnu_cxx17__normal_iteratorIPKcS4_EEEEvT_SB_St20forward_iterator_tag
001db750 W _ZNSt7__cxx1112basic_stringIcSt11char_traitsIcESaIcEE12_M_constructIPcEEvT_S7_St20forward_iterator_tag
0010d3c4 W _ZNSt7__cxx1112basic_stringIcSt11char_traitsIcESaIcEE12_M_constructIPhEEvT_S7_
0010f64c W _ZNSt7__cxx1112basic_stringIcSt11char_traitsIcESaIcEE12_M_constructIPhEEvT_S7_St20forward_iterator_tag
001db900 W _ZNSt7__cxx1112basic_stringIcSt11char_traitsIcESaIcEE12_M_constructIPKcEEvT_S8_St20forward_iterator_tag
001d84d0 W _ZNSt7__cxx1112basic_stringIcSt11char_traitsIcESaIcEE13_M_local_dataEv
001d8500 W _ZNSt7__cxx1112basic_stringIcSt11char_traitsIcESaIcEE13_M_set_lengthEj
001d8930 W _ZNSt7__cxx1112basic_stringIcSt11char_traitsIcESaIcEE13_S_copy_charsEPcN9__gnu_cxx17__normal_iteratorIPKcS4_EESA_
001d88d0 W _ZNSt7__cxx1112basic_stringIcSt11char_traitsIcESaIcEE13_S_copy_charsEPcN9__gnu_cxx17__normal_iteratorIS5_S4_EES8_
001d89f0 W _ZNSt7__cxx1112basic_stringIcSt11char_traitsIcESaIcEE13_S_copy_charsEPcPKcS7_
001d8990 W _ZNSt7__cxx1112basic_stringIcSt11char_traitsIcESaIcEE13_S_copy_charsEPcS5_S5_
00110af2 W _ZNSt7__cxx1112basic_stringIcSt11char_traitsIcESaIcEE13_S_copy_charsIN9__gnu_cxx17__normal_iteratorIPcSt6vectorIcS3_EEEEEvS8_T_SC_
001102d3 W _ZNSt7__cxx1112basic_stringIcSt11char_traitsIcESaIcEE13_S_copy_charsIPhEEvPcT_S8_
001d9120 W _ZNSt7__cxx1112basic_stringIcSt11char_traitsIcESaIcEE13shrink_to_fitEv
001d94d0 W _ZNSt7__cxx1112basic_stringIcSt11char_traitsIcESaIcEE14_M_replace_auxEjjjc
0010f410 W _ZNSt7__cxx1112basic_stringIcSt11char_traitsIcESaIcEE16_M_construct_auxIN9__gnu_cxx17__normal_iteratorIPcSt6vectorIcS3_EEEEEvT_SC_St12__false_type
0010e80e W _ZNSt7__cxx1112basic_stringIcSt11char_traitsIcESaIcEE16_M_construct_auxIPhEEvT_S7_St12__false_type
001d86d0 W _ZNSt7__cxx1112basic_stringIcSt11char_traitsIcESaIcEE16_M_get_allocatorEv
001d86a0 W _ZNSt7__cxx1112basic_stringIcSt11char_traitsIcESaIcEE18_M_construct_aux_2Ejc
0010a8ba W _ZNSt7__cxx1112basic_stringIcSt11char_traitsIcESaIcEE19_M_replace_dispatchIN9__gnu_cxx17__normal_iteratorIPcSt6vectorIcS3_EEEEERS4_NS7_IPKcS4_EESF_T_SG_St12__false_type
00107f90 W _ZNSt7__cxx1112basic_stringIcSt11char_traitsIcESaIcEE19_M_replace_dispatchIPhEERS4_N9__gnu_cxx17__normal_iteratorIPKcS4_EESC_T_SD_St12__false_type
001d9220 W _ZNSt7__cxx1112basic_stringIcSt11char_traitsIcESaIcEE2atEj
001d8eb0 W _ZNSt7__cxx1112basic_stringIcSt11char_traitsIcESaIcEE3endEv
001d9280 W _ZNSt7__cxx1112basic_stringIcSt11char_traitsIcESaIcEE4backEv
00245fa0 u _ZNSt7__cxx1112basic_stringIcSt11char_traitsIcESaIcEE4nposE
001d8f30 W _ZNSt7__cxx1112basic_stringIcSt11char_traitsIcESaIcEE4rendEv
001da7f0 W _ZNSt7__cxx1112basic_stringIcSt11char_traitsIcESaIcEE4swapERS4_
001d8e90 W _ZNSt7__cxx1112basic_stringIcSt11char_traitsIcESaIcEE5beginEv
001d9190 W _ZNSt7__cxx1112basic_stringIcSt11char_traitsIcESaIcEE5clearEv
001d93b0 W _ZNSt7__cxx1112basic_stringIcSt11char_traitsIcESaIcEE5eraseEjj
00193570 W _ZNSt7__cxx1112basic_stringIcSt11char_traitsIcESaIcEE5eraseEN9__gnu_cxx17__normal_iteratorIPcS4_EE
001935b0 W _ZNSt7__cxx1112basic_stringIcSt11char_traitsIcESaIcEE5eraseEN9__gnu_cxx17__normal_iteratorIPcS4_EES8_
001d9410 W _ZNSt7__cxx1112basic_stringIcSt11char_traitsIcESaIcEE5eraseEN9__gnu_cxx17__normal_iteratorIPKcS4_EE
001d9450 W _ZNSt7__cxx1112basic_stringIcSt11char_traitsIcESaIcEE5eraseEN9__gnu_cxx17__normal_iteratorIPKcS4_EES9_
001d9260 W _ZNSt7__cxx1112basic_stringIcSt11char_traitsIcESaIcEE5frontEv
001d9600 W _ZNSt7__cxx1112basic_stringIcSt11char_traitsIcESaIcEE6appendEjc
001da630 W _ZNSt7__cxx1112basic_stringIcSt11char_traitsIcESaIcEE6appendEPKc
001da5e0 W _ZNSt7__cxx1112basic_stringIcSt11char_traitsIcESaIcEE6appendEPKcj
001da520 W _ZNSt7__cxx1112basic_stringIcSt11char_traitsIcESaIcEE6appendERKS4_
001da580 W _ZNSt7__cxx1112basic_stringIcSt11char_traitsIcESaIcEE6appendERKS4_jj
001da720 W _ZNSt7__cxx1112basic_stringIcSt11char_traitsIcESaIcEE6appendESt16initializer_listIcE
001d96d0 W _ZNSt7__cxx1112basic_stringIcSt11char_traitsIcESaIcEE6assignEjc
001da9f0 W _ZNSt7__cxx1112basic_stringIcSt11char_traitsIcESaIcEE6assignEOS4_
001d9cd0 W _ZNSt7__cxx1112basic_stringIcSt11char_traitsIcESaIcEE6assignEPKc
001d9c40 W _ZNSt7__cxx1112basic_stringIcSt11char_traitsIcESaIcEE6assignEPKcj
001d9380 W _ZNSt7__cxx1112basic_stringIcSt11char_traitsIcESaIcEE6assignERKS4_
001d9bd0 W _ZNSt7__cxx1112basic_stringIcSt11char_traitsIcESaIcEE6assignERKS4_jj
001d9ca0 W _ZNSt7__cxx1112basic_stringIcSt11char_traitsIcESaIcEE6assignESt16initializer_listIcE
00104bc2 W _ZNSt7__cxx1112basic_stringIcSt11char_traitsIcESaIcEE6assignIN9__gnu_cxx17__normal_iteratorIPcSt6vectorIcS3_EEEvEERS4_T_SD_
001d9730 W _ZNSt7__cxx1112basic_stringIcSt11char_traitsIcESaIcEE6insertEjjc
001d9f30 W _ZNSt7__cxx1112basic_stringIcSt11char_traitsIcESaIcEE6insertEjPKc
001d9db0 W _ZNSt7__cxx1112basic_stringIcSt11char_traitsIcESaIcEE6insertEjPKcj
001d9e70 W _ZNSt7__cxx1112basic_stringIcSt11char_traitsIcESaIcEE6insertEjRKS4_
001da3f0 W _ZNSt7__cxx1112basic_stringIcSt11char_traitsIcESaIcEE6insertEjRKS4_jj
001936a0 W _ZNSt7__cxx1112basic_stringIcSt11char_traitsIcESaIcEE6insertEN9__gnu_cxx17__normal_iteratorIPcS4_EEc
00193600 W _ZNSt7__cxx1112basic_stringIcSt11char_traitsIcESaIcEE6insertEN9__gnu_cxx17__normal_iteratorIPcS4_EEjc
001da2a0 W _ZNSt7__cxx1112basic_stringIcSt11char_traitsIcESaIcEE6insertEN9__gnu_cxx17__normal_iteratorIPcS4_EESt16initializer_listIcE
001d9780 W _ZNSt7__cxx1112basic_stringIcSt11char_traitsIcESaIcEE6insertEN9__gnu_cxx17__normal_iteratorIPKcS4_EEc
001d9870 W _ZNSt7__cxx1112basic_stringIcSt11char_traitsIcESaIcEE6insertEN9__gnu_cxx17__normal_iteratorIPKcS4_EEjc
00193640 W _ZNSt7__cxx1112basic_stringIcSt11char_traitsIcESaIcEE6insertIN9__gnu_cxx17__normal_iteratorIPcS4_EEEEvS9_T_SA_
0010386c W _ZNSt7__cxx1112basic_stringIcSt11char_traitsIcESaIcEE6insertIPhvEEN9__gnu_cxx17__normal_iteratorIPcS4_EENS8_IPKcS4_EET_SE_
001d8ef0 W _ZNSt7__cxx1112basic_stringIcSt11char_traitsIcESaIcEE6rbeginEv
001d96a0 W _ZNSt7__cxx1112basic_stringIcSt11char_traitsIcESaIcEE6resizeEj
001d9630 W _ZNSt7__cxx1112basic_stringIcSt11char_traitsIcESaIcEE6resizeEjc
001d84a0 W _ZNSt7__cxx1112basic_stringIcSt11char_traitsIcESaIcEE7_M_dataEPc
001d97d0 W _ZNSt7__cxx1112basic_stringIcSt11char_traitsIcESaIcEE7replaceEjjjc
001d9ec0 W _ZNSt7__cxx1112basic_stringIcSt11char_traitsIcESaIcEE7replaceEjjPKc
001d9d10 W _ZNSt7__cxx1112basic_stringIcSt11char_traitsIcESaIcEE7replaceEjjPKcj
001d9e00 W _ZNSt7__cxx1112basic_stringIcSt11char_traitsIcESaIcEE7replaceEjjRKS4_
001da370 W _ZNSt7__cxx1112basic_stringIcSt11char_traitsIcESaIcEE7replaceEjjRKS4_jj
00193840 W _ZNSt7__cxx1112basic_stringIcSt11char_traitsIcESaIcEE7replaceEN9__gnu_cxx17__normal_iteratorIPcS4_EES8_jc
001939d0 W _ZNSt7__cxx1112basic_stringIcSt11char_traitsIcESaIcEE7replaceEN9__gnu_cxx17__normal_iteratorIPcS4_EES8_NS6_IPKcS4_EESB_
001937d0 W _ZNSt7__cxx1112basic_stringIcSt11char_traitsIcESaIcEE7replaceEN9__gnu_cxx17__normal_iteratorIPcS4_EES8_PKc
00193760 W _ZNSt7__cxx1112basic_stringIcSt11char_traitsIcESaIcEE7replaceEN9__gnu_cxx17__normal_iteratorIPcS4_EES8_PKcj
001938f0 W _ZNSt7__cxx1112basic_stringIcSt11char_traitsIcESaIcEE7replaceEN9__gnu_cxx17__normal_iteratorIPcS4_EES8_PKcSA_
001936f0 W _ZNSt7__cxx1112basic_stringIcSt11char_traitsIcESaIcEE7replaceEN9__gnu_cxx17__normal_iteratorIPcS4_EES8_RKS4_
00193880 W _ZNSt7__cxx1112basic_stringIcSt11char_traitsIcESaIcEE7replaceEN9__gnu_cxx17__normal_iteratorIPcS4_EES8_S7_S7_
00193960 W _ZNSt7__cxx1112basic_stringIcSt11char_traitsIcESaIcEE7replaceEN9__gnu_cxx17__normal_iteratorIPcS4_EES8_S8_S8_
001d9830 W _ZNSt7__cxx1112basic_stringIcSt11char_traitsIcESaIcEE7replaceEN9__gnu_cxx17__normal_iteratorIPKcS4_EES9_jc
001da1c0 W _ZNSt7__cxx1112basic_stringIcSt11char_traitsIcESaIcEE7replaceEN9__gnu_cxx17__normal_iteratorIPKcS4_EES9_NS6_IPcS4_EESB_
001da000 W _ZNSt7__cxx1112basic_stringIcSt11char_traitsIcESaIcEE7replaceEN9__gnu_cxx17__normal_iteratorIPKcS4_EES9_PcSA_
001da0e0 W _ZNSt7__cxx1112basic_stringIcSt11char_traitsIcESaIcEE7replaceEN9__gnu_cxx17__normal_iteratorIPKcS4_EES9_RKS4_
001da150 W _ZNSt7__cxx1112basic_stringIcSt11char_traitsIcESaIcEE7replaceEN9__gnu_cxx17__normal_iteratorIPKcS4_EES9_S8_
001d9f90 W _ZNSt7__cxx1112basic_stringIcSt11char_traitsIcESaIcEE7replaceEN9__gnu_cxx17__normal_iteratorIPKcS4_EES9_S8_j
001da070 W _ZNSt7__cxx1112basic_stringIcSt11char_traitsIcESaIcEE7replaceEN9__gnu_cxx17__normal_iteratorIPKcS4_EES9_S8_S8_
001da230 W _ZNSt7__cxx1112basic_stringIcSt11char_traitsIcESaIcEE7replaceEN9__gnu_cxx17__normal_iteratorIPKcS4_EES9_S9_S9_
001da300 W _ZNSt7__cxx1112basic_stringIcSt11char_traitsIcESaIcEE7replaceEN9__gnu_cxx17__normal_iteratorIPKcS4_EES9_St16initializer_listIcE
0010781a W _ZNSt7__cxx1112basic_stringIcSt11char_traitsIcESaIcEE7replaceIN9__gnu_cxx17__normal_iteratorIPcSt6vectorIcS3_EEEvEERS4_NS7_IPKcS4_EESF_T_SG_
00105320 W _ZNSt7__cxx1112basic_stringIcSt11char_traitsIcESaIcEE7replaceIPhvEERS4_N9__gnu_cxx17__normal_iteratorIPKcS4_EESC_T_SD_
001d9000 W _ZNSt7__cxx1112basic_stringIcSt11char_traitsIcESaIcEE7reserveEj
001d87b0 W _ZNSt7__cxx1112basic_stringIcSt11char_traitsIcESaIcEE7_S_copyEPcPKcj
001d8810 W _ZNSt7__cxx1112basic_stringIcSt11char_traitsIcESaIcEE7_S_moveEPcPKcj
001d8cf0 W _ZNSt7__cxx1112basic_stringIcSt11char_traitsIcESaIcEE8_M_eraseEjj
001d94a0 W _ZNSt7__cxx1112basic_stringIcSt11char_traitsIcESaIcEE8pop_backEv
001da480 W _ZNSt7__cxx1112basic_stringIcSt11char_traitsIcESaIcEE9_M_appendEPKcj
001d8a60 W _ZNSt7__cxx1112basic_stringIcSt11char_traitsIcESaIcEE9_M_assignERKS4_
001d8530 W _ZNSt7__cxx1112basic_stringIcSt11char_traitsIcESaIcEE9_M_createERjj
001d84b0 W _ZNSt7__cxx1112basic_stringIcSt11char_traitsIcESaIcEE9_M_lengthEj
001d8b60 W _ZNSt7__cxx1112basic_stringIcSt11char_traitsIcESaIcEE9_M_mutateEjjPKcj
001d9310 W _ZNSt7__cxx1112basic_stringIcSt11char_traitsIcESaIcEE9push_backEc
001d8870 W _ZNSt7__cxx1112basic_stringIcSt11char_traitsIcESaIcEE9_S_assignEPcjc
001d9700 W _ZNSt7__cxx1112basic_stringIcSt11char_traitsIcESaIcEEaSEc
001da990 W _ZNSt7__cxx1112basic_stringIcSt11char_traitsIcESaIcEEaSEOS4_
001d9d70 W _ZNSt7__cxx1112basic_stringIcSt11char_traitsIcESaIcEEaSEPKc
001d8e60 W _ZNSt7__cxx1112basic_stringIcSt11char_traitsIcESaIcEEaSERKS4_
001d9c70 W _ZNSt7__cxx1112basic_stringIcSt11char_traitsIcESaIcEEaSESt16initializer_listIcE
001d8da0 W _ZNSt7__cxx1112basic_stringIcSt11char_traitsIcESaIcEEC1EjcRKS3_
001d8dd0 W _ZNSt7__cxx1112basic_stringIcSt11char_traitsIcESaIcEEC1EOS4_
001da9c0 W _ZNSt7__cxx1112basic_stringIcSt11char_traitsIcESaIcEEC1EOS4_RKS3_
001dba80 W _ZNSt7__cxx1112basic_stringIcSt11char_traitsIcESaIcEEC1EPKcjRKS3_
001dbac0 W _ZNSt7__cxx1112basic_stringIcSt11char_traitsIcESaIcEEC1EPKcRKS3_
001d8d80 W _ZNSt7__cxx1112basic_stringIcSt11char_traitsIcESaIcEEC1ERKS3_
001db810 W _ZNSt7__cxx1112basic_stringIcSt11char_traitsIcESaIcEEC1ERKS4_
001db9c0 W _ZNSt7__cxx1112basic_stringIcSt11char_traitsIcESaIcEEC1ERKS4_jj
001dba20 W _ZNSt7__cxx1112basic_stringIcSt11char_traitsIcESaIcEEC1ERKS4_jjRKS3_
001db710 W _ZNSt7__cxx1112basic_stringIcSt11char_traitsIcESaIcEEC1ERKS4_RKS3_
001dbb10 W _ZNSt7__cxx1112basic_stringIcSt11char_traitsIcESaIcEEC1ESt16initializer_listIcERKS3_
001d8d60 W _ZNSt7__cxx1112basic_stringIcSt11char_traitsIcESaIcEEC1Ev
001db630 W _ZNSt7__cxx1112basic_stringIcSt11char_traitsIcESaIcEEC1IN9__gnu_cxx17__normal_iteratorIPcS4_EEvEET_SA_RKS3_
0010cd3c W _ZNSt7__cxx1112basic_stringIcSt11char_traitsIcESaIcEEC1IN9__gnu_cxx17__normal_iteratorIPcSt6vectorIcS3_EEEvEET_SC_RKS3_
001db850 W _ZNSt7__cxx1112basic_stringIcSt11char_traitsIcESaIcEEC1IPcvEET_S7_RKS3_
0010b634 W _ZNSt7__cxx1112basic_stringIcSt11char_traitsIcESaIcEEC1IPhvEET_S7_RKS3_
001dbb50 W _ZNSt7__cxx1112basic_stringIcSt11char_traitsIcESaIcEEC1IPKcvEET_S8_RKS3_
001d8da0 W _ZNSt7__cxx1112basic_stringIcSt11char_traitsIcESaIcEEC2EjcRKS3_
001d8dd0 W _ZNSt7__cxx1112basic_stringIcSt11char_traitsIcESaIcEEC2EOS4_
001da9c0 W _ZNSt7__cxx1112basic_stringIcSt11char_traitsIcESaIcEEC2EOS4_RKS3_
001dba80 W _ZNSt7__cxx1112basic_stringIcSt11char_traitsIcESaIcEEC2EPKcjRKS3_
001dbac0 W _ZNSt7__cxx1112basic_stringIcSt11char_traitsIcESaIcEEC2EPKcRKS3_
001d8d80 W _ZNSt7__cxx1112basic_stringIcSt11char_traitsIcESaIcEEC2ERKS3_
001db810 W _ZNSt7__cxx1112basic_stringIcSt11char_traitsIcESaIcEEC2ERKS4_
001db9c0 W _ZNSt7__cxx1112basic_stringIcSt11char_traitsIcESaIcEEC2ERKS4_jj
001dba20 W _ZNSt7__cxx1112basic_stringIcSt11char_traitsIcESaIcEEC2ERKS4_jjRKS3_
001db710 W _ZNSt7__cxx1112basic_stringIcSt11char_traitsIcESaIcEEC2ERKS4_RKS3_
001dbb10 W _ZNSt7__cxx1112basic_stringIcSt11char_traitsIcESaIcEEC2ESt16initializer_listIcERKS3_
001d8d60 W _ZNSt7__cxx1112basic_stringIcSt11char_traitsIcESaIcEEC2Ev
001db630 W _ZNSt7__cxx1112basic_stringIcSt11char_traitsIcESaIcEEC2IN9__gnu_cxx17__normal_iteratorIPcS4_EEvEET_SA_RKS3_
0010cd3c W _ZNSt7__cxx1112basic_stringIcSt11char_traitsIcESaIcEEC2IN9__gnu_cxx17__normal_iteratorIPcSt6vectorIcS3_EEEvEET_SC_RKS3_
001db850 W _ZNSt7__cxx1112basic_stringIcSt11char_traitsIcESaIcEEC2IPcvEET_S7_RKS3_
0010b634 W _ZNSt7__cxx1112basic_stringIcSt11char_traitsIcESaIcEEC2IPhvEET_S7_RKS3_
001dbb50 W _ZNSt7__cxx1112basic_stringIcSt11char_traitsIcESaIcEEC2IPKcvEET_S8_RKS3_
001d8e30 W _ZNSt7__cxx1112basic_stringIcSt11char_traitsIcESaIcEED1Ev
001d8e30 W _ZNSt7__cxx1112basic_stringIcSt11char_traitsIcESaIcEED2Ev
001d91d0 W _ZNSt7__cxx1112basic_stringIcSt11char_traitsIcESaIcEEixEj
001d92a0 W _ZNSt7__cxx1112basic_stringIcSt11char_traitsIcESaIcEEpLEc
001da680 W _ZNSt7__cxx1112basic_stringIcSt11char_traitsIcESaIcEEpLEPKc
001da550 W _ZNSt7__cxx1112basic_stringIcSt11char_traitsIcESaIcEEpLERKS4_
001da6d0 W _ZNSt7__cxx1112basic_stringIcSt11char_traitsIcESaIcEEpLESt16initializer_listIcE
0010813c W _ZNSt7__cxx1112basic_stringIDsSt11char_traitsIDsESaIDsEE10_M_destroyEj
00105490 W _ZNSt7__cxx1112basic_stringIDsSt11char_traitsIDsESaIDsEE10_M_disposeEv
00108284 W _ZNSt7__cxx1112basic_stringIDsSt11char_traitsIDsESaIDsEE11_M_capacityEj
00105404 W _ZNSt7__cxx1112basic_stringIDsSt11char_traitsIDsESaIDsEE12_Alloc_hiderC1EPDsRKS3_
00105404 W _ZNSt7__cxx1112basic_stringIDsSt11char_traitsIDsESaIDsEE12_Alloc_hiderC2EPDsRKS3_
00103b34 W _ZNSt7__cxx1112basic_stringIDsSt11char_traitsIDsESaIDsEE12_Alloc_hiderD1Ev
00103b34 W _ZNSt7__cxx1112basic_stringIDsSt11char_traitsIDsESaIDsEE12_Alloc_hiderD2Ev
001053ba W _ZNSt7__cxx1112basic_stringIDsSt11char_traitsIDsESaIDsEE13_M_local_dataEv
00105426 W _ZNSt7__cxx1112basic_stringIDsSt11char_traitsIDsESaIDsEE13_M_set_lengthEj
0010b71c W _ZNSt7__cxx1112basic_stringIDsSt11char_traitsIDsESaIDsEE16_M_get_allocatorEv
00108276 W _ZNSt7__cxx1112basic_stringIDsSt11char_traitsIDsESaIDsEE7_M_dataEPDs
00108240 W _ZNSt7__cxx1112basic_stringIDsSt11char_traitsIDsESaIDsEE7_S_copyEPDsPKDsj
00108194 W _ZNSt7__cxx1112basic_stringIDsSt11char_traitsIDsESaIDsEE9_M_createERjj
001080fc W _ZNSt7__cxx1112basic_stringIDsSt11char_traitsIDsESaIDsEE9_M_lengthEj
001054ec W _ZNSt7__cxx1112basic_stringIDsSt11char_traitsIDsESaIDsEE9_M_mutateEjjPKDsj
00103bf0 W _ZNSt7__cxx1112basic_stringIDsSt11char_traitsIDsESaIDsEE9push_backEDs
00103b4c W _ZNSt7__cxx1112basic_stringIDsSt11char_traitsIDsESaIDsEEC1Ev
00103b4c W _ZNSt7__cxx1112basic_stringIDsSt11char_traitsIDsESaIDsEEC2Ev
00103bca W _ZNSt7__cxx1112basic_stringIDsSt11char_traitsIDsESaIDsEED1Ev
00103bca W _ZNSt7__cxx1112basic_stringIDsSt11char_traitsIDsESaIDsEED2Ev
001ee540 W _ZNSt7__cxx1112basic_stringIwSt11char_traitsIwESaIwEE10_M_destroyEj
001ee510 W _ZNSt7__cxx1112basic_stringIwSt11char_traitsIwESaIwEE10_M_disposeEv
001ef830 W _ZNSt7__cxx1112basic_stringIwSt11char_traitsIwESaIwEE10_M_replaceEjjPKwj
001ee9b0 W _ZNSt7__cxx1112basic_stringIwSt11char_traitsIwESaIwEE10_S_compareEjj
001ee440 W _ZNSt7__cxx1112basic_stringIwSt11char_traitsIwESaIwEE11_M_capacityEj
001f1570 W _ZNSt7__cxx1112basic_stringIwSt11char_traitsIwESaIwEE12_Alloc_hiderC1EPwRKS3_
001f1570 W _ZNSt7__cxx1112basic_stringIwSt11char_traitsIwESaIwEE12_Alloc_hiderC2EPwRKS3_
001ee560 W _ZNSt7__cxx1112basic_stringIwSt11char_traitsIwESaIwEE12_M_constructEjw
001f17b0 W _ZNSt7__cxx1112basic_stringIwSt11char_traitsIwESaIwEE12_M_constructIN9__gnu_cxx17__normal_iteratorIPKwS4_EEEEvT_SB_St20forward_iterator_tag
001f16d0 W _ZNSt7__cxx1112basic_stringIwSt11char_traitsIwESaIwEE12_M_constructIN9__gnu_cxx17__normal_iteratorIPwS4_EEEEvT_SA_St20forward_iterator_tag
001f1a60 W _ZNSt7__cxx1112basic_stringIwSt11char_traitsIwESaIwEE12_M_constructIPKwEEvT_S8_St20forward_iterator_tag
001f18a0 W _ZNSt7__cxx1112basic_stringIwSt11char_traitsIwESaIwEE12_M_constructIPwEEvT_S7_St20forward_iterator_tag
001ee420 W _ZNSt7__cxx1112basic_stringIwSt11char_traitsIwESaIwEE13_M_local_dataEv
001ee450 W _ZNSt7__cxx1112basic_stringIwSt11char_traitsIwESaIwEE13_M_set_lengthEj
001ee890 W _ZNSt7__cxx1112basic_stringIwSt11char_traitsIwESaIwEE13_S_copy_charsEPwN9__gnu_cxx17__normal_iteratorIPKwS4_EESA_
001ee830 W _ZNSt7__cxx1112basic_stringIwSt11char_traitsIwESaIwEE13_S_copy_charsEPwN9__gnu_cxx17__normal_iteratorIS5_S4_EES8_
001ee950 W _ZNSt7__cxx1112basic_stringIwSt11char_traitsIwESaIwEE13_S_copy_charsEPwPKwS7_
001ee8f0 W _ZNSt7__cxx1112basic_stringIwSt11char_traitsIwESaIwEE13_S_copy_charsEPwS5_S5_
001ef0a0 W _ZNSt7__cxx1112basic_stringIwSt11char_traitsIwESaIwEE13shrink_to_fitEv
001ef450 W _ZNSt7__cxx1112basic_stringIwSt11char_traitsIwESaIwEE14_M_replace_auxEjjjw
001ee620 W _ZNSt7__cxx1112basic_stringIwSt11char_traitsIwESaIwEE16_M_get_allocatorEv
001ee5f0 W _ZNSt7__cxx1112basic_stringIwSt11char_traitsIwESaIwEE18_M_construct_aux_2Ejw
001ef1a0 W _ZNSt7__cxx1112basic_stringIwSt11char_traitsIwESaIwEE2atEj
001eee30 W _ZNSt7__cxx1112basic_stringIwSt11char_traitsIwESaIwEE3endEv
001ef200 W _ZNSt7__cxx1112basic_stringIwSt11char_traitsIwESaIwEE4backEv
002464ec u _ZNSt7__cxx1112basic_stringIwSt11char_traitsIwESaIwEE4nposE
001eeeb0 W _ZNSt7__cxx1112basic_stringIwSt11char_traitsIwESaIwEE4rendEv
001f07f0 W _ZNSt7__cxx1112basic_stringIwSt11char_traitsIwESaIwEE4swapERS4_
001eee10 W _ZNSt7__cxx1112basic_stringIwSt11char_traitsIwESaIwEE5beginEv
001ef110 W _ZNSt7__cxx1112basic_stringIwSt11char_traitsIwESaIwEE5clearEv
001ef330 W _ZNSt7__cxx1112basic_stringIwSt11char_traitsIwESaIwEE5eraseEjj
001ef390 W _ZNSt7__cxx1112basic_stringIwSt11char_traitsIwESaIwEE5eraseEN9__gnu_cxx17__normal_iteratorIPKwS4_EE
001ef3d0 W _ZNSt7__cxx1112basic_stringIwSt11char_traitsIwESaIwEE5eraseEN9__gnu_cxx17__normal_iteratorIPKwS4_EES9_
00193a40 W _ZNSt7__cxx1112basic_stringIwSt11char_traitsIwESaIwEE5eraseEN9__gnu_cxx17__normal_iteratorIPwS4_EE
00193a80 W _ZNSt7__cxx1112basic_stringIwSt11char_traitsIwESaIwEE5eraseEN9__gnu_cxx17__normal_iteratorIPwS4_EES8_
001ef1e0 W _ZNSt7__cxx1112basic_stringIwSt11char_traitsIwESaIwEE5frontEv
001ef580 W _ZNSt7__cxx1112basic_stringIwSt11char_traitsIwESaIwEE6appendEjw
001f0630 W _ZNSt7__cxx1112basic_stringIwSt11char_traitsIwESaIwEE6appendEPKw
001f05e0 W _ZNSt7__cxx1112basic_stringIwSt11char_traitsIwESaIwEE6appendEPKwj
001f0520 W _ZNSt7__cxx1112basic_stringIwSt11char_traitsIwESaIwEE6appendERKS4_
001f0580 W _ZNSt7__cxx1112basic_stringIwSt11char_traitsIwESaIwEE6appendERKS4_jj
001f06d0 W _ZNSt7__cxx1112basic_stringIwSt11char_traitsIwESaIwEE6appendESt16initializer_listIwE
001ef640 W _ZNSt7__cxx1112basic_stringIwSt11char_traitsIwESaIwEE6assignEjw
001f0a20 W _ZNSt7__cxx1112basic_stringIwSt11char_traitsIwESaIwEE6assignEOS4_
001efc60 W _ZNSt7__cxx1112basic_stringIwSt11char_traitsIwESaIwEE6assignEPKw
001efbd0 W _ZNSt7__cxx1112basic_stringIwSt11char_traitsIwESaIwEE6assignEPKwj
001ef300 W _ZNSt7__cxx1112basic_stringIwSt11char_traitsIwESaIwEE6assignERKS4_
001efb60 W _ZNSt7__cxx1112basic_stringIwSt11char_traitsIwESaIwEE6assignERKS4_jj
001efc30 W _ZNSt7__cxx1112basic_stringIwSt11char_traitsIwESaIwEE6assignESt16initializer_listIwE
001ef6a0 W _ZNSt7__cxx1112basic_stringIwSt11char_traitsIwESaIwEE6insertEjjw
001efec0 W _ZNSt7__cxx1112basic_stringIwSt11char_traitsIwESaIwEE6insertEjPKw
001efd40 W _ZNSt7__cxx1112basic_stringIwSt11char_traitsIwESaIwEE6insertEjPKwj
001efe00 W _ZNSt7__cxx1112basic_stringIwSt11char_traitsIwESaIwEE6insertEjRKS4_
001f0370 W _ZNSt7__cxx1112basic_stringIwSt11char_traitsIwESaIwEE6insertEjRKS4_jj
001ef7e0 W _ZNSt7__cxx1112basic_stringIwSt11char_traitsIwESaIwEE6insertEN9__gnu_cxx17__normal_iteratorIPKwS4_EEjw
001ef6f0 W _ZNSt7__cxx1112basic_stringIwSt11char_traitsIwESaIwEE6insertEN9__gnu_cxx17__normal_iteratorIPKwS4_EEw
00193ad0 W _ZNSt7__cxx1112basic_stringIwSt11char_traitsIwESaIwEE6insertEN9__gnu_cxx17__normal_iteratorIPwS4_EEjw
001f0190 W _ZNSt7__cxx1112basic_stringIwSt11char_traitsIwESaIwEE6insertEN9__gnu_cxx17__normal_iteratorIPwS4_EESt16initializer_listIwE
00193b70 W _ZNSt7__cxx1112basic_stringIwSt11char_traitsIwESaIwEE6insertEN9__gnu_cxx17__normal_iteratorIPwS4_EEw
00193b10 W _ZNSt7__cxx1112basic_stringIwSt11char_traitsIwESaIwEE6insertIN9__gnu_cxx17__normal_iteratorIPwS4_EEEEvS9_T_SA_
001eee70 W _ZNSt7__cxx1112basic_stringIwSt11char_traitsIwESaIwEE6rbeginEv
001ef610 W _ZNSt7__cxx1112basic_stringIwSt11char_traitsIwESaIwEE6resizeEj
001ef5b0 W _ZNSt7__cxx1112basic_stringIwSt11char_traitsIwESaIwEE6resizeEjw
001ee3f0 W _ZNSt7__cxx1112basic_stringIwSt11char_traitsIwESaIwEE7_M_dataEPw
001ef740 W _ZNSt7__cxx1112basic_stringIwSt11char_traitsIwESaIwEE7replaceEjjjw
001efe50 W _ZNSt7__cxx1112basic_stringIwSt11char_traitsIwESaIwEE7replaceEjjPKw
001efca0 W _ZNSt7__cxx1112basic_stringIwSt11char_traitsIwESaIwEE7replaceEjjPKwj
001efd90 W _ZNSt7__cxx1112basic_stringIwSt11char_traitsIwESaIwEE7replaceEjjRKS4_
001f0400 W _ZNSt7__cxx1112basic_stringIwSt11char_traitsIwESaIwEE7replaceEjjRKS4_jj
001ef7a0 W _ZNSt7__cxx1112basic_stringIwSt11char_traitsIwESaIwEE7replaceEN9__gnu_cxx17__normal_iteratorIPKwS4_EES9_jw
001f01f0 W _ZNSt7__cxx1112basic_stringIwSt11char_traitsIwESaIwEE7replaceEN9__gnu_cxx17__normal_iteratorIPKwS4_EES9_NS6_IPwS4_EESB_
001f0010 W _ZNSt7__cxx1112basic_stringIwSt11char_traitsIwESaIwEE7replaceEN9__gnu_cxx17__normal_iteratorIPKwS4_EES9_PwSA_
001eff90 W _ZNSt7__cxx1112basic_stringIwSt11char_traitsIwESaIwEE7replaceEN9__gnu_cxx17__normal_iteratorIPKwS4_EES9_RKS4_
001f0110 W _ZNSt7__cxx1112basic_stringIwSt11char_traitsIwESaIwEE7replaceEN9__gnu_cxx17__normal_iteratorIPKwS4_EES9_S8_
001eff20 W _ZNSt7__cxx1112basic_stringIwSt11char_traitsIwESaIwEE7replaceEN9__gnu_cxx17__normal_iteratorIPKwS4_EES9_S8_j
001f0090 W _ZNSt7__cxx1112basic_stringIwSt11char_traitsIwESaIwEE7replaceEN9__gnu_cxx17__normal_iteratorIPKwS4_EES9_S8_S8_
001f0270 W _ZNSt7__cxx1112basic_stringIwSt11char_traitsIwESaIwEE7replaceEN9__gnu_cxx17__normal_iteratorIPKwS4_EES9_S9_S9_
001f02f0 W _ZNSt7__cxx1112basic_stringIwSt11char_traitsIwESaIwEE7replaceEN9__gnu_cxx17__normal_iteratorIPKwS4_EES9_St16initializer_listIwE
00193d30 W _ZNSt7__cxx1112basic_stringIwSt11char_traitsIwESaIwEE7replaceEN9__gnu_cxx17__normal_iteratorIPwS4_EES8_jw
00193ef0 W _ZNSt7__cxx1112basic_stringIwSt11char_traitsIwESaIwEE7replaceEN9__gnu_cxx17__normal_iteratorIPwS4_EES8_NS6_IPKwS4_EESB_
00193cb0 W _ZNSt7__cxx1112basic_stringIwSt11char_traitsIwESaIwEE7replaceEN9__gnu_cxx17__normal_iteratorIPwS4_EES8_PKw
00193c40 W _ZNSt7__cxx1112basic_stringIwSt11char_traitsIwESaIwEE7replaceEN9__gnu_cxx17__normal_iteratorIPwS4_EES8_PKwj
00193df0 W _ZNSt7__cxx1112basic_stringIwSt11char_traitsIwESaIwEE7replaceEN9__gnu_cxx17__normal_iteratorIPwS4_EES8_PKwSA_
00193bc0 W _ZNSt7__cxx1112basic_stringIwSt11char_traitsIwESaIwEE7replaceEN9__gnu_cxx17__normal_iteratorIPwS4_EES8_RKS4_
00193d70 W _ZNSt7__cxx1112basic_stringIwSt11char_traitsIwESaIwEE7replaceEN9__gnu_cxx17__normal_iteratorIPwS4_EES8_S7_S7_
00193e70 W _ZNSt7__cxx1112basic_stringIwSt11char_traitsIwESaIwEE7replaceEN9__gnu_cxx17__normal_iteratorIPwS4_EES8_S8_S8_
001eef80 W _ZNSt7__cxx1112basic_stringIwSt11char_traitsIwESaIwEE7reserveEj
001ee710 W _ZNSt7__cxx1112basic_stringIwSt11char_traitsIwESaIwEE7_S_copyEPwPKwj
001ee770 W _ZNSt7__cxx1112basic_stringIwSt11char_traitsIwESaIwEE7_S_moveEPwPKwj
001eec50 W _ZNSt7__cxx1112basic_stringIwSt11char_traitsIwESaIwEE8_M_eraseEjj
001ef420 W _ZNSt7__cxx1112basic_stringIwSt11char_traitsIwESaIwEE8pop_backEv
001f0480 W _ZNSt7__cxx1112basic_stringIwSt11char_traitsIwESaIwEE9_M_appendEPKwj
001ee9c0 W _ZNSt7__cxx1112basic_stringIwSt11char_traitsIwESaIwEE9_M_assignERKS4_
001ee480 W _ZNSt7__cxx1112basic_stringIwSt11char_traitsIwESaIwEE9_M_createERjj
001ee400 W _ZNSt7__cxx1112basic_stringIwSt11char_traitsIwESaIwEE9_M_lengthEj
001eeac0 W _ZNSt7__cxx1112basic_stringIwSt11char_traitsIwESaIwEE9_M_mutateEjjPKwj
001ef290 W _ZNSt7__cxx1112basic_stringIwSt11char_traitsIwESaIwEE9push_backEw
001ee7d0 W _ZNSt7__cxx1112basic_stringIwSt11char_traitsIwESaIwEE9_S_assignEPwjw
001f09c0 W _ZNSt7__cxx1112basic_stringIwSt11char_traitsIwESaIwEEaSEOS4_
001efd00 W _ZNSt7__cxx1112basic_stringIwSt11char_traitsIwESaIwEEaSEPKw
001eede0 W _ZNSt7__cxx1112basic_stringIwSt11char_traitsIwESaIwEEaSERKS4_
001efc00 W _ZNSt7__cxx1112basic_stringIwSt11char_traitsIwESaIwEEaSESt16initializer_listIwE
001ef670 W _ZNSt7__cxx1112basic_stringIwSt11char_traitsIwESaIwEEaSEw
001eed10 W _ZNSt7__cxx1112basic_stringIwSt11char_traitsIwESaIwEEC1EjwRKS3_
001eed40 W _ZNSt7__cxx1112basic_stringIwSt11char_traitsIwESaIwEEC1EOS4_
001f09f0 W _ZNSt7__cxx1112basic_stringIwSt11char_traitsIwESaIwEEC1EOS4_RKS3_
001f1bf0 W _ZNSt7__cxx1112basic_stringIwSt11char_traitsIwESaIwEEC1EPKwjRKS3_
001f1c30 W _ZNSt7__cxx1112basic_stringIwSt11char_traitsIwESaIwEEC1EPKwRKS3_
001eecf0 W _ZNSt7__cxx1112basic_stringIwSt11char_traitsIwESaIwEEC1ERKS3_
001f1970 W _ZNSt7__cxx1112basic_stringIwSt11char_traitsIwESaIwEEC1ERKS4_
001f1b30 W _ZNSt7__cxx1112basic_stringIwSt11char_traitsIwESaIwEEC1ERKS4_jj
001f1b90 W _ZNSt7__cxx1112basic_stringIwSt11char_traitsIwESaIwEEC1ERKS4_jjRKS3_
001f1860 W _ZNSt7__cxx1112basic_stringIwSt11char_traitsIwESaIwEEC1ERKS4_RKS3_
001f1c80 W _ZNSt7__cxx1112basic_stringIwSt11char_traitsIwESaIwEEC1ESt16initializer_listIwERKS3_
001eecd0 W _ZNSt7__cxx1112basic_stringIwSt11char_traitsIwESaIwEEC1Ev
001f1780 W _ZNSt7__cxx1112basic_stringIwSt11char_traitsIwESaIwEEC1IN9__gnu_cxx17__normal_iteratorIPwS4_EEvEET_SA_RKS3_
001f1cc0 W _ZNSt7__cxx1112basic_stringIwSt11char_traitsIwESaIwEEC1IPKwvEET_S8_RKS3_
001f19b0 W _ZNSt7__cxx1112basic_stringIwSt11char_traitsIwESaIwEEC1IPwvEET_S7_RKS3_
001eed10 W _ZNSt7__cxx1112basic_stringIwSt11char_traitsIwESaIwEEC2EjwRKS3_
001eed40 W _ZNSt7__cxx1112basic_stringIwSt11char_traitsIwESaIwEEC2EOS4_
001f09f0 W _ZNSt7__cxx1112basic_stringIwSt11char_traitsIwESaIwEEC2EOS4_RKS3_
001f1bf0 W _ZNSt7__cxx1112basic_stringIwSt11char_traitsIwESaIwEEC2EPKwjRKS3_
001f1c30 W _ZNSt7__cxx1112basic_stringIwSt11char_traitsIwESaIwEEC2EPKwRKS3_
001eecf0 W _ZNSt7__cxx1112basic_stringIwSt11char_traitsIwESaIwEEC2ERKS3_
001f1970 W _ZNSt7__cxx1112basic_stringIwSt11char_traitsIwESaIwEEC2ERKS4_
001f1b30 W _ZNSt7__cxx1112basic_stringIwSt11char_traitsIwESaIwEEC2ERKS4_jj
001f1b90 W _ZNSt7__cxx1112basic_stringIwSt11char_traitsIwESaIwEEC2ERKS4_jjRKS3_
001f1860 W _ZNSt7__cxx1112basic_stringIwSt11char_traitsIwESaIwEEC2ERKS4_RKS3_
001f1c80 W _ZNSt7__cxx1112basic_stringIwSt11char_traitsIwESaIwEEC2ESt16initializer_listIwERKS3_
001eecd0 W _ZNSt7__cxx1112basic_stringIwSt11char_traitsIwESaIwEEC2Ev
001f1780 W _ZNSt7__cxx1112basic_stringIwSt11char_traitsIwESaIwEEC2IN9__gnu_cxx17__normal_iteratorIPwS4_EEvEET_SA_RKS3_
001f1cc0 W _ZNSt7__cxx1112basic_stringIwSt11char_traitsIwESaIwEEC2IPKwvEET_S8_RKS3_
001f19b0 W _ZNSt7__cxx1112basic_stringIwSt11char_traitsIwESaIwEEC2IPwvEET_S7_RKS3_
001eedb0 W _ZNSt7__cxx1112basic_stringIwSt11char_traitsIwESaIwEED1Ev
001eedb0 W _ZNSt7__cxx1112basic_stringIwSt11char_traitsIwESaIwEED2Ev
001ef150 W _ZNSt7__cxx1112basic_stringIwSt11char_traitsIwESaIwEEixEj
001f0680 W _ZNSt7__cxx1112basic_stringIwSt11char_traitsIwESaIwEEpLEPKw
001f0550 W _ZNSt7__cxx1112basic_stringIwSt11char_traitsIwESaIwEEpLERKS4_
001f0720 W _ZNSt7__cxx1112basic_stringIwSt11char_traitsIwESaIwEEpLESt16initializer_listIwE
001ef220 W _ZNSt7__cxx1112basic_stringIwSt11char_traitsIwESaIwEEpLEw
001c5480 W _ZNSt7__cxx1114collate_bynameIcEC1EPKcj
001c5560 W _ZNSt7__cxx1114collate_bynameIcEC1ERKNS_12basic_stringIcSt11char_traitsIcESaIcEEEj
001c5480 W _ZNSt7__cxx1114collate_bynameIcEC2EPKcj
001c5560 W _ZNSt7__cxx1114collate_bynameIcEC2ERKNS_12basic_stringIcSt11char_traitsIcESaIcEEEj
001bd8e0 W _ZNSt7__cxx1114collate_bynameIcED0Ev
001bd8a0 W _ZNSt7__cxx1114collate_bynameIcED1Ev
001bd8a0 W _ZNSt7__cxx1114collate_bynameIcED2Ev
001b3000 W _ZNSt7__cxx1114collate_bynameIwEC1EPKcj
001b30e0 W _ZNSt7__cxx1114collate_bynameIwEC1ERKNS_12basic_stringIcSt11char_traitsIcESaIcEEEj
001b3000 W _ZNSt7__cxx1114collate_bynameIwEC2EPKcj
001b30e0 W _ZNSt7__cxx1114collate_bynameIwEC2ERKNS_12basic_stringIcSt11char_traitsIcESaIcEEEj
001ae420 W _ZNSt7__cxx1114collate_bynameIwED0Ev
001ae3e0 W _ZNSt7__cxx1114collate_bynameIwED1Ev
001ae3e0 W _ZNSt7__cxx1114collate_bynameIwED2Ev
001ce3c0 W _ZNSt7__cxx1115basic_stringbufIcSt11char_traitsIcESaIcEE14__xfer_bufptrsC1ERKS4_PS4_
001ce3c0 W _ZNSt7__cxx1115basic_stringbufIcSt11char_traitsIcESaIcEE14__xfer_bufptrsC2ERKS4_PS4_
001ce490 W _ZNSt7__cxx1115basic_stringbufIcSt11char_traitsIcESaIcEE14__xfer_bufptrsD1Ev
001ce490 W _ZNSt7__cxx1115basic_stringbufIcSt11char_traitsIcESaIcEE14__xfer_bufptrsD2Ev
001cda00 W _ZNSt7__cxx1115basic_stringbufIcSt11char_traitsIcESaIcEE15_M_update_egptrEv
001cdf60 W _ZNSt7__cxx1115basic_stringbufIcSt11char_traitsIcESaIcEE17_M_stringbuf_initESt13_Ios_Openmode
001cdfa0 W _ZNSt7__cxx1115basic_stringbufIcSt11char_traitsIcESaIcEE3strERKNS_12basic_stringIcS2_S3_EE
001ce500 W _ZNSt7__cxx1115basic_stringbufIcSt11char_traitsIcESaIcEE4swapERS4_
001ce1f0 W _ZNSt7__cxx1115basic_stringbufIcSt11char_traitsIcESaIcEE6setbufEPci
001cde70 W _ZNSt7__cxx1115basic_stringbufIcSt11char_traitsIcESaIcEE7_M_syncEPcjj
001cda90 W _ZNSt7__cxx1115basic_stringbufIcSt11char_traitsIcESaIcEE7seekoffExSt12_Ios_SeekdirSt13_Ios_Openmode
001cdd20 W _ZNSt7__cxx1115basic_stringbufIcSt11char_traitsIcESaIcEE7seekposESt4fposI11__mbstate_tESt13_Ios_Openmode
001cda30 W _ZNSt7__cxx1115basic_stringbufIcSt11char_traitsIcESaIcEE8_M_pbumpEPcS5_x
001cdff0 W _ZNSt7__cxx1115basic_stringbufIcSt11char_traitsIcESaIcEE8overflowEi
001cccd0 W _ZNSt7__cxx1115basic_stringbufIcSt11char_traitsIcESaIcEE9pbackfailEi
001ccc60 W _ZNSt7__cxx1115basic_stringbufIcSt11char_traitsIcESaIcEE9showmanycEv
001ccc90 W _ZNSt7__cxx1115basic_stringbufIcSt11char_traitsIcESaIcEE9underflowEv
001ce9b0 W _ZNSt7__cxx1115basic_stringbufIcSt11char_traitsIcESaIcEEaSEOS4_
001cebc0 W _ZNSt7__cxx1115basic_stringbufIcSt11char_traitsIcESaIcEEC1EOS4_
001ce330 W _ZNSt7__cxx1115basic_stringbufIcSt11char_traitsIcESaIcEEC1EOS4_ONS4_14__xfer_bufptrsE
001ce240 W _ZNSt7__cxx1115basic_stringbufIcSt11char_traitsIcESaIcEEC1ERKNS_12basic_stringIcS2_S3_EESt13_Ios_Openmode
001cd870 W _ZNSt7__cxx1115basic_stringbufIcSt11char_traitsIcESaIcEEC1ESt13_Ios_Openmode
001cebc0 W _ZNSt7__cxx1115basic_stringbufIcSt11char_traitsIcESaIcEEC2EOS4_
001ce330 W _ZNSt7__cxx1115basic_stringbufIcSt11char_traitsIcESaIcEEC2EOS4_ONS4_14__xfer_bufptrsE
001ce240 W _ZNSt7__cxx1115basic_stringbufIcSt11char_traitsIcESaIcEEC2ERKNS_12basic_stringIcS2_S3_EESt13_Ios_Openmode
001cd870 W _ZNSt7__cxx1115basic_stringbufIcSt11char_traitsIcESaIcEEC2ESt13_Ios_Openmode
001cd3b0 W _ZNSt7__cxx1115basic_stringbufIcSt11char_traitsIcESaIcEED0Ev
001ccde0 W _ZNSt7__cxx1115basic_stringbufIcSt11char_traitsIcESaIcEED1Ev
001ccde0 W _ZNSt7__cxx1115basic_stringbufIcSt11char_traitsIcESaIcEED2Ev
001d38b0 W _ZNSt7__cxx1115basic_stringbufIwSt11char_traitsIwESaIwEE14__xfer_bufptrsC1ERKS4_PS4_
001d38b0 W _ZNSt7__cxx1115basic_stringbufIwSt11char_traitsIwESaIwEE14__xfer_bufptrsC2ERKS4_PS4_
001d3990 W _ZNSt7__cxx1115basic_stringbufIwSt11char_traitsIwESaIwEE14__xfer_bufptrsD1Ev
001d3990 W _ZNSt7__cxx1115basic_stringbufIwSt11char_traitsIwESaIwEE14__xfer_bufptrsD2Ev
001d2ed0 W _ZNSt7__cxx1115basic_stringbufIwSt11char_traitsIwESaIwEE15_M_update_egptrEv
001d3450 W _ZNSt7__cxx1115basic_stringbufIwSt11char_traitsIwESaIwEE17_M_stringbuf_initESt13_Ios_Openmode
001d3490 W _ZNSt7__cxx1115basic_stringbufIwSt11char_traitsIwESaIwEE3strERKNS_12basic_stringIwS2_S3_EE
001d3a10 W _ZNSt7__cxx1115basic_stringbufIwSt11char_traitsIwESaIwEE4swapERS4_
001d36d0 W _ZNSt7__cxx1115basic_stringbufIwSt11char_traitsIwESaIwEE6setbufEPwi
001d3360 W _ZNSt7__cxx1115basic_stringbufIwSt11char_traitsIwESaIwEE7_M_syncEPwjj
001d2f70 W _ZNSt7__cxx1115basic_stringbufIwSt11char_traitsIwESaIwEE7seekoffExSt12_Ios_SeekdirSt13_Ios_Openmode
001d3210 W _ZNSt7__cxx1115basic_stringbufIwSt11char_traitsIwESaIwEE7seekposESt4fposI11__mbstate_tESt13_Ios_Openmode
001d2f00 W _ZNSt7__cxx1115basic_stringbufIwSt11char_traitsIwESaIwEE8_M_pbumpEPwS5_x
001d34e0 W _ZNSt7__cxx1115basic_stringbufIwSt11char_traitsIwESaIwEE8overflowEj
001ccd80 W _ZNSt7__cxx1115basic_stringbufIwSt11char_traitsIwESaIwEE9pbackfailEj
001ccd20 W _ZNSt7__cxx1115basic_stringbufIwSt11char_traitsIwESaIwEE9showmanycEv
001ccd50 W _ZNSt7__cxx1115basic_stringbufIwSt11char_traitsIwESaIwEE9underflowEv
001d3ef0 W _ZNSt7__cxx1115basic_stringbufIwSt11char_traitsIwESaIwEEaSEOS4_
001d4110 W _ZNSt7__cxx1115basic_stringbufIwSt11char_traitsIwESaIwEEC1EOS4_
001d3820 W _ZNSt7__cxx1115basic_stringbufIwSt11char_traitsIwESaIwEEC1EOS4_ONS4_14__xfer_bufptrsE
001d3720 W _ZNSt7__cxx1115basic_stringbufIwSt11char_traitsIwESaIwEEC1ERKNS_12basic_stringIwS2_S3_EESt13_Ios_Openmode
001d2d30 W _ZNSt7__cxx1115basic_stringbufIwSt11char_traitsIwESaIwEEC1ESt13_Ios_Openmode
001d4110 W _ZNSt7__cxx1115basic_stringbufIwSt11char_traitsIwESaIwEEC2EOS4_
001d3820 W _ZNSt7__cxx1115basic_stringbufIwSt11char_traitsIwESaIwEEC2EOS4_ONS4_14__xfer_bufptrsE
001d3720 W _ZNSt7__cxx1115basic_stringbufIwSt11char_traitsIwESaIwEEC2ERKNS_12basic_stringIwS2_S3_EESt13_Ios_Openmode
001d2d30 W _ZNSt7__cxx1115basic_stringbufIwSt11char_traitsIwESaIwEEC2ESt13_Ios_Openmode
001cd410 W _ZNSt7__cxx1115basic_stringbufIwSt11char_traitsIwESaIwEED0Ev
001cce40 W _ZNSt7__cxx1115basic_stringbufIwSt11char_traitsIwESaIwEED1Ev
001cce40 W _ZNSt7__cxx1115basic_stringbufIwSt11char_traitsIwESaIwEED2Ev
001c5130 W _ZNSt7__cxx1115messages_bynameIcEC1EPKcj
001c5240 W _ZNSt7__cxx1115messages_bynameIcEC1ERKNS_12basic_stringIcSt11char_traitsIcESaIcEEEj
001c5130 W _ZNSt7__cxx1115messages_bynameIcEC2EPKcj
001c5240 W _ZNSt7__cxx1115messages_bynameIcEC2ERKNS_12basic_stringIcSt11char_traitsIcESaIcEEEj
001bd9e0 W _ZNSt7__cxx1115messages_bynameIcED0Ev
001bd9b0 W _ZNSt7__cxx1115messages_bynameIcED1Ev
001bd9b0 W _ZNSt7__cxx1115messages_bynameIcED2Ev
001b2cb0 W _ZNSt7__cxx1115messages_bynameIwEC1EPKcj
001b2dc0 W _ZNSt7__cxx1115messages_bynameIwEC1ERKNS_12basic_stringIcSt11char_traitsIcESaIcEEEj
001b2cb0 W _ZNSt7__cxx1115messages_bynameIwEC2EPKcj
001b2dc0 W _ZNSt7__cxx1115messages_bynameIwEC2ERKNS_12basic_stringIcSt11char_traitsIcESaIcEEEj
001ae520 W _ZNSt7__cxx1115messages_bynameIwED0Ev
001ae4f0 W _ZNSt7__cxx1115messages_bynameIwED1Ev
001ae4f0 W _ZNSt7__cxx1115messages_bynameIwED2Ev
001c33e0 W _ZNSt7__cxx1115numpunct_bynameIcEC1EPKcj
001c34e0 W _ZNSt7__cxx1115numpunct_bynameIcEC1ERKNS_12basic_stringIcSt11char_traitsIcESaIcEEEj
001c33e0 W _ZNSt7__cxx1115numpunct_bynameIcEC2EPKcj
001c34e0 W _ZNSt7__cxx1115numpunct_bynameIcEC2ERKNS_12basic_stringIcSt11char_traitsIcESaIcEEEj
001bd760 W _ZNSt7__cxx1115numpunct_bynameIcED0Ev
001bd530 W _ZNSt7__cxx1115numpunct_bynameIcED1Ev
001bd530 W _ZNSt7__cxx1115numpunct_bynameIcED2Ev
001b1600 W _ZNSt7__cxx1115numpunct_bynameIwEC1EPKcj
001b1700 W _ZNSt7__cxx1115numpunct_bynameIwEC1ERKNS_12basic_stringIcSt11char_traitsIcESaIcEEEj
001b1600 W _ZNSt7__cxx1115numpunct_bynameIwEC2EPKcj
001b1700 W _ZNSt7__cxx1115numpunct_bynameIwEC2ERKNS_12basic_stringIcSt11char_traitsIcESaIcEEEj
001ae2a0 W _ZNSt7__cxx1115numpunct_bynameIwED0Ev
001ae070 W _ZNSt7__cxx1115numpunct_bynameIwED1Ev
001ae070 W _ZNSt7__cxx1115numpunct_bynameIwED2Ev
001c4ea0 W _ZNSt7__cxx1115time_get_bynameIcSt19istreambuf_iteratorIcSt11char_traitsIcEEEC1EPKcj
001c4ed0 W _ZNSt7__cxx1115time_get_bynameIcSt19istreambuf_iteratorIcSt11char_traitsIcEEEC1ERKNS_12basic_stringIcS3_SaIcEEEj
001c4ea0 W _ZNSt7__cxx1115time_get_bynameIcSt19istreambuf_iteratorIcSt11char_traitsIcEEEC2EPKcj
001c4ed0 W _ZNSt7__cxx1115time_get_bynameIcSt19istreambuf_iteratorIcSt11char_traitsIcEEEC2ERKNS_12basic_stringIcS3_SaIcEEEj
001bd7e0 W _ZNSt7__cxx1115time_get_bynameIcSt19istreambuf_iteratorIcSt11char_traitsIcEEED0Ev
001bd630 W _ZNSt7__cxx1115time_get_bynameIcSt19istreambuf_iteratorIcSt11char_traitsIcEEED1Ev
001bd630 W _ZNSt7__cxx1115time_get_bynameIcSt19istreambuf_iteratorIcSt11char_traitsIcEEED2Ev
001b2a20 W _ZNSt7__cxx1115time_get_bynameIwSt19istreambuf_iteratorIwSt11char_traitsIwEEEC1EPKcj
001b2a50 W _ZNSt7__cxx1115time_get_bynameIwSt19istreambuf_iteratorIwSt11char_traitsIwEEEC1ERKNS_12basic_stringIcS2_IcESaIcEEEj
001b2a20 W _ZNSt7__cxx1115time_get_bynameIwSt19istreambuf_iteratorIwSt11char_traitsIwEEEC2EPKcj
001b2a50 W _ZNSt7__cxx1115time_get_bynameIwSt19istreambuf_iteratorIwSt11char_traitsIwEEEC2ERKNS_12basic_stringIcS2_IcESaIcEEEj
001ae320 W _ZNSt7__cxx1115time_get_bynameIwSt19istreambuf_iteratorIwSt11char_traitsIwEEED0Ev
001ae170 W _ZNSt7__cxx1115time_get_bynameIwSt19istreambuf_iteratorIwSt11char_traitsIwEEED1Ev
001ae170 W _ZNSt7__cxx1115time_get_bynameIwSt19istreambuf_iteratorIwSt11char_traitsIwEEED2Ev
00245c62 u _ZNSt7__cxx1117moneypunct_bynameIcLb0EE4intlE
001bec50 W _ZNSt7__cxx1117moneypunct_bynameIcLb0EEC1EPKcj
001bed60 W _ZNSt7__cxx1117moneypunct_bynameIcLb0EEC1ERKNS_12basic_stringIcSt11char_traitsIcESaIcEEEj
001bec50 W _ZNSt7__cxx1117moneypunct_bynameIcLb0EEC2EPKcj
001bed60 W _ZNSt7__cxx1117moneypunct_bynameIcLb0EEC2ERKNS_12basic_stringIcSt11char_traitsIcESaIcEEEj
001bd660 W _ZNSt7__cxx1117moneypunct_bynameIcLb0EED0Ev
001bd4b0 W _ZNSt7__cxx1117moneypunct_bynameIcLb0EED1Ev
001bd4b0 W _ZNSt7__cxx1117moneypunct_bynameIcLb0EED2Ev
00245c61 u _ZNSt7__cxx1117moneypunct_bynameIcLb1EE4intlE
001bee70 W _ZNSt7__cxx1117moneypunct_bynameIcLb1EEC1EPKcj
001bef80 W _ZNSt7__cxx1117moneypunct_bynameIcLb1EEC1ERKNS_12basic_stringIcSt11char_traitsIcESaIcEEEj
001bee70 W _ZNSt7__cxx1117moneypunct_bynameIcLb1EEC2EPKcj
001bef80 W _ZNSt7__cxx1117moneypunct_bynameIcLb1EEC2ERKNS_12basic_stringIcSt11char_traitsIcESaIcEEEj
001bd6a0 W _ZNSt7__cxx1117moneypunct_bynameIcLb1EED0Ev
001bd4e0 W _ZNSt7__cxx1117moneypunct_bynameIcLb1EED1Ev
001bd4e0 W _ZNSt7__cxx1117moneypunct_bynameIcLb1EED2Ev
00245802 u _ZNSt7__cxx1117moneypunct_bynameIwLb0EE4intlE
001af9e0 W _ZNSt7__cxx1117moneypunct_bynameIwLb0EEC1EPKcj
001afaf0 W _ZNSt7__cxx1117moneypunct_bynameIwLb0EEC1ERKNS_12basic_stringIcSt11char_traitsIcESaIcEEEj
001af9e0 W _ZNSt7__cxx1117moneypunct_bynameIwLb0EEC2EPKcj
001afaf0 W _ZNSt7__cxx1117moneypunct_bynameIwLb0EEC2ERKNS_12basic_stringIcSt11char_traitsIcESaIcEEEj
001ae1a0 W _ZNSt7__cxx1117moneypunct_bynameIwLb0EED0Ev
001adff0 W _ZNSt7__cxx1117moneypunct_bynameIwLb0EED1Ev
001adff0 W _ZNSt7__cxx1117moneypunct_bynameIwLb0EED2Ev
00245801 u _ZNSt7__cxx1117moneypunct_bynameIwLb1EE4intlE
001afc00 W _ZNSt7__cxx1117moneypunct_bynameIwLb1EEC1EPKcj
001afd10 W _ZNSt7__cxx1117moneypunct_bynameIwLb1EEC1ERKNS_12basic_stringIcSt11char_traitsIcESaIcEEEj
001afc00 W _ZNSt7__cxx1117moneypunct_bynameIwLb1EEC2EPKcj
001afd10 W _ZNSt7__cxx1117moneypunct_bynameIwLb1EEC2ERKNS_12basic_stringIcSt11char_traitsIcESaIcEEEj
001ae1e0 W _ZNSt7__cxx1117moneypunct_bynameIwLb1EED0Ev
001ae020 W _ZNSt7__cxx1117moneypunct_bynameIwLb1EED1Ev
001ae020 W _ZNSt7__cxx1117moneypunct_bynameIwLb1EED2Ev
001d2ce0 W _ZNSt7__cxx1118basic_stringstreamIcSt11char_traitsIcESaIcEE3strERKNS_12basic_stringIcS2_S3_EE
001d2700 W _ZNSt7__cxx1118basic_stringstreamIcSt11char_traitsIcESaIcEE4swapERS4_
001d2490 W _ZNSt7__cxx1118basic_stringstreamIcSt11char_traitsIcESaIcEEaSEOS4_
001d2160 W _ZNSt7__cxx1118basic_stringstreamIcSt11char_traitsIcESaIcEEC1EOS4_
001d1bc0 W _ZNSt7__cxx1118basic_stringstreamIcSt11char_traitsIcESaIcEEC1ERKNS_12basic_stringIcS2_S3_EESt13_Ios_Openmode
001d1860 W _ZNSt7__cxx1118basic_stringstreamIcSt11char_traitsIcESaIcEEC1ESt13_Ios_Openmode
001d1e40 W _ZNSt7__cxx1118basic_stringstreamIcSt11char_traitsIcESaIcEEC2EOS4_
001d19d0 W _ZNSt7__cxx1118basic_stringstreamIcSt11char_traitsIcESaIcEEC2ERKNS_12basic_stringIcS2_S3_EESt13_Ios_Openmode
001d16f0 W _ZNSt7__cxx1118basic_stringstreamIcSt11char_traitsIcESaIcEEC2ESt13_Ios_Openmode
001cd0e0 W _ZNSt7__cxx1118basic_stringstreamIcSt11char_traitsIcESaIcEED0Ev
001cd7b0 W _ZNSt7__cxx1118basic_stringstreamIcSt11char_traitsIcESaIcEED1Ev
001d1da0 W _ZNSt7__cxx1118basic_stringstreamIcSt11char_traitsIcESaIcEED2Ev
001d8450 W _ZNSt7__cxx1118basic_stringstreamIwSt11char_traitsIwESaIwEE3strERKNS_12basic_stringIwS2_S3_EE
001d7e30 W _ZNSt7__cxx1118basic_stringstreamIwSt11char_traitsIwESaIwEE4swapERS4_
001d7ba0 W _ZNSt7__cxx1118basic_stringstreamIwSt11char_traitsIwESaIwEEaSEOS4_
001d7850 W _ZNSt7__cxx1118basic_stringstreamIwSt11char_traitsIwESaIwEEC1EOS4_
001d7280 W _ZNSt7__cxx1118basic_stringstreamIwSt11char_traitsIwESaIwEEC1ERKNS_12basic_stringIwS2_S3_EESt13_Ios_Openmode
001d6f10 W _ZNSt7__cxx1118basic_stringstreamIwSt11char_traitsIwESaIwEEC1ESt13_Ios_Openmode
001d7510 W _ZNSt7__cxx1118basic_stringstreamIwSt11char_traitsIwESaIwEEC2EOS4_
001d7080 W _ZNSt7__cxx1118basic_stringstreamIwSt11char_traitsIwESaIwEEC2ERKNS_12basic_stringIwS2_S3_EESt13_Ios_Openmode
001d6da0 W _ZNSt7__cxx1118basic_stringstreamIwSt11char_traitsIwESaIwEEC2ESt13_Ios_Openmode
001cd020 W _ZNSt7__cxx1118basic_stringstreamIwSt11char_traitsIwESaIwEED0Ev
001cd6f0 W _ZNSt7__cxx1118basic_stringstreamIwSt11char_traitsIwESaIwEED1Ev
001d7470 W _ZNSt7__cxx1118basic_stringstreamIwSt11char_traitsIwESaIwEED2Ev
001d0250 W _ZNSt7__cxx1119basic_istringstreamIcSt11char_traitsIcESaIcEE3strERKNS_12basic_stringIcS2_S3_EE
001cfc70 W _ZNSt7__cxx1119basic_istringstreamIcSt11char_traitsIcESaIcEE4swapERS4_
001cfa00 W _ZNSt7__cxx1119basic_istringstreamIcSt11char_traitsIcESaIcEEaSEOS4_
001cf6e0 W _ZNSt7__cxx1119basic_istringstreamIcSt11char_traitsIcESaIcEEC1EOS4_
001cf1c0 W _ZNSt7__cxx1119basic_istringstreamIcSt11char_traitsIcESaIcEEC1ERKNS_12basic_stringIcS2_S3_EESt13_Ios_Openmode
001ceee0 W _ZNSt7__cxx1119basic_istringstreamIcSt11char_traitsIcESaIcEEC1ESt13_Ios_Openmode
001cf410 W _ZNSt7__cxx1119basic_istringstreamIcSt11char_traitsIcESaIcEEC2EOS4_
001cf030 W _ZNSt7__cxx1119basic_istringstreamIcSt11char_traitsIcESaIcEEC2ERKNS_12basic_stringIcS2_S3_EESt13_Ios_Openmode
001cede0 W _ZNSt7__cxx1119basic_istringstreamIcSt11char_traitsIcESaIcEEC2ESt13_Ios_Openmode
001cd1a0 W _ZNSt7__cxx1119basic_istringstreamIcSt11char_traitsIcESaIcEED0Ev
001cd650 W _ZNSt7__cxx1119basic_istringstreamIcSt11char_traitsIcESaIcEED1Ev
001cf390 W _ZNSt7__cxx1119basic_istringstreamIcSt11char_traitsIcESaIcEED2Ev
001d5850 W _ZNSt7__cxx1119basic_istringstreamIwSt11char_traitsIwESaIwEE3strERKNS_12basic_stringIwS2_S3_EE
001d5230 W _ZNSt7__cxx1119basic_istringstreamIwSt11char_traitsIwESaIwEE4swapERS4_
001d4fa0 W _ZNSt7__cxx1119basic_istringstreamIwSt11char_traitsIwESaIwEEaSEOS4_
001d4c60 W _ZNSt7__cxx1119basic_istringstreamIwSt11char_traitsIwESaIwEEC1EOS4_
001d4730 W _ZNSt7__cxx1119basic_istringstreamIwSt11char_traitsIwESaIwEEC1ERKNS_12basic_stringIwS2_S3_EESt13_Ios_Openmode
001d4440 W _ZNSt7__cxx1119basic_istringstreamIwSt11char_traitsIwESaIwEEC1ESt13_Ios_Openmode
001d4980 W _ZNSt7__cxx1119basic_istringstreamIwSt11char_traitsIwESaIwEEC2EOS4_
001d45a0 W _ZNSt7__cxx1119basic_istringstreamIwSt11char_traitsIwESaIwEEC2ERKNS_12basic_stringIwS2_S3_EESt13_Ios_Openmode
001d4340 W _ZNSt7__cxx1119basic_istringstreamIwSt11char_traitsIwESaIwEEC2ESt13_Ios_Openmode
001ccf70 W _ZNSt7__cxx1119basic_istringstreamIwSt11char_traitsIwESaIwEED0Ev
001cd5b0 W _ZNSt7__cxx1119basic_istringstreamIwSt11char_traitsIwESaIwEED1Ev
001d4900 W _ZNSt7__cxx1119basic_istringstreamIwSt11char_traitsIwESaIwEED2Ev
001d16a0 W _ZNSt7__cxx1119basic_ostringstreamIcSt11char_traitsIcESaIcEE3strERKNS_12basic_stringIcS2_S3_EE
001d10d0 W _ZNSt7__cxx1119basic_ostringstreamIcSt11char_traitsIcESaIcEE4swapERS4_
001d0e70 W _ZNSt7__cxx1119basic_ostringstreamIcSt11char_traitsIcESaIcEEaSEOS4_
001d0b60 W _ZNSt7__cxx1119basic_ostringstreamIcSt11char_traitsIcESaIcEEC1EOS4_
001d0660 W _ZNSt7__cxx1119basic_ostringstreamIcSt11char_traitsIcESaIcEEC1ERKNS_12basic_stringIcS2_S3_EESt13_Ios_Openmode
001d0390 W _ZNSt7__cxx1119basic_ostringstreamIcSt11char_traitsIcESaIcEEC1ESt13_Ios_Openmode
001d08a0 W _ZNSt7__cxx1119basic_ostringstreamIcSt11char_traitsIcESaIcEEC2EOS4_
001d04e0 W _ZNSt7__cxx1119basic_ostringstreamIcSt11char_traitsIcESaIcEEC2ERKNS_12basic_stringIcS2_S3_EESt13_Ios_Openmode
001d02a0 W _ZNSt7__cxx1119basic_ostringstreamIcSt11char_traitsIcESaIcEEC2ESt13_Ios_Openmode
001cd250 W _ZNSt7__cxx1119basic_ostringstreamIcSt11char_traitsIcESaIcEED0Ev
001cd470 W _ZNSt7__cxx1119basic_ostringstreamIcSt11char_traitsIcESaIcEED1Ev
001d0820 W _ZNSt7__cxx1119basic_ostringstreamIcSt11char_traitsIcESaIcEED2Ev
001d6d50 W _ZNSt7__cxx1119basic_ostringstreamIwSt11char_traitsIwESaIwEE3strERKNS_12basic_stringIwS2_S3_EE
001d6740 W _ZNSt7__cxx1119basic_ostringstreamIwSt11char_traitsIwESaIwEE4swapERS4_
001d64c0 W _ZNSt7__cxx1119basic_ostringstreamIwSt11char_traitsIwESaIwEEaSEOS4_
001d6190 W _ZNSt7__cxx1119basic_ostringstreamIwSt11char_traitsIwESaIwEEC1EOS4_
001d5c70 W _ZNSt7__cxx1119basic_ostringstreamIwSt11char_traitsIwESaIwEEC1ERKNS_12basic_stringIwS2_S3_EESt13_Ios_Openmode
001d59a0 W _ZNSt7__cxx1119basic_ostringstreamIwSt11char_traitsIwESaIwEEC1ESt13_Ios_Openmode
001d5ec0 W _ZNSt7__cxx1119basic_ostringstreamIwSt11char_traitsIwESaIwEEC2EOS4_
001d5af0 W _ZNSt7__cxx1119basic_ostringstreamIwSt11char_traitsIwESaIwEEC2ERKNS_12basic_stringIwS2_S3_EESt13_Ios_Openmode
001d58a0 W _ZNSt7__cxx1119basic_ostringstreamIwSt11char_traitsIwESaIwEEC2ESt13_Ios_Openmode
001cd300 W _ZNSt7__cxx1119basic_ostringstreamIwSt11char_traitsIwESaIwEED0Ev
001cd510 W _ZNSt7__cxx1119basic_ostringstreamIwSt11char_traitsIwESaIwEED1Ev
001d5e40 W _ZNSt7__cxx1119basic_ostringstreamIwSt11char_traitsIwESaIwEED2Ev
002bf808 u _ZNSt7__cxx117collateIcE2idE
001c5350 W _ZNSt7__cxx117collateIcEC1Ej
001c53a0 W _ZNSt7__cxx117collateIcEC1EP15__locale_structj
001c5350 W _ZNSt7__cxx117collateIcEC2Ej
001c53a0 W _ZNSt7__cxx117collateIcEC2EP15__locale_structj
001bd860 W _ZNSt7__cxx117collateIcED0Ev
001bd820 W _ZNSt7__cxx117collateIcED1Ev
001bd820 W _ZNSt7__cxx117collateIcED2Ev
002bf7a8 u _ZNSt7__cxx117collateIwE2idE
001b2ed0 W _ZNSt7__cxx117collateIwEC1Ej
001b2f20 W _ZNSt7__cxx117collateIwEC1EP15__locale_structj
001b2ed0 W _ZNSt7__cxx117collateIwEC2Ej
001b2f20 W _ZNSt7__cxx117collateIwEC2EP15__locale_structj
001ae3a0 W _ZNSt7__cxx117collateIwED0Ev
001ae360 W _ZNSt7__cxx117collateIwED1Ev
001ae360 W _ZNSt7__cxx117collateIwED2Ev
002bf80c u _ZNSt7__cxx118messagesIcE2idE
001c4f00 W _ZNSt7__cxx118messagesIcEC1Ej
001c4f60 W _ZNSt7__cxx118messagesIcEC1EP15__locale_structPKcj
001c4f00 W _ZNSt7__cxx118messagesIcEC2Ej
001c4f60 W _ZNSt7__cxx118messagesIcEC2EP15__locale_structPKcj
001bd980 W _ZNSt7__cxx118messagesIcED0Ev
001bd920 W _ZNSt7__cxx118messagesIcED1Ev
001bd920 W _ZNSt7__cxx118messagesIcED2Ev
002bf7ac u _ZNSt7__cxx118messagesIwE2idE
001b2a80 W _ZNSt7__cxx118messagesIwEC1Ej
001b2ae0 W _ZNSt7__cxx118messagesIwEC1EP15__locale_structPKcj
001b2a80 W _ZNSt7__cxx118messagesIwEC2Ej
001b2ae0 W _ZNSt7__cxx118messagesIwEC2EP15__locale_structPKcj
001ae4c0 W _ZNSt7__cxx118messagesIwED0Ev
001ae460 W _ZNSt7__cxx118messagesIwED1Ev
001ae460 W _ZNSt7__cxx118messagesIwED2Ev
0021cfe0 T _ZNSt7__cxx118numpunctIcE22_M_initialize_numpunctEP15__locale_struct
002bf814 u _ZNSt7__cxx118numpunctIcE2idE
001c3060 W _ZNSt7__cxx118numpunctIcEC1Ej
001c3120 W _ZNSt7__cxx118numpunctIcEC1EP15__locale_structj
001c30c0 W _ZNSt7__cxx118numpunctIcEC1EPSt16__numpunct_cacheIcEj
001c3060 W _ZNSt7__cxx118numpunctIcEC2Ej
001c3120 W _ZNSt7__cxx118numpunctIcEC2EP15__locale_structj
001c30c0 W _ZNSt7__cxx118numpunctIcEC2EPSt16__numpunct_cacheIcEj
0021d2a0 T _ZNSt7__cxx118numpunctIcED0Ev
0021d220 T _ZNSt7__cxx118numpunctIcED1Ev
0021d220 T _ZNSt7__cxx118numpunctIcED2Ev
0021d2d0 T _ZNSt7__cxx118numpunctIwE22_M_initialize_numpunctEP15__locale_struct
002bf7b4 u _ZNSt7__cxx118numpunctIwE2idE
001b1200 W _ZNSt7__cxx118numpunctIwEC1Ej
001b12c0 W _ZNSt7__cxx118numpunctIwEC1EP15__locale_structj
001b1260 W _ZNSt7__cxx118numpunctIwEC1EPSt16__numpunct_cacheIwEj
001b1200 W _ZNSt7__cxx118numpunctIwEC2Ej
001b12c0 W _ZNSt7__cxx118numpunctIwEC2EP15__locale_structj
001b1260 W _ZNSt7__cxx118numpunctIwEC2EPSt16__numpunct_cacheIwEj
0021d570 T _ZNSt7__cxx118numpunctIwED0Ev
0021d4f0 T _ZNSt7__cxx118numpunctIwED1Ev
0021d4f0 T _ZNSt7__cxx118numpunctIwED2Ev
002bf810 u _ZNSt7__cxx118time_getIcSt19istreambuf_iteratorIcSt11char_traitsIcEEE2idE
001c3610 W _ZNSt7__cxx118time_getIcSt19istreambuf_iteratorIcSt11char_traitsIcEEEC1Ej
001c3610 W _ZNSt7__cxx118time_getIcSt19istreambuf_iteratorIcSt11char_traitsIcEEEC2Ej
001bd7a0 W _ZNSt7__cxx118time_getIcSt19istreambuf_iteratorIcSt11char_traitsIcEEED0Ev
001bd600 W _ZNSt7__cxx118time_getIcSt19istreambuf_iteratorIcSt11char_traitsIcEEED1Ev
001bd600 W _ZNSt7__cxx118time_getIcSt19istreambuf_iteratorIcSt11char_traitsIcEEED2Ev
002bf7b0 u _ZNSt7__cxx118time_getIwSt19istreambuf_iteratorIwSt11char_traitsIwEEE2idE
001b1830 W _ZNSt7__cxx118time_getIwSt19istreambuf_iteratorIwSt11char_traitsIwEEEC1Ej
001b1830 W _ZNSt7__cxx118time_getIwSt19istreambuf_iteratorIwSt11char_traitsIwEEEC2Ej
001ae2e0 W _ZNSt7__cxx118time_getIwSt19istreambuf_iteratorIwSt11char_traitsIwEEED0Ev
001ae140 W _ZNSt7__cxx118time_getIwSt19istreambuf_iteratorIwSt11char_traitsIwEEED1Ev
001ae140 W _ZNSt7__cxx118time_getIwSt19istreambuf_iteratorIwSt11char_traitsIwEEED2Ev
002bf81c u _ZNSt7__cxx119money_getIcSt19istreambuf_iteratorIcSt11char_traitsIcEEE2idE
001bf090 W _ZNSt7__cxx119money_getIcSt19istreambuf_iteratorIcSt11char_traitsIcEEEC1Ej
001bf090 W _ZNSt7__cxx119money_getIcSt19istreambuf_iteratorIcSt11char_traitsIcEEEC2Ej
001bd6e0 W _ZNSt7__cxx119money_getIcSt19istreambuf_iteratorIcSt11char_traitsIcEEED0Ev
001bd5a0 W _ZNSt7__cxx119money_getIcSt19istreambuf_iteratorIcSt11char_traitsIcEEED1Ev
001bd5a0 W _ZNSt7__cxx119money_getIcSt19istreambuf_iteratorIcSt11char_traitsIcEEED2Ev
002bf7bc u _ZNSt7__cxx119money_getIwSt19istreambuf_iteratorIwSt11char_traitsIwEEE2idE
001afe20 W _ZNSt7__cxx119money_getIwSt19istreambuf_iteratorIwSt11char_traitsIwEEEC1Ej
001afe20 W _ZNSt7__cxx119money_getIwSt19istreambuf_iteratorIwSt11char_traitsIwEEEC2Ej
001ae220 W _ZNSt7__cxx119money_getIwSt19istreambuf_iteratorIwSt11char_traitsIwEEED0Ev
001ae0e0 W _ZNSt7__cxx119money_getIwSt19istreambuf_iteratorIwSt11char_traitsIwEEED1Ev
001ae0e0 W _ZNSt7__cxx119money_getIwSt19istreambuf_iteratorIwSt11char_traitsIwEEED2Ev
002bf818 u _ZNSt7__cxx119money_putIcSt19ostreambuf_iteratorIcSt11char_traitsIcEEE2idE
001bf180 W _ZNSt7__cxx119money_putIcSt19ostreambuf_iteratorIcSt11char_traitsIcEEEC1Ej
001bf180 W _ZNSt7__cxx119money_putIcSt19ostreambuf_iteratorIcSt11char_traitsIcEEEC2Ej
001bd720 W _ZNSt7__cxx119money_putIcSt19ostreambuf_iteratorIcSt11char_traitsIcEEED0Ev
001bd5d0 W _ZNSt7__cxx119money_putIcSt19ostreambuf_iteratorIcSt11char_traitsIcEEED1Ev
001bd5d0 W _ZNSt7__cxx119money_putIcSt19ostreambuf_iteratorIcSt11char_traitsIcEEED2Ev
002bf7b8 u _ZNSt7__cxx119money_putIwSt19ostreambuf_iteratorIwSt11char_traitsIwEEE2idE
001aff10 W _ZNSt7__cxx119money_putIwSt19ostreambuf_iteratorIwSt11char_traitsIwEEEC1Ej
001aff10 W _ZNSt7__cxx119money_putIwSt19ostreambuf_iteratorIwSt11char_traitsIwEEEC2Ej
001ae260 W _ZNSt7__cxx119money_putIwSt19ostreambuf_iteratorIwSt11char_traitsIwEEED0Ev
001ae110 W _ZNSt7__cxx119money_putIwSt19ostreambuf_iteratorIwSt11char_traitsIwEEED1Ev
001ae110 W _ZNSt7__cxx119money_putIwSt19ostreambuf_iteratorIwSt11char_traitsIwEEED2Ev
002bf740 u _ZNSt7num_getIcSt19istreambuf_iteratorIcSt11char_traitsIcEEE2idE
00198070 W _ZNSt7num_getIcSt19istreambuf_iteratorIcSt11char_traitsIcEEEC1Ej
00198070 W _ZNSt7num_getIcSt19istreambuf_iteratorIcSt11char_traitsIcEEEC2Ej
00195c10 W _ZNSt7num_getIcSt19istreambuf_iteratorIcSt11char_traitsIcEEED0Ev
001958f0 W _ZNSt7num_getIcSt19istreambuf_iteratorIcSt11char_traitsIcEEED1Ev
001958f0 W _ZNSt7num_getIcSt19istreambuf_iteratorIcSt11char_traitsIcEEED2Ev
002bf8a0 u _ZNSt7num_getIwSt19istreambuf_iteratorIwSt11char_traitsIwEEE2idE
001f5120 W _ZNSt7num_getIwSt19istreambuf_iteratorIwSt11char_traitsIwEEEC1Ej
001f5120 W _ZNSt7num_getIwSt19istreambuf_iteratorIwSt11char_traitsIwEEEC2Ej
001f2d50 W _ZNSt7num_getIwSt19istreambuf_iteratorIwSt11char_traitsIwEEED0Ev
001f2a30 W _ZNSt7num_getIwSt19istreambuf_iteratorIwSt11char_traitsIwEEED1Ev
001f2a30 W _ZNSt7num_getIwSt19istreambuf_iteratorIwSt11char_traitsIwEEED2Ev
002bf73c u _ZNSt7num_putIcSt19ostreambuf_iteratorIcSt11char_traitsIcEEE2idE
00198280 W _ZNSt7num_putIcSt19ostreambuf_iteratorIcSt11char_traitsIcEEEC1Ej
00198280 W _ZNSt7num_putIcSt19ostreambuf_iteratorIcSt11char_traitsIcEEEC2Ej
00195c50 W _ZNSt7num_putIcSt19ostreambuf_iteratorIcSt11char_traitsIcEEED0Ev
00195920 W _ZNSt7num_putIcSt19ostreambuf_iteratorIcSt11char_traitsIcEEED1Ev
00195920 W _ZNSt7num_putIcSt19ostreambuf_iteratorIcSt11char_traitsIcEEED2Ev
002bf89c u _ZNSt7num_putIwSt19ostreambuf_iteratorIwSt11char_traitsIwEEE2idE
001f5330 W _ZNSt7num_putIwSt19ostreambuf_iteratorIwSt11char_traitsIwEEEC1Ej
001f5330 W _ZNSt7num_putIwSt19ostreambuf_iteratorIwSt11char_traitsIwEEEC2Ej
001f2d90 W _ZNSt7num_putIwSt19ostreambuf_iteratorIwSt11char_traitsIwEEED0Ev
001f2a60 W _ZNSt7num_putIwSt19ostreambuf_iteratorIwSt11char_traitsIwEEED1Ev
001f2a60 W _ZNSt7num_putIwSt19ostreambuf_iteratorIwSt11char_traitsIwEEED2Ev
00214980 T _ZNSt8bad_castD0Ev
00214950 T _ZNSt8bad_castD1Ev
00214950 T _ZNSt8bad_castD2Ev
00245348 R _ZNSt8ios_base10floatfieldE
0024536c R _ZNSt8ios_base10scientificE
00245350 R _ZNSt8ios_base11adjustfieldE
001ad8f0 T _ZNSt8ios_base13_M_grow_wordsEib
00191920 T _ZNSt8ios_base15sync_with_stdioEb
001adae0 T _ZNSt8ios_base17_M_call_callbacksENS_5eventE
001ad8b0 T _ZNSt8ios_base17register_callbackEPFvNS_5eventERS_iEi
001adb50 T _ZNSt8ios_base20_M_dispose_callbacksEv
00245328 R _ZNSt8ios_base2inE
00245334 R _ZNSt8ios_base3appE
00245330 R _ZNSt8ios_base3ateE
0024531c R _ZNSt8ios_base3begE
00245318 R _ZNSt8ios_base3curE
00245388 R _ZNSt8ios_base3decE
00245314 R _ZNSt8ios_base3endE
00245380 R _ZNSt8ios_base3hexE
00245374 R _ZNSt8ios_base3octE
00245324 R _ZNSt8ios_base3outE
002bf764 B _ZNSt8ios_base4Init11_S_refcountE
002bd054 D _ZNSt8ios_base4Init20_S_synced_with_stdioE
00191030 T _ZNSt8ios_base4InitC1Ev
00191030 T _ZNSt8ios_base4InitC2Ev
00191870 T _ZNSt8ios_base4InitD1Ev
00191870 T _ZNSt8ios_base4InitD2Ev
00245378 R _ZNSt8ios_base4leftE
000eb650 W _ZNSt8ios_base4setfESt13_Ios_FmtflagsS0_
00245384 R _ZNSt8ios_base5fixedE
0021bca0 T _ZNSt8ios_base5imbueERKSt6locale
00245370 R _ZNSt8ios_base5rightE
00245320 R _ZNSt8ios_base5truncE
00245344 R _ZNSt8ios_base6badbitE
0024532c R _ZNSt8ios_base6binaryE
00245340 R _ZNSt8ios_base6eofbitE
0024535c R _ZNSt8ios_base6skipwsE
001ad860 T _ZNSt8ios_base6xallocEv
0024533c R _ZNSt8ios_base7failbitE
00223810 T _ZNSt8ios_base7failureB5cxx11C1EPKcRKSt10error_code
00223140 T _ZNSt8ios_base7failureB5cxx11C1ERKNSt7__cxx1112basic_stringIcSt11char_traitsIcESaIcEEE
00223490 T _ZNSt8ios_base7failureB5cxx11C1ERKNSt7__cxx1112basic_stringIcSt11char_traitsIcESaIcEEERKSt10error_code
00223810 T _ZNSt8ios_base7failureB5cxx11C2EPKcRKSt10error_code
00223140 T _ZNSt8ios_base7failureB5cxx11C2ERKNSt7__cxx1112basic_stringIcSt11char_traitsIcESaIcEEE
00223490 T _ZNSt8ios_base7failureB5cxx11C2ERKNSt7__cxx1112basic_stringIcSt11char_traitsIcESaIcEEERKSt10error_code
00222ff0 T _ZNSt8ios_base7failureB5cxx11D0Ev
00222fc0 T _ZNSt8ios_base7failureB5cxx11D1Ev
00222fc0 T _ZNSt8ios_base7failureB5cxx11D2Ev
00245338 R _ZNSt8ios_base7goodbitE
0021bc30 T _ZNSt8ios_base7_M_initEv
001adc70 T _ZNSt8ios_base7_M_moveERS_
001add60 T _ZNSt8ios_base7_M_swapERS_
00245360 R _ZNSt8ios_base7showposE
00245358 R _ZNSt8ios_base7unitbufE
0024537c R _ZNSt8ios_base8internalE
00245368 R _ZNSt8ios_base8showbaseE
0024534c R _ZNSt8ios_base9basefieldE
0024538c R _ZNSt8ios_base9boolalphaE
00245364 R _ZNSt8ios_base9showpointE
00245354 R _ZNSt8ios_base9uppercaseE
001ad7d0 T _ZNSt8ios_baseC1Ev
001ad7d0 T _ZNSt8ios_baseC2Ev
001adc40 T _ZNSt8ios_baseD0Ev
001adbd0 T _ZNSt8ios_baseD1Ev
001adbd0 T _ZNSt8ios_baseD2Ev
002bf72c u _ZNSt8messagesIcE2idE
00198da0 W _ZNSt8messagesIcEC1Ej
00198e00 W _ZNSt8messagesIcEC1EP15__locale_structPKcj
00198da0 W _ZNSt8messagesIcEC2Ej
00198e00 W _ZNSt8messagesIcEC2EP15__locale_structPKcj
00196410 W _ZNSt8messagesIcED0Ev
001963b0 W _ZNSt8messagesIcED1Ev
001963b0 W _ZNSt8messagesIcED2Ev
002bf88c u _ZNSt8messagesIwE2idE
001f5e50 W _ZNSt8messagesIwEC1Ej
001f5eb0 W _ZNSt8messagesIwEC1EP15__locale_structPKcj
001f5e50 W _ZNSt8messagesIwEC2Ej
001f5eb0 W _ZNSt8messagesIwEC2EP15__locale_structPKcj
001f3520 W _ZNSt8messagesIwED0Ev
001f34c0 W _ZNSt8messagesIwED1Ev
001f34c0 W _ZNSt8messagesIwED2Ev
0021fb10 T _ZNSt8numpunctIcE22_M_initialize_numpunctEP15__locale_struct
002bf744 u _ZNSt8numpunctIcE2idE
00197b50 W _ZNSt8numpunctIcEC1Ej
00197c10 W _ZNSt8numpunctIcEC1EP15__locale_structj
00197bb0 W _ZNSt8numpunctIcEC1EPSt16__numpunct_cacheIcEj
00197b50 W _ZNSt8numpunctIcEC2Ej
00197c10 W _ZNSt8numpunctIcEC2EP15__locale_structj
00197bb0 W _ZNSt8numpunctIcEC2EPSt16__numpunct_cacheIcEj
0021fdd0 T _ZNSt8numpunctIcED0Ev
0021fd50 T _ZNSt8numpunctIcED1Ev
0021fd50 T _ZNSt8numpunctIcED2Ev
0021fe00 T _ZNSt8numpunctIwE22_M_initialize_numpunctEP15__locale_struct
002bf8a4 u _ZNSt8numpunctIwE2idE
001f4c00 W _ZNSt8numpunctIwEC1Ej
001f4cc0 W _ZNSt8numpunctIwEC1EP15__locale_structj
001f4c60 W _ZNSt8numpunctIwEC1EPSt16__numpunct_cacheIwEj
001f4c00 W _ZNSt8numpunctIwEC2Ej
001f4cc0 W _ZNSt8numpunctIwEC2EP15__locale_structj
001f4c60 W _ZNSt8numpunctIwEC2EPSt16__numpunct_cacheIwEj
002200a0 T _ZNSt8numpunctIwED0Ev
00220020 T _ZNSt8numpunctIwED1Ev
00220020 T _ZNSt8numpunctIwED2Ev
0010b3a6 W _ZNSt8_Rb_treeItSt4pairIKtKNSt7__cxx1112basic_stringIcSt11char_traitsIcESaIcEEEESt10_Select1stIS9_ESt4lessItESaIS9_EE10_M_insert_IRKS9_NSF_11_Alloc_nodeEEESt17_Rb_tree_iteratorIS9_EPSt18_Rb_tree_node_baseSN_OT_RT0_
00107abe W _ZNSt8_Rb_treeItSt4pairIKtKNSt7__cxx1112basic_stringIcSt11char_traitsIcESaIcEEEESt10_Select1stIS9_ESt4lessItESaIS9_EE11_Alloc_nodeC1ERSF_
00107abe W _ZNSt8_Rb_treeItSt4pairIKtKNSt7__cxx1112basic_stringIcSt11char_traitsIcESaIcEEEESt10_Select1stIS9_ESt4lessItESaIS9_EE11_Alloc_nodeC2ERSF_
0010f550 W _ZNSt8_Rb_treeItSt4pairIKtKNSt7__cxx1112basic_stringIcSt11char_traitsIcESaIcEEEESt10_Select1stIS9_ESt4lessItESaIS9_EE11_M_get_nodeEv
0010d2c0 W _ZNSt8_Rb_treeItSt4pairIKtKNSt7__cxx1112basic_stringIcSt11char_traitsIcESaIcEEEESt10_Select1stIS9_ESt4lessItESaIS9_EE11_M_leftmostEv
0010b4fa W _ZNSt8_Rb_treeItSt4pairIKtKNSt7__cxx1112basic_stringIcSt11char_traitsIcESaIcEEEESt10_Select1stIS9_ESt4lessItESaIS9_EE11_M_put_nodeEPSt13_Rb_tree_nodeIS9_E
00107bd8 W _ZNSt8_Rb_treeItSt4pairIKtKNSt7__cxx1112basic_stringIcSt11char_traitsIcESaIcEEEESt10_Select1stIS9_ESt4lessItESaIS9_EE12_M_drop_nodeEPSt13_Rb_tree_nodeIS9_E
0010d0f2 W _ZNSt8_Rb_treeItSt4pairIKtKNSt7__cxx1112basic_stringIcSt11char_traitsIcESaIcEEEESt10_Select1stIS9_ESt4lessItESaIS9_EE12_M_rightmostEv
0010aff6 W _ZNSt8_Rb_treeItSt4pairIKtKNSt7__cxx1112basic_stringIcSt11char_traitsIcESaIcEEEESt10_Select1stIS9_ESt4lessItESaIS9_EE13_Rb_tree_implISD_Lb1EE13_M_initializeEv
00107a58 W _ZNSt8_Rb_treeItSt4pairIKtKNSt7__cxx1112basic_stringIcSt11char_traitsIcESaIcEEEESt10_Select1stIS9_ESt4lessItESaIS9_EE13_Rb_tree_implISD_Lb1EEC1ERKSD_OSaISt13_Rb_tree_nodeIS9_EE
00107a58 W _ZNSt8_Rb_treeItSt4pairIKtKNSt7__cxx1112basic_stringIcSt11char_traitsIcESaIcEEEESt10_Select1stIS9_ESt4lessItESaIS9_EE13_Rb_tree_implISD_Lb1EEC2ERKSD_OSaISt13_Rb_tree_nodeIS9_EE
00103614 W _ZNSt8_Rb_treeItSt4pairIKtKNSt7__cxx1112basic_stringIcSt11char_traitsIcESaIcEEEESt10_Select1stIS9_ESt4lessItESaIS9_EE13_Rb_tree_implISD_Lb1EED1Ev
00103614 W _ZNSt8_Rb_treeItSt4pairIKtKNSt7__cxx1112basic_stringIcSt11char_traitsIcESaIcEEEESt10_Select1stIS9_ESt4lessItESaIS9_EE13_Rb_tree_implISD_Lb1EED2Ev
0010e78c W _ZNSt8_Rb_treeItSt4pairIKtKNSt7__cxx1112basic_stringIcSt11char_traitsIcESaIcEEEESt10_Select1stIS9_ESt4lessItESaIS9_EE14_M_create_nodeIIRKS9_EEEPSt13_Rb_tree_nodeIS9_EDpOT_
0010e78c W _ZNSt8_Rb_treeItSt4pairIKtKNSt7__cxx1112basic_stringIcSt11char_traitsIcESaIcEEEESt10_Select1stIS9_ESt4lessItESaIS9_EE14_M_create_nodeIJRKS9_EEEPSt13_Rb_tree_nodeIS9_EDpOT_
0010b4c2 W _ZNSt8_Rb_treeItSt4pairIKtKNSt7__cxx1112basic_stringIcSt11char_traitsIcESaIcEEEESt10_Select1stIS9_ESt4lessItESaIS9_EE15_M_destroy_nodeEPSt13_Rb_tree_nodeIS9_E
00104ee0 W _ZNSt8_Rb_treeItSt4pairIKtKNSt7__cxx1112basic_stringIcSt11char_traitsIcESaIcEEEESt10_Select1stIS9_ESt4lessItESaIS9_EE16_M_insert_uniqueIPKS9_EEvT_SJ_
0010f5a4 W _ZNSt8_Rb_treeItSt4pairIKtKNSt7__cxx1112basic_stringIcSt11char_traitsIcESaIcEEEESt10_Select1stIS9_ESt4lessItESaIS9_EE17_M_construct_nodeIIRKS9_EEEvPSt13_Rb_tree_nodeIS9_EDpOT_
0010f5a4 W _ZNSt8_Rb_treeItSt4pairIKtKNSt7__cxx1112basic_stringIcSt11char_traitsIcESaIcEEEESt10_Select1stIS9_ESt4lessItESaIS9_EE17_M_construct_nodeIJRKS9_EEEvPSt13_Rb_tree_nodeIS9_EDpOT_
00107b06 W _ZNSt8_Rb_treeItSt4pairIKtKNSt7__cxx1112basic_stringIcSt11char_traitsIcESaIcEEEESt10_Select1stIS9_ESt4lessItESaIS9_EE17_M_insert_unique_IRKS9_NSF_11_Alloc_nodeEEESt17_Rb_tree_iteratorIS9_ESt23_Rb_tree_const_iteratorIS9_EOT_RT0_
0010d33e W _ZNSt8_Rb_treeItSt4pairIKtKNSt7__cxx1112basic_stringIcSt11char_traitsIcESaIcEEEESt10_Select1stIS9_ESt4lessItESaIS9_EE21_M_get_Node_allocatorEv
0010d13a W _ZNSt8_Rb_treeItSt4pairIKtKNSt7__cxx1112basic_stringIcSt11char_traitsIcESaIcEEEESt10_Select1stIS9_ESt4lessItESaIS9_EE24_M_get_insert_unique_posERS1_
0010b036 W _ZNSt8_Rb_treeItSt4pairIKtKNSt7__cxx1112basic_stringIcSt11char_traitsIcESaIcEEEESt10_Select1stIS9_ESt4lessItESaIS9_EE29_M_get_insert_hint_unique_posESt23_Rb_tree_const_iteratorIS9_ERS1_
00107acc W _ZNSt8_Rb_treeItSt4pairIKtKNSt7__cxx1112basic_stringIcSt11char_traitsIcESaIcEEEESt10_Select1stIS9_ESt4lessItESaIS9_EE3endEv
0010e756 W _ZNSt8_Rb_treeItSt4pairIKtKNSt7__cxx1112basic_stringIcSt11char_traitsIcESaIcEEEESt10_Select1stIS9_ESt4lessItESaIS9_EE5beginEv
0010d0da W _ZNSt8_Rb_treeItSt4pairIKtKNSt7__cxx1112basic_stringIcSt11char_traitsIcESaIcEEEESt10_Select1stIS9_ESt4lessItESaIS9_EE6_M_endEv
0010b59e W _ZNSt8_Rb_treeItSt4pairIKtKNSt7__cxx1112basic_stringIcSt11char_traitsIcESaIcEEEESt10_Select1stIS9_ESt4lessItESaIS9_EE6_S_keyEPKSt13_Rb_tree_nodeIS9_E
00107dd4 W _ZNSt8_Rb_treeItSt4pairIKtKNSt7__cxx1112basic_stringIcSt11char_traitsIcESaIcEEEESt10_Select1stIS9_ESt4lessItESaIS9_EE6_S_keyEPKSt18_Rb_tree_node_base
0010b5e6 W _ZNSt8_Rb_treeItSt4pairIKtKNSt7__cxx1112basic_stringIcSt11char_traitsIcESaIcEEEESt10_Select1stIS9_ESt4lessItESaIS9_EE7_S_leftEPKSt18_Rb_tree_node_base
00107bcd W _ZNSt8_Rb_treeItSt4pairIKtKNSt7__cxx1112basic_stringIcSt11char_traitsIcESaIcEEEESt10_Select1stIS9_ESt4lessItESaIS9_EE7_S_leftEPSt18_Rb_tree_node_base
00104fe6 W _ZNSt8_Rb_treeItSt4pairIKtKNSt7__cxx1112basic_stringIcSt11char_traitsIcESaIcEEEESt10_Select1stIS9_ESt4lessItESaIS9_EE8_M_beginEv
00104f90 W _ZNSt8_Rb_treeItSt4pairIKtKNSt7__cxx1112basic_stringIcSt11char_traitsIcESaIcEEEESt10_Select1stIS9_ESt4lessItESaIS9_EE8_M_eraseEPSt13_Rb_tree_nodeIS9_E
0010b5f1 W _ZNSt8_Rb_treeItSt4pairIKtKNSt7__cxx1112basic_stringIcSt11char_traitsIcESaIcEEEESt10_Select1stIS9_ESt4lessItESaIS9_EE8_S_rightEPKSt18_Rb_tree_node_base
00107bc2 W _ZNSt8_Rb_treeItSt4pairIKtKNSt7__cxx1112basic_stringIcSt11char_traitsIcESaIcEEEESt10_Select1stIS9_ESt4lessItESaIS9_EE8_S_rightEPSt18_Rb_tree_node_base
0010d3ad W _ZNSt8_Rb_treeItSt4pairIKtKNSt7__cxx1112basic_stringIcSt11char_traitsIcESaIcEEEESt10_Select1stIS9_ESt4lessItESaIS9_EE8_S_valueEPKSt13_Rb_tree_nodeIS9_E
0010b5fc W _ZNSt8_Rb_treeItSt4pairIKtKNSt7__cxx1112basic_stringIcSt11char_traitsIcESaIcEEEESt10_Select1stIS9_ESt4lessItESaIS9_EE8_S_valueEPKSt18_Rb_tree_node_base
00104e50 W _ZNSt8_Rb_treeItSt4pairIKtKNSt7__cxx1112basic_stringIcSt11char_traitsIcESaIcEEEESt10_Select1stIS9_ESt4lessItESaIS9_EEC1ERKSD_RKSE_
00104e50 W _ZNSt8_Rb_treeItSt4pairIKtKNSt7__cxx1112basic_stringIcSt11char_traitsIcESaIcEEEESt10_Select1stIS9_ESt4lessItESaIS9_EEC2ERKSD_RKSE_
0010362c W _ZNSt8_Rb_treeItSt4pairIKtKNSt7__cxx1112basic_stringIcSt11char_traitsIcESaIcEEEESt10_Select1stIS9_ESt4lessItESaIS9_EED1Ev
0010362c W _ZNSt8_Rb_treeItSt4pairIKtKNSt7__cxx1112basic_stringIcSt11char_traitsIcESaIcEEEESt10_Select1stIS9_ESt4lessItESaIS9_EED2Ev
0010ae5a W _ZNSt8_Rb_treeItSt4pairIKtNSt7__cxx1112basic_stringIcSt11char_traitsIcESaIcEEEESt10_Select1stIS8_ESt4lessItESaIS8_EE10_M_insert_IRKS8_NSE_11_Alloc_nodeEEESt17_Rb_tree_iteratorIS8_EPSt18_Rb_tree_node_baseSM_OT_RT0_
001078ec W _ZNSt8_Rb_treeItSt4pairIKtNSt7__cxx1112basic_stringIcSt11char_traitsIcESaIcEEEESt10_Select1stIS8_ESt4lessItESaIS8_EE11_Alloc_nodeC1ERSE_
001078ec W _ZNSt8_Rb_treeItSt4pairIKtNSt7__cxx1112basic_stringIcSt11char_traitsIcESaIcEEEESt10_Select1stIS8_ESt4lessItESaIS8_EE11_Alloc_nodeC2ERSE_
0010f44e W _ZNSt8_Rb_treeItSt4pairIKtNSt7__cxx1112basic_stringIcSt11char_traitsIcESaIcEEEESt10_Select1stIS8_ESt4lessItESaIS8_EE11_M_get_nodeEv
0010cfda W _ZNSt8_Rb_treeItSt4pairIKtNSt7__cxx1112basic_stringIcSt11char_traitsIcESaIcEEEESt10_Select1stIS8_ESt4lessItESaIS8_EE11_M_leftmostEv
0010afae W _ZNSt8_Rb_treeItSt4pairIKtNSt7__cxx1112basic_stringIcSt11char_traitsIcESaIcEEEESt10_Select1stIS8_ESt4lessItESaIS8_EE11_M_put_nodeEPSt13_Rb_tree_nodeIS8_E
00107a06 W _ZNSt8_Rb_treeItSt4pairIKtNSt7__cxx1112basic_stringIcSt11char_traitsIcESaIcEEEESt10_Select1stIS8_ESt4lessItESaIS8_EE12_M_drop_nodeEPSt13_Rb_tree_nodeIS8_E
0010ce0c W _ZNSt8_Rb_treeItSt4pairIKtNSt7__cxx1112basic_stringIcSt11char_traitsIcESaIcEEEESt10_Select1stIS8_ESt4lessItESaIS8_EE12_M_rightmostEv
0010aa1a W _ZNSt8_Rb_treeItSt4pairIKtNSt7__cxx1112basic_stringIcSt11char_traitsIcESaIcEEEESt10_Select1stIS8_ESt4lessItESaIS8_EE13_Rb_tree_implISC_Lb1EE13_M_initializeEv
00107886 W _ZNSt8_Rb_treeItSt4pairIKtNSt7__cxx1112basic_stringIcSt11char_traitsIcESaIcEEEESt10_Select1stIS8_ESt4lessItESaIS8_EE13_Rb_tree_implISC_Lb1EEC1ERKSC_OSaISt13_Rb_tree_nodeIS8_EE
00107886 W _ZNSt8_Rb_treeItSt4pairIKtNSt7__cxx1112basic_stringIcSt11char_traitsIcESaIcEEEESt10_Select1stIS8_ESt4lessItESaIS8_EE13_Rb_tree_implISC_Lb1EEC2ERKSC_OSaISt13_Rb_tree_nodeIS8_EE
00103466 W _ZNSt8_Rb_treeItSt4pairIKtNSt7__cxx1112basic_stringIcSt11char_traitsIcESaIcEEEESt10_Select1stIS8_ESt4lessItESaIS8_EE13_Rb_tree_implISC_Lb1EED1Ev
00103466 W _ZNSt8_Rb_treeItSt4pairIKtNSt7__cxx1112basic_stringIcSt11char_traitsIcESaIcEEEESt10_Select1stIS8_ESt4lessItESaIS8_EE13_Rb_tree_implISC_Lb1EED2Ev
0010e6d4 W _ZNSt8_Rb_treeItSt4pairIKtNSt7__cxx1112basic_stringIcSt11char_traitsIcESaIcEEEESt10_Select1stIS8_ESt4lessItESaIS8_EE14_M_create_nodeIIRKS8_EEEPSt13_Rb_tree_nodeIS8_EDpOT_
0010e6d4 W _ZNSt8_Rb_treeItSt4pairIKtNSt7__cxx1112basic_stringIcSt11char_traitsIcESaIcEEEESt10_Select1stIS8_ESt4lessItESaIS8_EE14_M_create_nodeIJRKS8_EEEPSt13_Rb_tree_nodeIS8_EDpOT_
0010af76 W _ZNSt8_Rb_treeItSt4pairIKtNSt7__cxx1112basic_stringIcSt11char_traitsIcESaIcEEEESt10_Select1stIS8_ESt4lessItESaIS8_EE15_M_destroy_nodeEPSt13_Rb_tree_nodeIS8_E
00104d18 W _ZNSt8_Rb_treeItSt4pairIKtNSt7__cxx1112basic_stringIcSt11char_traitsIcESaIcEEEESt10_Select1stIS8_ESt4lessItESaIS8_EE16_M_insert_uniqueIPKS8_EEvT_SI_
0010f4a8 W _ZNSt8_Rb_treeItSt4pairIKtNSt7__cxx1112basic_stringIcSt11char_traitsIcESaIcEEEESt10_Select1stIS8_ESt4lessItESaIS8_EE17_M_construct_nodeIIRKS8_EEEvPSt13_Rb_tree_nodeIS8_EDpOT_
0010f4a8 W _ZNSt8_Rb_treeItSt4pairIKtNSt7__cxx1112basic_stringIcSt11char_traitsIcESaIcEEEESt10_Select1stIS8_ESt4lessItESaIS8_EE17_M_construct_nodeIJRKS8_EEEvPSt13_Rb_tree_nodeIS8_EDpOT_
00107934 W _ZNSt8_Rb_treeItSt4pairIKtNSt7__cxx1112basic_stringIcSt11char_traitsIcESaIcEEEESt10_Select1stIS8_ESt4lessItESaIS8_EE17_M_insert_unique_IRKS8_NSE_11_Alloc_nodeEEESt17_Rb_tree_iteratorIS8_ESt23_Rb_tree_const_iteratorIS8_EOT_RT0_
0010d058 W _ZNSt8_Rb_treeItSt4pairIKtNSt7__cxx1112basic_stringIcSt11char_traitsIcESaIcEEEESt10_Select1stIS8_ESt4lessItESaIS8_EE21_M_get_Node_allocatorEv
0010ce54 W _ZNSt8_Rb_treeItSt4pairIKtNSt7__cxx1112basic_stringIcSt11char_traitsIcESaIcEEEESt10_Select1stIS8_ESt4lessItESaIS8_EE24_M_get_insert_unique_posERS1_
0010aaea W _ZNSt8_Rb_treeItSt4pairIKtNSt7__cxx1112basic_stringIcSt11char_traitsIcESaIcEEEESt10_Select1stIS8_ESt4lessItESaIS8_EE29_M_get_insert_hint_unique_posESt23_Rb_tree_const_iteratorIS8_ERS1_
001078fa W _ZNSt8_Rb_treeItSt4pairIKtNSt7__cxx1112basic_stringIcSt11char_traitsIcESaIcEEEESt10_Select1stIS8_ESt4lessItESaIS8_EE3endEv
0010e69e W _ZNSt8_Rb_treeItSt4pairIKtNSt7__cxx1112basic_stringIcSt11char_traitsIcESaIcEEEESt10_Select1stIS8_ESt4lessItESaIS8_EE5beginEv
0010cdf4 W _ZNSt8_Rb_treeItSt4pairIKtNSt7__cxx1112basic_stringIcSt11char_traitsIcESaIcEEEESt10_Select1stIS8_ESt4lessItESaIS8_EE6_M_endEv
0010b522 W _ZNSt8_Rb_treeItSt4pairIKtNSt7__cxx1112basic_stringIcSt11char_traitsIcESaIcEEEESt10_Select1stIS8_ESt4lessItESaIS8_EE6_S_keyEPKSt13_Rb_tree_nodeIS8_E
00107caa W _ZNSt8_Rb_treeItSt4pairIKtNSt7__cxx1112basic_stringIcSt11char_traitsIcESaIcEEEESt10_Select1stIS8_ESt4lessItESaIS8_EE6_S_keyEPKSt18_Rb_tree_node_base
0010b56a W _ZNSt8_Rb_treeItSt4pairIKtNSt7__cxx1112basic_stringIcSt11char_traitsIcESaIcEEEESt10_Select1stIS8_ESt4lessItESaIS8_EE7_S_leftEPKSt18_Rb_tree_node_base
001079fb W _ZNSt8_Rb_treeItSt4pairIKtNSt7__cxx1112basic_stringIcSt11char_traitsIcESaIcEEEESt10_Select1stIS8_ESt4lessItESaIS8_EE7_S_leftEPSt18_Rb_tree_node_base
00104e1e W _ZNSt8_Rb_treeItSt4pairIKtNSt7__cxx1112basic_stringIcSt11char_traitsIcESaIcEEEESt10_Select1stIS8_ESt4lessItESaIS8_EE8_M_beginEv
00104dc8 W _ZNSt8_Rb_treeItSt4pairIKtNSt7__cxx1112basic_stringIcSt11char_traitsIcESaIcEEEESt10_Select1stIS8_ESt4lessItESaIS8_EE8_M_eraseEPSt13_Rb_tree_nodeIS8_E
0010b575 W _ZNSt8_Rb_treeItSt4pairIKtNSt7__cxx1112basic_stringIcSt11char_traitsIcESaIcEEEESt10_Select1stIS8_ESt4lessItESaIS8_EE8_S_rightEPKSt18_Rb_tree_node_base
001079f0 W _ZNSt8_Rb_treeItSt4pairIKtNSt7__cxx1112basic_stringIcSt11char_traitsIcESaIcEEEESt10_Select1stIS8_ESt4lessItESaIS8_EE8_S_rightEPSt18_Rb_tree_node_base
0010d397 W _ZNSt8_Rb_treeItSt4pairIKtNSt7__cxx1112basic_stringIcSt11char_traitsIcESaIcEEEESt10_Select1stIS8_ESt4lessItESaIS8_EE8_S_valueEPKSt13_Rb_tree_nodeIS8_E
0010b580 W _ZNSt8_Rb_treeItSt4pairIKtNSt7__cxx1112basic_stringIcSt11char_traitsIcESaIcEEEESt10_Select1stIS8_ESt4lessItESaIS8_EE8_S_valueEPKSt18_Rb_tree_node_base
00104c88 W _ZNSt8_Rb_treeItSt4pairIKtNSt7__cxx1112basic_stringIcSt11char_traitsIcESaIcEEEESt10_Select1stIS8_ESt4lessItESaIS8_EEC1ERKSC_RKSD_
00104c88 W _ZNSt8_Rb_treeItSt4pairIKtNSt7__cxx1112basic_stringIcSt11char_traitsIcESaIcEEEESt10_Select1stIS8_ESt4lessItESaIS8_EEC2ERKSC_RKSD_
0010347e W _ZNSt8_Rb_treeItSt4pairIKtNSt7__cxx1112basic_stringIcSt11char_traitsIcESaIcEEEESt10_Select1stIS8_ESt4lessItESaIS8_EED1Ev
0010347e W _ZNSt8_Rb_treeItSt4pairIKtNSt7__cxx1112basic_stringIcSt11char_traitsIcESaIcEEEESt10_Select1stIS8_ESt4lessItESaIS8_EED2Ev
002bf730 u _ZNSt8time_getIcSt19istreambuf_iteratorIcSt11char_traitsIcEEE2idE
00198b10 W _ZNSt8time_getIcSt19istreambuf_iteratorIcSt11char_traitsIcEEEC1Ej
00198b10 W _ZNSt8time_getIcSt19istreambuf_iteratorIcSt11char_traitsIcEEEC2Ej
00195d40 W _ZNSt8time_getIcSt19istreambuf_iteratorIcSt11char_traitsIcEEED0Ev
001959e0 W _ZNSt8time_getIcSt19istreambuf_iteratorIcSt11char_traitsIcEEED1Ev
001959e0 W _ZNSt8time_getIcSt19istreambuf_iteratorIcSt11char_traitsIcEEED2Ev
002bf890 u _ZNSt8time_getIwSt19istreambuf_iteratorIwSt11char_traitsIwEEE2idE
001f5bc0 W _ZNSt8time_getIwSt19istreambuf_iteratorIwSt11char_traitsIwEEEC1Ej
001f5bc0 W _ZNSt8time_getIwSt19istreambuf_iteratorIwSt11char_traitsIwEEEC2Ej
001f2e80 W _ZNSt8time_getIwSt19istreambuf_iteratorIwSt11char_traitsIwEEED0Ev
001f2b20 W _ZNSt8time_getIwSt19istreambuf_iteratorIwSt11char_traitsIwEEED1Ev
001f2b20 W _ZNSt8time_getIwSt19istreambuf_iteratorIwSt11char_traitsIwEEED2Ev
002bf734 u _ZNSt8time_putIcSt19ostreambuf_iteratorIcSt11char_traitsIcEEE2idE
00198a20 W _ZNSt8time_putIcSt19ostreambuf_iteratorIcSt11char_traitsIcEEEC1Ej
00198a20 W _ZNSt8time_putIcSt19ostreambuf_iteratorIcSt11char_traitsIcEEEC2Ej
00195cc0 W _ZNSt8time_putIcSt19ostreambuf_iteratorIcSt11char_traitsIcEEED0Ev
00195980 W _ZNSt8time_putIcSt19ostreambuf_iteratorIcSt11char_traitsIcEEED1Ev
00195980 W _ZNSt8time_putIcSt19ostreambuf_iteratorIcSt11char_traitsIcEEED2Ev
002bf894 u _ZNSt8time_putIwSt19ostreambuf_iteratorIwSt11char_traitsIwEEE2idE
001f5ad0 W _ZNSt8time_putIwSt19ostreambuf_iteratorIwSt11char_traitsIwEEEC1Ej
001f5ad0 W _ZNSt8time_putIwSt19ostreambuf_iteratorIwSt11char_traitsIwEEEC2Ej
001f2e00 W _ZNSt8time_putIwSt19ostreambuf_iteratorIwSt11char_traitsIwEEED0Ev
001f2ac0 W _ZNSt8time_putIwSt19ostreambuf_iteratorIwSt11char_traitsIwEEED1Ev
001f2ac0 W _ZNSt8time_putIwSt19ostreambuf_iteratorIwSt11char_traitsIwEEED2Ev
00214260 T _ZNSt9bad_allocD0Ev
00214230 T _ZNSt9bad_allocD1Ev
00214230 T _ZNSt9bad_allocD2Ev
001941e0 W _ZNSt9basic_iosIcSt11char_traitsIcEE10exceptionsESt12_Ios_Iostate
00194160 W _ZNSt9basic_iosIcSt11char_traitsIcEE11_M_setstateESt12_Ios_Iostate
001944e0 W _ZNSt9basic_iosIcSt11char_traitsIcEE15_M_cache_localeERKSt6locale
00194220 W _ZNSt9basic_iosIcSt11char_traitsIcEE3tieEPSo
001942e0 W _ZNSt9basic_iosIcSt11char_traitsIcEE4fillEc
00194690 W _ZNSt9basic_iosIcSt11char_traitsIcEE4initEPSt15basic_streambufIcS1_E
00194b30 W _ZNSt9basic_iosIcSt11char_traitsIcEE4moveEOS2_
00194780 W _ZNSt9basic_iosIcSt11char_traitsIcEE4moveERS2_
00194ac0 W _ZNSt9basic_iosIcSt11char_traitsIcEE4swapERS2_
001940e0 W _ZNSt9basic_iosIcSt11char_traitsIcEE5clearESt12_Ios_Iostate
001945b0 W _ZNSt9basic_iosIcSt11char_traitsIcEE5imbueERKSt6locale
00194240 W _ZNSt9basic_iosIcSt11char_traitsIcEE5rdbufEPSt15basic_streambufIcS1_E
001947e0 W _ZNSt9basic_iosIcSt11char_traitsIcEE7copyfmtERKS2_
00194130 W _ZNSt9basic_iosIcSt11char_traitsIcEE8setstateESt12_Ios_Iostate
001944d0 W _ZNSt9basic_iosIcSt11char_traitsIcEE9set_rdbufEPSt15basic_streambufIcS1_E
001946f0 W _ZNSt9basic_iosIcSt11char_traitsIcEEC1EPSt15basic_streambufIcS1_E
00194470 W _ZNSt9basic_iosIcSt11char_traitsIcEEC1Ev
001946f0 W _ZNSt9basic_iosIcSt11char_traitsIcEEC2EPSt15basic_streambufIcS1_E
00194470 W _ZNSt9basic_iosIcSt11char_traitsIcEEC2Ev
00194030 W _ZNSt9basic_iosIcSt11char_traitsIcEED0Ev
00193fd0 W _ZNSt9basic_iosIcSt11char_traitsIcEED1Ev
00193fd0 W _ZNSt9basic_iosIcSt11char_traitsIcEED2Ev
00194cc0 W _ZNSt9basic_iosIwSt11char_traitsIwEE10exceptionsESt12_Ios_Iostate
00194c40 W _ZNSt9basic_iosIwSt11char_traitsIwEE11_M_setstateESt12_Ios_Iostate
00194f10 W _ZNSt9basic_iosIwSt11char_traitsIwEE15_M_cache_localeERKSt6locale
00194d00 W _ZNSt9basic_iosIwSt11char_traitsIwEE3tieEPSt13basic_ostreamIwS1_E
00194db0 W _ZNSt9basic_iosIwSt11char_traitsIwEE4fillEw
001950c0 W _ZNSt9basic_iosIwSt11char_traitsIwEE4initEPSt15basic_streambufIwS1_E
001954f0 W _ZNSt9basic_iosIwSt11char_traitsIwEE4moveEOS2_
001951b0 W _ZNSt9basic_iosIwSt11char_traitsIwEE4moveERS2_
00195480 W _ZNSt9basic_iosIwSt11char_traitsIwEE4swapERS2_
00194bc0 W _ZNSt9basic_iosIwSt11char_traitsIwEE5clearESt12_Ios_Iostate
00194fe0 W _ZNSt9basic_iosIwSt11char_traitsIwEE5imbueERKSt6locale
00194d20 W _ZNSt9basic_iosIwSt11char_traitsIwEE5rdbufEPSt15basic_streambufIwS1_E
00195210 W _ZNSt9basic_iosIwSt11char_traitsIwEE7copyfmtERKS2_
00194c10 W _ZNSt9basic_iosIwSt11char_traitsIwEE8setstateESt12_Ios_Iostate
00194f00 W _ZNSt9basic_iosIwSt11char_traitsIwEE9set_rdbufEPSt15basic_streambufIwS1_E
00195120 W _ZNSt9basic_iosIwSt11char_traitsIwEEC1EPSt15basic_streambufIwS1_E
00194e90 W _ZNSt9basic_iosIwSt11char_traitsIwEEC1Ev
00195120 W _ZNSt9basic_iosIwSt11char_traitsIwEEC2EPSt15basic_streambufIwS1_E
00194e90 W _ZNSt9basic_iosIwSt11char_traitsIwEEC2Ev
00194070 W _ZNSt9basic_iosIwSt11char_traitsIwEED0Ev
00194000 W _ZNSt9basic_iosIwSt11char_traitsIwEED1Ev
00194000 W _ZNSt9basic_iosIwSt11char_traitsIwEED2Ev
0018fff0 T _ZNSt9exceptionD0Ev
0018ff70 T _ZNSt9exceptionD1Ev
0018ff70 T _ZNSt9exceptionD2Ev
002bf74c u _ZNSt9money_getIcSt19istreambuf_iteratorIcSt11char_traitsIcEEE2idE
001978f0 W _ZNSt9money_getIcSt19istreambuf_iteratorIcSt11char_traitsIcEEEC1Ej
001978f0 W _ZNSt9money_getIcSt19istreambuf_iteratorIcSt11char_traitsIcEEEC2Ej
00195b20 W _ZNSt9money_getIcSt19istreambuf_iteratorIcSt11char_traitsIcEEED0Ev
00195820 W _ZNSt9money_getIcSt19istreambuf_iteratorIcSt11char_traitsIcEEED1Ev
00195820 W _ZNSt9money_getIcSt19istreambuf_iteratorIcSt11char_traitsIcEEED2Ev
002bf8ac u _ZNSt9money_getIwSt19istreambuf_iteratorIwSt11char_traitsIwEEE2idE
001f49b0 W _ZNSt9money_getIwSt19istreambuf_iteratorIwSt11char_traitsIwEEEC1Ej
001f49b0 W _ZNSt9money_getIwSt19istreambuf_iteratorIwSt11char_traitsIwEEEC2Ej
001f2c60 W _ZNSt9money_getIwSt19istreambuf_iteratorIwSt11char_traitsIwEEED0Ev
001f2960 W _ZNSt9money_getIwSt19istreambuf_iteratorIwSt11char_traitsIwEEED1Ev
001f2960 W _ZNSt9money_getIwSt19istreambuf_iteratorIwSt11char_traitsIwEEED2Ev
002bf748 u _ZNSt9money_putIcSt19ostreambuf_iteratorIcSt11char_traitsIcEEE2idE
001979e0 W _ZNSt9money_putIcSt19ostreambuf_iteratorIcSt11char_traitsIcEEEC1Ej
001979e0 W _ZNSt9money_putIcSt19ostreambuf_iteratorIcSt11char_traitsIcEEEC2Ej
00195b60 W _ZNSt9money_putIcSt19ostreambuf_iteratorIcSt11char_traitsIcEEED0Ev
00195850 W _ZNSt9money_putIcSt19ostreambuf_iteratorIcSt11char_traitsIcEEED1Ev
00195850 W _ZNSt9money_putIcSt19ostreambuf_iteratorIcSt11char_traitsIcEEED2Ev
002bf8a8 u _ZNSt9money_putIwSt19ostreambuf_iteratorIwSt11char_traitsIwEEE2idE
001f4aa0 W _ZNSt9money_putIwSt19ostreambuf_iteratorIwSt11char_traitsIwEEEC1Ej
001f4aa0 W _ZNSt9money_putIwSt19ostreambuf_iteratorIwSt11char_traitsIwEEEC2Ej
001f2ca0 W _ZNSt9money_putIwSt19ostreambuf_iteratorIwSt11char_traitsIwEEED0Ev
001f2990 W _ZNSt9money_putIwSt19ostreambuf_iteratorIwSt11char_traitsIwEEED1Ev
001f2990 W _ZNSt9money_putIwSt19ostreambuf_iteratorIwSt11char_traitsIwEEED2Ev
00190280 T _ZNSt9type_infoD0Ev
00190250 T _ZNSt9type_infoD1Ev
00190250 T _ZNSt9type_infoD2Ev
00131c95 T _Znwj
00101f36 W _ZnwjPv
001906e0 T _ZnwjRKSt9nothrow_t
0013011a T _ZplPKcRK7AString
00130d39 T _ZplPKwRK7UString
001300d7 T _ZplRK7AStringPKc
001300ae T _ZplRK7AStringS1_
00130cf6 T _ZplRK7UStringPKw
00130ccd T _ZplRK7UStringS1_
0011a3c0 W _ZSt10_ConstructI16NESTED_FILE_INFOIS0_EEvPT_DpOT0_
0011a3c0 W _ZSt10_ConstructI16NESTED_FILE_INFOJS0_EEvPT_DpOT0_
0011dc06 W _ZSt10_ConstructI8Cab_InfoIS0_EEvPT_DpOT0_
0011dc06 W _ZSt10_ConstructI8Cab_InfoJS0_EEvPT_DpOT0_
00110692 W _ZSt10_ConstructIN7peparse13aux_symbol_f4EIRKS1_EEvPT_DpOT0_
00110012 W _ZSt10_ConstructIN7peparse13aux_symbol_f4EIS1_EEvPT_DpOT0_
00110692 W _ZSt10_ConstructIN7peparse13aux_symbol_f4EJRKS1_EEvPT_DpOT0_
00110012 W _ZSt10_ConstructIN7peparse13aux_symbol_f4EJS1_EEvPT_DpOT0_
0010fe9b W _ZSt10_ConstructIN7peparse6symbolEIS1_EEvPT_DpOT0_
0010fe9b W _ZSt10_ConstructIN7peparse6symbolEJS1_EEvPT_DpOT0_
0010e489 W _ZSt10_ConstructIN7peparse7sectionEIRKS1_EEvPT_DpOT0_
0010f8e6 W _ZSt10_ConstructIN7peparse7sectionEIS1_EEvPT_DpOT0_
0010e489 W _ZSt10_ConstructIN7peparse7sectionEJRKS1_EEvPT_DpOT0_
0010f8e6 W _ZSt10_ConstructIN7peparse7sectionEJS1_EEvPT_DpOT0_
0010f862 W _ZSt10_ConstructIN7peparse8resourceEIS1_EEvPT_DpOT0_
0010f862 W _ZSt10_ConstructIN7peparse8resourceEJS1_EEvPT_DpOT0_
0010faf1 W _ZSt10_ConstructIN7peparse9exportentEIS1_EEvPT_DpOT0_
0010faf1 W _ZSt10_ConstructIN7peparse9exportentEJS1_EEvPT_DpOT0_
0010fbf9 W _ZSt10_ConstructIN7peparse9importentEIS1_EEvPT_DpOT0_
0010fbf9 W _ZSt10_ConstructIN7peparse9importentEJS1_EEvPT_DpOT0_
0011dad6 W _ZSt10_ConstructINSt7__cxx1112basic_stringIcSt11char_traitsIcESaIcEEEIS5_EEvPT_DpOT0_
0011dad6 W _ZSt10_ConstructINSt7__cxx1112basic_stringIcSt11char_traitsIcESaIcEEEJS5_EEvPT_DpOT0_
00111313 W _ZSt10__distanceIN9__gnu_cxx17__normal_iteratorIPcSt6vectorIcSaIcEEEEENSt15iterator_traitsIT_E15difference_typeES8_S8_St26random_access_iterator_tag
0011f080 W _ZSt10__distanceIN9__gnu_cxx17__normal_iteratorIPKNSt7__cxx1112basic_stringIcSt11char_traitsIcESaIcEEESt6vectorIS7_SaIS7_EEEEENSt15iterator_traitsIT_E15difference_typeESF_SF_St26random_access_iterator_tag
0010e4f1 W _ZSt10__distanceIPhENSt15iterator_traitsIT_E15difference_typeES2_S2_St26random_access_iterator_tag
0018f470 T _ZSt10unexpectedv
0011a22b W _ZSt11__addressofI16NESTED_FILE_INFOEPT_RS1_
0011d7c3 W _ZSt11__addressofI8Cab_InfoEPT_RS1_
0010d40d W _ZSt11__addressofIDsEPT_RS0_
0010f774 W _ZSt11__addressofIKDsEPT_RS1_
0010d9bb W _ZSt11__addressofIN7peparse13aux_symbol_f4EEPT_RS2_
0010e46a W _ZSt11__addressofIN7peparse6symbolEEPT_RS2_
0010e3cc W _ZSt11__addressofIN7peparse7sectionEEPT_RS2_
0010e3f2 W _ZSt11__addressofIN7peparse8resourceEEPT_RS2_
0010e444 W _ZSt11__addressofIN7peparse9exportentEEPT_RS2_
0010e418 W _ZSt11__addressofIN7peparse9importentEEPT_RS2_
0011d7ff W _ZSt11__addressofINSt7__cxx1112basic_stringIcSt11char_traitsIcESaIcEEEEPT_RS6_
00110d9a W _ZSt12__miter_baseIN9__gnu_cxx17__normal_iteratorIPKN7peparse13aux_symbol_f1ESt6vectorIS3_SaIS3_EEEEENSt11_Miter_baseIT_E13iterator_typeESB_
00110e23 W _ZSt12__miter_baseIN9__gnu_cxx17__normal_iteratorIPKN7peparse13aux_symbol_f2ESt6vectorIS3_SaIS3_EEEEENSt11_Miter_baseIT_E13iterator_typeESB_
00110eac W _ZSt12__miter_baseIN9__gnu_cxx17__normal_iteratorIPKN7peparse13aux_symbol_f3ESt6vectorIS3_SaIS3_EEEEENSt11_Miter_baseIT_E13iterator_typeESB_
00110f3e W _ZSt12__miter_baseIN9__gnu_cxx17__normal_iteratorIPKN7peparse13aux_symbol_f5ESt6vectorIS3_SaIS3_EEEEENSt11_Miter_baseIT_E13iterator_typeESB_
0010ea53 W _ZSt12__miter_baseIN9__gnu_cxx17__normal_iteratorIPN7peparse7sectionESt6vectorIS3_SaIS3_EEEEENSt11_Miter_baseIT_E13iterator_typeESA_
0010e544 W _ZSt12__miter_baseIPhENSt11_Miter_baseIT_E13iterator_typeES2_
001112a1 W _ZSt12__miter_baseISt13move_iteratorIPcEENSt11_Miter_baseIT_E13iterator_typeES4_
00110400 W _ZSt12__miter_baseISt13move_iteratorIPN7peparse10rich_entryEEENSt11_Miter_baseIT_E13iterator_typeES6_
0011087f W _ZSt12__miter_baseISt13move_iteratorIPN7peparse13aux_symbol_f1EEENSt11_Miter_baseIT_E13iterator_typeES6_
001108dd W _ZSt12__miter_baseISt13move_iteratorIPN7peparse13aux_symbol_f2EEENSt11_Miter_baseIT_E13iterator_typeES6_
0011093b W _ZSt12__miter_baseISt13move_iteratorIPN7peparse13aux_symbol_f3EEENSt11_Miter_baseIT_E13iterator_typeES6_
001109c8 W _ZSt12__miter_baseISt13move_iteratorIPN7peparse13aux_symbol_f5EEENSt11_Miter_baseIT_E13iterator_typeES6_
0011048d W _ZSt12__miter_baseISt13move_iteratorIPN7peparse5relocEEENSt11_Miter_baseIT_E13iterator_typeES6_
00111433 W _ZSt12__niter_baseIN9__gnu_cxx17__normal_iteratorIPKN7peparse13aux_symbol_f1ESt6vectorIS3_SaIS3_EEEEENSt11_Niter_baseIT_E13iterator_typeESB_
0011147b W _ZSt12__niter_baseIN9__gnu_cxx17__normal_iteratorIPKN7peparse13aux_symbol_f2ESt6vectorIS3_SaIS3_EEEEENSt11_Niter_baseIT_E13iterator_typeESB_
001114c3 W _ZSt12__niter_baseIN9__gnu_cxx17__normal_iteratorIPKN7peparse13aux_symbol_f3ESt6vectorIS3_SaIS3_EEEEENSt11_Niter_baseIT_E13iterator_typeESB_
0011150b W _ZSt12__niter_baseIN9__gnu_cxx17__normal_iteratorIPKN7peparse13aux_symbol_f5ESt6vectorIS3_SaIS3_EEEEENSt11_Niter_baseIT_E13iterator_typeESB_
0010f9f2 W _ZSt12__niter_baseIN9__gnu_cxx17__normal_iteratorIPN7peparse7sectionESt6vectorIS3_SaIS3_EEEEENSt11_Niter_baseIT_E13iterator_typeESA_
0011198e W _ZSt12__niter_baseIPcENSt11_Niter_baseIT_E13iterator_typeES2_
0010f353 W _ZSt12__niter_baseIPhENSt11_Niter_baseIT_E13iterator_typeES2_
00110d01 W _ZSt12__niter_baseIPN7peparse10rich_entryEENSt11_Niter_baseIT_E13iterator_typeES4_
00111179 W _ZSt12__niter_baseIPN7peparse13aux_symbol_f1EENSt11_Niter_baseIT_E13iterator_typeES4_
001111c6 W _ZSt12__niter_baseIPN7peparse13aux_symbol_f2EENSt11_Niter_baseIT_E13iterator_typeES4_
00111213 W _ZSt12__niter_baseIPN7peparse13aux_symbol_f3EENSt11_Niter_baseIT_E13iterator_typeES4_
0011126b W _ZSt12__niter_baseIPN7peparse13aux_symbol_f5EENSt11_Niter_baseIT_E13iterator_typeES4_
00110d59 W _ZSt12__niter_baseIPN7peparse5relocEENSt11_Niter_baseIT_E13iterator_typeES4_
0010f369 W _ZSt13__copy_move_aILb0EPhS0_ET1_T0_S2_S1_
00111449 W _ZSt13__copy_move_aILb0EPKN7peparse13aux_symbol_f1EPS1_ET1_T0_S6_S5_
00111491 W _ZSt13__copy_move_aILb0EPKN7peparse13aux_symbol_f2EPS1_ET1_T0_S6_S5_
001114d9 W _ZSt13__copy_move_aILb0EPKN7peparse13aux_symbol_f3EPS1_ET1_T0_S6_S5_
00111521 W _ZSt13__copy_move_aILb0EPKN7peparse13aux_symbol_f5EPS1_ET1_T0_S6_S5_
001119a4 W _ZSt13__copy_move_aILb1EPcS0_ET1_T0_S2_S1_
00110d17 W _ZSt13__copy_move_aILb1EPN7peparse10rich_entryES2_ET1_T0_S4_S3_
0011118f W _ZSt13__copy_move_aILb1EPN7peparse13aux_symbol_f1ES2_ET1_T0_S4_S3_
001111dc W _ZSt13__copy_move_aILb1EPN7peparse13aux_symbol_f2ES2_ET1_T0_S4_S3_
00111229 W _ZSt13__copy_move_aILb1EPN7peparse13aux_symbol_f3ES2_ET1_T0_S4_S3_
00111281 W _ZSt13__copy_move_aILb1EPN7peparse13aux_symbol_f5ES2_ET1_T0_S4_S3_
00110d6f W _ZSt13__copy_move_aILb1EPN7peparse5relocES2_ET1_T0_S4_S3_
0018f3d0 T _ZSt13get_terminatev
0019bd10 W _ZSt13__int_to_charIcmEiPT_T0_PKS0_St13_Ios_Fmtflagsb
0019bdc0 W _ZSt13__int_to_charIcyEiPT_T0_PKS0_St13_Ios_Fmtflagsb
001f8b80 W _ZSt13__int_to_charIwmEiPT_T0_PKS0_St13_Ios_Fmtflagsb
001f8c30 W _ZSt13__int_to_charIwyEiPT_T0_PKS0_St13_Ios_Fmtflagsb
0010d652 W _ZSt13move_backwardIN9__gnu_cxx17__normal_iteratorIPN7peparse7sectionESt6vectorIS3_SaIS3_EEEES8_ET0_T_SA_S9_
0018f3b0 T _ZSt13set_terminatePFvvE
0019b800 W _ZSt14__add_groupingIcEPT_S1_S0_PKcjPKS0_S5_
001f86e0 W _ZSt14__add_groupingIwEPT_S1_S0_PKcjPKS0_S5_
0021bed0 T _ZSt14__convert_to_vIdEvPKcRT_RSt12_Ios_IostateRKP15__locale_struct
0021bf90 T _ZSt14__convert_to_vIeEvPKcRT_RSt12_Ios_IostateRKP15__locale_struct
0021be10 T _ZSt14__convert_to_vIfEvPKcRT_RSt12_Ios_IostateRKP15__locale_struct
00110ddb W _ZSt14__copy_move_a2ILb0EN9__gnu_cxx17__normal_iteratorIPKN7peparse13aux_symbol_f1ESt6vectorIS3_SaIS3_EEEEPS3_ET1_T0_SC_SB_
00110e64 W _ZSt14__copy_move_a2ILb0EN9__gnu_cxx17__normal_iteratorIPKN7peparse13aux_symbol_f2ESt6vectorIS3_SaIS3_EEEEPS3_ET1_T0_SC_SB_
00110eed W _ZSt14__copy_move_a2ILb0EN9__gnu_cxx17__normal_iteratorIPKN7peparse13aux_symbol_f3ESt6vectorIS3_SaIS3_EEEEPS3_ET1_T0_SC_SB_
00110f7f W _ZSt14__copy_move_a2ILb0EN9__gnu_cxx17__normal_iteratorIPKN7peparse13aux_symbol_f5ESt6vectorIS3_SaIS3_EEEEPS3_ET1_T0_SC_SB_
0010e55a W _ZSt14__copy_move_a2ILb0EPhS0_ET1_T0_S2_S1_
001112b7 W _ZSt14__copy_move_a2ILb1EPcS0_ET1_T0_S2_S1_
00110416 W _ZSt14__copy_move_a2ILb1EPN7peparse10rich_entryES2_ET1_T0_S4_S3_
00110895 W _ZSt14__copy_move_a2ILb1EPN7peparse13aux_symbol_f1ES2_ET1_T0_S4_S3_
001108f3 W _ZSt14__copy_move_a2ILb1EPN7peparse13aux_symbol_f2ES2_ET1_T0_S4_S3_
00110951 W _ZSt14__copy_move_a2ILb1EPN7peparse13aux_symbol_f3ES2_ET1_T0_S4_S3_
001109de W _ZSt14__copy_move_a2ILb1EPN7peparse13aux_symbol_f5ES2_ET1_T0_S4_S3_
001104a3 W _ZSt14__copy_move_a2ILb1EPN7peparse5relocES2_ET1_T0_S4_S3_
0018f450 T _ZSt14get_unexpectedv
0018f430 T _ZSt14set_unexpectedPFvvE
00227760 T _ZSt15future_categoryv
00190230 T _ZSt15get_new_handlerv
00190210 T _ZSt15set_new_handlerPFvvE
0022bbc0 T _ZSt16__at_thread_exitPSt20__at_thread_exit_elt
00196910 W _ZSt16__convert_from_vRKP15__locale_structPciPKcz
001e8740 W _ZSt16__ostream_insertIcSt11char_traitsIcEERSt13basic_ostreamIT_T0_ES6_PKS3_i
001eb2b0 W _ZSt16__ostream_insertIwSt11char_traitsIwEERSt13basic_ostreamIT_T0_ES6_PKS3_i
001f1e00 T _ZSt16__throw_bad_castv
001edac0 W _ZSt17__copy_streambufsIcSt11char_traitsIcEEiPSt15basic_streambufIT_T0_ES6_
001ee3a0 W _ZSt17__copy_streambufsIwSt11char_traitsIwEEiPSt15basic_streambufIT_T0_ES6_
00235950 T _ZSt17current_exceptionv
002230d0 T _ZSt17iostream_categoryv
002359e0 T _ZSt17rethrow_exceptionNSt15__exception_ptr13exception_ptrE
001f1dc0 T _ZSt17__throw_bad_allocv
00193f70 T _ZSt17__verify_groupingPKcjRKNSt7__cxx1112basic_stringIcSt11char_traitsIcESaIcEEE
00220250 T _ZSt17__verify_groupingPKcjRKSs
00190810 T _ZSt18_Rb_tree_decrementPKSt18_Rb_tree_node_base
00190800 T _ZSt18_Rb_tree_decrementPSt18_Rb_tree_node_base
001907b0 T _ZSt18_Rb_tree_incrementPKSt18_Rb_tree_node_base
001907f0 T _ZSt18_Rb_tree_incrementPSt18_Rb_tree_node_base
001f1e40 T _ZSt18__throw_bad_typeidv
0018fc40 T _ZSt18uncaught_exceptionv
0010ed84 W _ZSt18uninitialized_copyIN9__gnu_cxx17__normal_iteratorIPKN7peparse13aux_symbol_f1ESt6vectorIS3_SaIS3_EEEEPS3_ET0_T_SC_SB_
0010ee64 W _ZSt18uninitialized_copyIN9__gnu_cxx17__normal_iteratorIPKN7peparse13aux_symbol_f2ESt6vectorIS3_SaIS3_EEEEPS3_ET0_T_SC_SB_
0010ef44 W _ZSt18uninitialized_copyIN9__gnu_cxx17__normal_iteratorIPKN7peparse13aux_symbol_f3ESt6vectorIS3_SaIS3_EEEEPS3_ET0_T_SC_SB_
0010f024 W _ZSt18uninitialized_copyIN9__gnu_cxx17__normal_iteratorIPKN7peparse13aux_symbol_f4ESt6vectorIS3_SaIS3_EEEEPS3_ET0_T_SC_SB_
0010f104 W _ZSt18uninitialized_copyIN9__gnu_cxx17__normal_iteratorIPKN7peparse13aux_symbol_f5ESt6vectorIS3_SaIS3_EEEEPS3_ET0_T_SC_SB_
0010a48b W _ZSt18uninitialized_copyIN9__gnu_cxx17__normal_iteratorIPKN7peparse7sectionESt6vectorIS3_SaIS3_EEEEPS3_ET0_T_SC_SB_
0010e5b7 W _ZSt18uninitialized_copyIPhS0_ET0_T_S2_S1_
0011a2ae W _ZSt18uninitialized_copyISt13move_iteratorIP16NESTED_FILE_INFOES2_ET0_T_S5_S4_
0011d91c W _ZSt18uninitialized_copyISt13move_iteratorIP8Cab_InfoES2_ET0_T_S5_S4_
0010f3f0 W _ZSt18uninitialized_copyISt13move_iteratorIPcES1_ET0_T_S4_S3_
0010d71e W _ZSt18uninitialized_copyISt13move_iteratorIPN7peparse10rich_entryEES3_ET0_T_S6_S5_
0010e1b0 W _ZSt18uninitialized_copyISt13move_iteratorIPN7peparse13aux_symbol_f1EES3_ET0_T_S6_S5_
0010e22c W _ZSt18uninitialized_copyISt13move_iteratorIPN7peparse13aux_symbol_f2EES3_ET0_T_S6_S5_
0010e2a8 W _ZSt18uninitialized_copyISt13move_iteratorIPN7peparse13aux_symbol_f3EES3_ET0_T_S6_S5_
0010e324 W _ZSt18uninitialized_copyISt13move_iteratorIPN7peparse13aux_symbol_f4EES3_ET0_T_S6_S5_
0010e3a0 W _ZSt18uninitialized_copyISt13move_iteratorIPN7peparse13aux_symbol_f5EES3_ET0_T_S6_S5_
0010d866 W _ZSt18uninitialized_copyISt13move_iteratorIPN7peparse5relocEES3_ET0_T_S6_S5_
0010e11c W _ZSt18uninitialized_copyISt13move_iteratorIPN7peparse6symbolEES3_ET0_T_S6_S5_
0010d590 W _ZSt18uninitialized_copyISt13move_iteratorIPN7peparse7sectionEES3_ET0_T_S6_S5_
0010d4fc W _ZSt18uninitialized_copyISt13move_iteratorIPN7peparse8resourceEES3_ET0_T_S6_S5_
0010d7c4 W _ZSt18uninitialized_copyISt13move_iteratorIPN7peparse9exportentEES3_ET0_T_S6_S5_
0010d90c W _ZSt18uninitialized_copyISt13move_iteratorIPN7peparse9importentEES3_ET0_T_S6_S5_
0011d892 W _ZSt18uninitialized_copyISt13move_iteratorIPNSt7__cxx1112basic_stringIcSt11char_traitsIcESaIcEEEES7_ET0_T_SA_S9_
00111308 W _ZSt19__iterator_categoryIN9__gnu_cxx17__normal_iteratorIPcSt6vectorIcSaIcEEEEENSt15iterator_traitsIT_E17iterator_categoryERKS8_
0011f075 W _ZSt19__iterator_categoryIN9__gnu_cxx17__normal_iteratorIPKNSt7__cxx1112basic_stringIcSt11char_traitsIcESaIcEEESt6vectorIS7_SaIS7_EEEEENSt15iterator_traitsIT_E17iterator_categoryERKSF_
0011cf2a W _ZSt19__iterator_categoryIN9__gnu_cxx17__normal_iteratorIPNSt7__cxx1112basic_stringIcSt11char_traitsIcESaIcEEESt6vectorIS7_SaIS7_EEEEENSt15iterator_traitsIT_E17iterator_categoryERKSE_
00107e4e W _ZSt19__iterator_categoryIPhENSt15iterator_traitsIT_E17iterator_categoryERKS2_
001f23e0 T _ZSt19__throw_ios_failurePKc
001f1e80 T _ZSt19__throw_logic_errorPKc
001f22c0 T _ZSt19__throw_range_errorPKc
001f25c0 T _ZSt19__throw_regex_errorNSt15regex_constants10error_typeE
00191000 T _ZSt20_Rb_tree_black_countPKSt18_Rb_tree_node_baseS1_
00190820 T _ZSt20_Rb_tree_rotate_leftPSt18_Rb_tree_node_baseRS0_
001f1ee0 T _ZSt20__throw_domain_errorPKc
001f2520 T _ZSt20__throw_future_errori
001f1fa0 T _ZSt20__throw_length_errorPKc
001f2000 T _ZSt20__throw_out_of_rangePKc
001f2460 T _ZSt20__throw_system_errori
0021f920 T _ZSt21__copy_streambufs_eofIcSt11char_traitsIcEEiPSt15basic_streambufIT_T0_ES6_Rb
0021fa20 T _ZSt21__copy_streambufs_eofIwSt11char_traitsIwEEiPSt15basic_streambufIT_T0_ES6_Rb
00190880 T _ZSt21_Rb_tree_rotate_rightPSt18_Rb_tree_node_baseRS0_
001f1d80 T _ZSt21__throw_bad_exceptionv
001f2260 T _ZSt21__throw_runtime_errorPKc
0010fa08 W _ZSt22__copy_move_backward_aILb1EPN7peparse7sectionES2_ET1_T0_S4_S3_
001f2320 T _ZSt22__throw_overflow_errorPKc
0010db34 W _ZSt22__uninitialized_copy_aIN9__gnu_cxx17__normal_iteratorIPKN7peparse13aux_symbol_f1ESt6vectorIS3_SaIS3_EEEEPS3_S3_ET0_T_SC_SB_RSaIT1_E
0010dc8e W _ZSt22__uninitialized_copy_aIN9__gnu_cxx17__normal_iteratorIPKN7peparse13aux_symbol_f2ESt6vectorIS3_SaIS3_EEEEPS3_S3_ET0_T_SC_SB_RSaIT1_E
0010dde8 W _ZSt22__uninitialized_copy_aIN9__gnu_cxx17__normal_iteratorIPKN7peparse13aux_symbol_f3ESt6vectorIS3_SaIS3_EEEEPS3_S3_ET0_T_SC_SB_RSaIT1_E
0010df42 W _ZSt22__uninitialized_copy_aIN9__gnu_cxx17__normal_iteratorIPKN7peparse13aux_symbol_f4ESt6vectorIS3_SaIS3_EEEEPS3_S3_ET0_T_SC_SB_RSaIT1_E
0010e09c W _ZSt22__uninitialized_copy_aIN9__gnu_cxx17__normal_iteratorIPKN7peparse13aux_symbol_f5ESt6vectorIS3_SaIS3_EEEEPS3_S3_ET0_T_SC_SB_RSaIT1_E
001075f9 W _ZSt22__uninitialized_copy_aIN9__gnu_cxx17__normal_iteratorIPKN7peparse7sectionESt6vectorIS3_SaIS3_EEEEPS3_S3_ET0_T_SC_SB_RSaIT1_E
0010cb35 W _ZSt22__uninitialized_copy_aIPhS0_hET0_T_S2_S1_RSaIT1_E
0011a1da W _ZSt22__uninitialized_copy_aISt13move_iteratorIP16NESTED_FILE_INFOES2_S1_ET0_T_S5_S4_RSaIT1_E
0011d772 W _ZSt22__uninitialized_copy_aISt13move_iteratorIP8Cab_InfoES2_S1_ET0_T_S5_S4_RSaIT1_E
0010e634 W _ZSt22__uninitialized_copy_aISt13move_iteratorIPcES1_cET0_T_S4_S3_RSaIT1_E
0010ba90 W _ZSt22__uninitialized_copy_aISt13move_iteratorIPN7peparse10rich_entryEES3_S2_ET0_T_S6_S5_RSaIT1_E
0010c4b8 W _ZSt22__uninitialized_copy_aISt13move_iteratorIPN7peparse13aux_symbol_f1EES3_S2_ET0_T_S6_S5_RSaIT1_E
0010c536 W _ZSt22__uninitialized_copy_aISt13move_iteratorIPN7peparse13aux_symbol_f2EES3_S2_ET0_T_S6_S5_RSaIT1_E
0010c5b4 W _ZSt22__uninitialized_copy_aISt13move_iteratorIPN7peparse13aux_symbol_f3EES3_S2_ET0_T_S6_S5_RSaIT1_E
0010c632 W _ZSt22__uninitialized_copy_aISt13move_iteratorIPN7peparse13aux_symbol_f4EES3_S2_ET0_T_S6_S5_RSaIT1_E
0010c6c2 W _ZSt22__uninitialized_copy_aISt13move_iteratorIPN7peparse13aux_symbol_f5EES3_S2_ET0_T_S6_S5_RSaIT1_E
0010bbd8 W _ZSt22__uninitialized_copy_aISt13move_iteratorIPN7peparse5relocEES3_S2_ET0_T_S6_S5_RSaIT1_E
0010c40c W _ZSt22__uninitialized_copy_aISt13move_iteratorIPN7peparse6symbolEES3_S2_ET0_T_S6_S5_RSaIT1_E
0010b88a W _ZSt22__uninitialized_copy_aISt13move_iteratorIPN7peparse7sectionEES3_S2_ET0_T_S6_S5_RSaIT1_E
0010b7dd W _ZSt22__uninitialized_copy_aISt13move_iteratorIPN7peparse8resourceEES3_S2_ET0_T_S6_S5_RSaIT1_E
0010bb2c W _ZSt22__uninitialized_copy_aISt13move_iteratorIPN7peparse9exportentEES3_S2_ET0_T_S6_S5_RSaIT1_E
0010bc74 W _ZSt22__uninitialized_copy_aISt13move_iteratorIPN7peparse9importentEES3_S2_ET0_T_S6_S5_RSaIT1_E
0011d6e2 W _ZSt22__uninitialized_copy_aISt13move_iteratorIPNSt7__cxx1112basic_stringIcSt11char_traitsIcESaIcEEEES7_S6_ET0_T_SA_S9_RSaIT1_E
002201c0 T _ZSt22__verify_grouping_implPKcjS0_j
0010ea94 W _ZSt23__copy_move_backward_a2ILb1EN9__gnu_cxx17__normal_iteratorIPN7peparse7sectionESt6vectorIS3_SaIS3_EEEES8_ET1_T0_SA_S9_
001f2380 T _ZSt23__throw_underflow_errorPKc
001f1f40 T _ZSt24__throw_invalid_argumentPKc
001f2060 T _ZSt24__throw_out_of_range_fmtPKcz
0022bc20 T _ZSt25notify_all_at_thread_exitRSt18condition_variableSt11unique_lockISt5mutexE
001f2580 T _ZSt25__throw_bad_function_callv
00190b40 T _ZSt28_Rb_tree_rebalance_for_erasePSt18_Rb_tree_node_baseRS_
001908e0 T _ZSt29_Rb_tree_insert_and_rebalancebPSt18_Rb_tree_node_baseS0_RS_
00206820 W _ZSt2wsIcSt11char_traitsIcEERSt13basic_istreamIT_T0_ES6_
00209be0 W _ZSt2wsIwSt11char_traitsIwEERSt13basic_istreamIT_T0_ES6_
0012150c W _ZSt32__enable_shared_from_this_helperILN9__gnu_cxx12_Lock_policyE2EEvRKSt14__shared_countIXT_EEz
0011a1bc W _ZSt32__make_move_if_noexcept_iteratorIP16NESTED_FILE_INFOSt13move_iteratorIS1_EET0_T_
0011d754 W _ZSt32__make_move_if_noexcept_iteratorIP8Cab_InfoSt13move_iteratorIS1_EET0_T_
0010e616 W _ZSt32__make_move_if_noexcept_iteratorIPcSt13move_iteratorIS0_EET0_T_
0010ba72 W _ZSt32__make_move_if_noexcept_iteratorIPN7peparse10rich_entryESt13move_iteratorIS2_EET0_T_
0010c49a W _ZSt32__make_move_if_noexcept_iteratorIPN7peparse13aux_symbol_f1ESt13move_iteratorIS2_EET0_T_
0010c518 W _ZSt32__make_move_if_noexcept_iteratorIPN7peparse13aux_symbol_f2ESt13move_iteratorIS2_EET0_T_
0010c596 W _ZSt32__make_move_if_noexcept_iteratorIPN7peparse13aux_symbol_f3ESt13move_iteratorIS2_EET0_T_
0010c614 W _ZSt32__make_move_if_noexcept_iteratorIPN7peparse13aux_symbol_f4ESt13move_iteratorIS2_EET0_T_
0010c6a4 W _ZSt32__make_move_if_noexcept_iteratorIPN7peparse13aux_symbol_f5ESt13move_iteratorIS2_EET0_T_
0010bbba W _ZSt32__make_move_if_noexcept_iteratorIPN7peparse5relocESt13move_iteratorIS2_EET0_T_
0010c3ee W _ZSt32__make_move_if_noexcept_iteratorIPN7peparse6symbolESt13move_iteratorIS2_EET0_T_
0010b86c W _ZSt32__make_move_if_noexcept_iteratorIPN7peparse7sectionESt13move_iteratorIS2_EET0_T_
0010b7bf W _ZSt32__make_move_if_noexcept_iteratorIPN7peparse8resourceESt13move_iteratorIS2_EET0_T_
0010bb0e W _ZSt32__make_move_if_noexcept_iteratorIPN7peparse9exportentESt13move_iteratorIS2_EET0_T_
0010bc56 W _ZSt32__make_move_if_noexcept_iteratorIPN7peparse9importentESt13move_iteratorIS2_EET0_T_
0011d6c4 W _ZSt32__make_move_if_noexcept_iteratorIPNSt7__cxx1112basic_stringIcSt11char_traitsIcESaIcEEESt13move_iteratorIS6_EET0_T_
0011a083 W _ZSt34__uninitialized_move_if_noexcept_aIP16NESTED_FILE_INFOS1_SaIS0_EET0_T_S4_S3_RT1_
0011d49b W _ZSt34__uninitialized_move_if_noexcept_aIP8Cab_InfoS1_SaIS0_EET0_T_S4_S3_RT1_
0010ccae W _ZSt34__uninitialized_move_if_noexcept_aIPcS0_SaIcEET0_T_S3_S2_RT1_
0010886d W _ZSt34__uninitialized_move_if_noexcept_aIPN7peparse10rich_entryES2_SaIS1_EET0_T_S5_S4_RT1_
0010985b W _ZSt34__uninitialized_move_if_noexcept_aIPN7peparse13aux_symbol_f1ES2_SaIS1_EET0_T_S5_S4_RT1_
00109a4b W _ZSt34__uninitialized_move_if_noexcept_aIPN7peparse13aux_symbol_f2ES2_SaIS1_EET0_T_S5_S4_RT1_
00109c3b W _ZSt34__uninitialized_move_if_noexcept_aIPN7peparse13aux_symbol_f3ES2_SaIS1_EET0_T_S5_S4_RT1_
00109e9b W _ZSt34__uninitialized_move_if_noexcept_aIPN7peparse13aux_symbol_f4ES2_SaIS1_EET0_T_S5_S4_RT1_
0010a095 W _ZSt34__uninitialized_move_if_noexcept_aIPN7peparse13aux_symbol_f5ES2_SaIS1_EET0_T_S5_S4_RT1_
00108d39 W _ZSt34__uninitialized_move_if_noexcept_aIPN7peparse5relocES2_SaIS1_EET0_T_S5_S4_RT1_
0010963d W _ZSt34__uninitialized_move_if_noexcept_aIPN7peparse6symbolES2_SaIS1_EET0_T_S5_S4_RT1_
0010861d W _ZSt34__uninitialized_move_if_noexcept_aIPN7peparse7sectionES2_SaIS1_EET0_T_S5_S4_RT1_
001083ff W _ZSt34__uninitialized_move_if_noexcept_aIPN7peparse8resourceES2_SaIS1_EET0_T_S5_S4_RT1_
00108b1b W _ZSt34__uninitialized_move_if_noexcept_aIPN7peparse9exportentES2_SaIS1_EET0_T_S5_S4_RT1_
00108fe7 W _ZSt34__uninitialized_move_if_noexcept_aIPN7peparse9importentES2_SaIS1_EET0_T_S5_S4_RT1_
0011d27d W _ZSt34__uninitialized_move_if_noexcept_aIPNSt7__cxx1112basic_stringIcSt11char_traitsIcESaIcEEES6_SaIS5_EET0_T_S9_S8_RT1_
002bf600 B _ZSt3cin
000eb6ad W _ZSt3decRSt8ios_base
0010b789 W _ZSt3maxIjERKT_S2_S2_
002bf4c0 B _ZSt4cerr
002bf420 B _ZSt4clog
0011051a W _ZSt4copyIN9__gnu_cxx17__normal_iteratorIPKN7peparse13aux_symbol_f1ESt6vectorIS3_SaIS3_EEEEPS3_ET0_T_SC_SB_
0011057c W _ZSt4copyIN9__gnu_cxx17__normal_iteratorIPKN7peparse13aux_symbol_f2ESt6vectorIS3_SaIS3_EEEEPS3_ET0_T_SC_SB_
001105de W _ZSt4copyIN9__gnu_cxx17__normal_iteratorIPKN7peparse13aux_symbol_f3ESt6vectorIS3_SaIS3_EEEEPS3_ET0_T_SC_SB_
001106f4 W _ZSt4copyIN9__gnu_cxx17__normal_iteratorIPKN7peparse13aux_symbol_f5ESt6vectorIS3_SaIS3_EEEEPS3_ET0_T_SC_SB_
0010caa2 W _ZSt4copyIPhS0_ET0_T_S2_S1_
00110a30 W _ZSt4copyISt13move_iteratorIPcES1_ET0_T_S4_S3_
0010fa28 W _ZSt4copyISt13move_iteratorIPN7peparse10rich_entryEES3_ET0_T_S6_S5_
0010feda W _ZSt4copyISt13move_iteratorIPN7peparse13aux_symbol_f1EES3_ET0_T_S6_S5_
0010ff14 W _ZSt4copyISt13move_iteratorIPN7peparse13aux_symbol_f2EES3_ET0_T_S6_S5_
0010ff4e W _ZSt4copyISt13move_iteratorIPN7peparse13aux_symbol_f3EES3_ET0_T_S6_S5_
00110051 W _ZSt4copyISt13move_iteratorIPN7peparse13aux_symbol_f5EES3_ET0_T_S6_S5_
0010fb30 W _ZSt4copyISt13move_iteratorIPN7peparse5relocEES3_ET0_T_S6_S5_
002bf560 B _ZSt4cout
001e8530 W _ZSt4endlIcSt11char_traitsIcEERSt13basic_ostreamIT_T0_ES6_
001eb0f0 W _ZSt4endlIwSt11char_traitsIwEERSt13basic_ostreamIT_T0_ES6_
001e85b0 W _ZSt4endsIcSt11char_traitsIcEERSt13basic_ostreamIT_T0_ES6_
001eb140 W _ZSt4endsIwSt11char_traitsIwEERSt13basic_ostreamIT_T0_ES6_
0011eed6 W _ZSt4findIN9__gnu_cxx17__normal_iteratorIPKNSt7__cxx1112basic_stringIcSt11char_traitsIcESaIcEEESt6vectorIS7_SaIS7_EEEES7_ET_SE_SE_RKT0_
0011c658 W _ZSt4findIN9__gnu_cxx17__normal_iteratorIPNSt7__cxx1112basic_stringIcSt11char_traitsIcESaIcEEESt6vectorIS7_SaIS7_EEEES7_ET_SD_SD_RKT0_
001037f1 W _ZSt4findIPhiET_S1_S1_RKT0_
00101f1c W _ZSt4__lgi
00104b52 W _ZSt4moveIRcEONSt16remove_referenceIT_E4typeEOS2_
0010b931 W _ZSt4moveIRN7peparse7sectionEEONSt16remove_referenceIT_E4typeEOS4_
000eb6ca W _ZSt4moveIRNSt7__cxx1112basic_stringIcSt11char_traitsIcESaIcEEEEONSt16remove_referenceIT_E4typeEOS8_
001215c1 W _ZSt4moveIRP14CUnpackManagerEONSt16remove_referenceIT_E4typeEOS4_
00111b6a W _ZSt4moveIRPN7peparse13aux_symbol_f1EEONSt16remove_referenceIT_E4typeEOS5_
00111be1 W _ZSt4moveIRPN7peparse13aux_symbol_f2EEONSt16remove_referenceIT_E4typeEOS5_
00111c58 W _ZSt4moveIRPN7peparse13aux_symbol_f3EEONSt16remove_referenceIT_E4typeEOS5_
00111ccf W _ZSt4moveIRPN7peparse13aux_symbol_f4EEONSt16remove_referenceIT_E4typeEOS5_
00111d46 W _ZSt4moveIRPN7peparse13aux_symbol_f5EEONSt16remove_referenceIT_E4typeEOS5_
00110fd2 W _ZSt4moveIRSaIN7peparse13aux_symbol_f1EEEONSt16remove_referenceIT_E4typeEOS5_
00111022 W _ZSt4moveIRSaIN7peparse13aux_symbol_f2EEEONSt16remove_referenceIT_E4typeEOS5_
00111072 W _ZSt4moveIRSaIN7peparse13aux_symbol_f3EEEONSt16remove_referenceIT_E4typeEOS5_
001110c2 W _ZSt4moveIRSaIN7peparse13aux_symbol_f4EEEONSt16remove_referenceIT_E4typeEOS5_
00111112 W _ZSt4moveIRSaIN7peparse13aux_symbol_f5EEEONSt16remove_referenceIT_E4typeEOS5_
00107a4f W _ZSt4moveIRSaISt13_Rb_tree_nodeISt4pairIKtKNSt7__cxx1112basic_stringIcSt11char_traitsIcESaIcEEEEEEEONSt16remove_referenceIT_E4typeEOSF_
0010787d W _ZSt4moveIRSaISt13_Rb_tree_nodeISt4pairIKtNSt7__cxx1112basic_stringIcSt11char_traitsIcESaIcEEEEEEEONSt16remove_referenceIT_E4typeEOSE_
0012121b W _ZSt4moveIRSt10shared_ptrI14CUnpackManagerEEONSt16remove_referenceIT_E4typeEOS5_
001213b6 W _ZSt4moveIRSt12__shared_ptrI14CUnpackManagerLN9__gnu_cxx12_Lock_policyE2EEEONSt16remove_referenceIT_E4typeEOS7_
00110785 W _ZSt4moveIRSt6vectorIN7peparse13aux_symbol_f1ESaIS2_EEEONSt16remove_referenceIT_E4typeEOS7_
001107b7 W _ZSt4moveIRSt6vectorIN7peparse13aux_symbol_f2ESaIS2_EEEONSt16remove_referenceIT_E4typeEOS7_
001107e9 W _ZSt4moveIRSt6vectorIN7peparse13aux_symbol_f3ESaIS2_EEEONSt16remove_referenceIT_E4typeEOS7_
0011081b W _ZSt4moveIRSt6vectorIN7peparse13aux_symbol_f4ESaIS2_EEEONSt16remove_referenceIT_E4typeEOS7_
0011084d W _ZSt4moveIRSt6vectorIN7peparse13aux_symbol_f5ESaIS2_EEEONSt16remove_referenceIT_E4typeEOS7_
0010f925 W _ZSt4swapIN7peparse7sectionEEvRT_S3_
001215c9 W _ZSt4swapIP14CUnpackManagerEvRT_S3_
00111b72 W _ZSt4swapIPN7peparse13aux_symbol_f1EEvRT_S4_
00111be9 W _ZSt4swapIPN7peparse13aux_symbol_f2EEvRT_S4_
00111c60 W _ZSt4swapIPN7peparse13aux_symbol_f3EEvRT_S4_
00111cd7 W _ZSt4swapIPN7peparse13aux_symbol_f4EEvRT_S4_
00111d4e W _ZSt4swapIPN7peparse13aux_symbol_f5EEvRT_S4_
002bf380 B _ZSt4wcin
001e85d0 W _ZSt5flushIcSt11char_traitsIcEERSt13basic_ostreamIT_T0_ES6_
001eb160 W _ZSt5flushIwSt11char_traitsIwEERSt13basic_ostreamIT_T0_ES6_
002bf240 B _ZSt5wcerr
002bf1a0 B _ZSt5wclog
002bf2e0 B _ZSt5wcout
0010cadc W _ZSt7advanceIPhjEvRT_T0_
0011a3b8 W _ZSt7forwardI16NESTED_FILE_INFOEOT_RNSt16remove_referenceIS1_E4typeE
0011db54 W _ZSt7forwardI8Cab_InfoEOT_RNSt16remove_referenceIS1_E4typeE
00107794 W _ZSt7forwardIcEOT_RNSt16remove_referenceIS0_E4typeE
0010ffc4 W _ZSt7forwardIN7peparse13aux_symbol_f4EEOT_RNSt16remove_referenceIS2_E4typeE
0010fda6 W _ZSt7forwardIN7peparse6symbolEEOT_RNSt16remove_referenceIS2_E4typeE
0010f8de W _ZSt7forwardIN7peparse7sectionEEOT_RNSt16remove_referenceIS2_E4typeE
0010f7b8 W _ZSt7forwardIN7peparse8resourceEEOT_RNSt16remove_referenceIS2_E4typeE
0010fa9e W _ZSt7forwardIN7peparse9exportentEEOT_RNSt16remove_referenceIS2_E4typeE
0010fba6 W _ZSt7forwardIN7peparse9importentEEOT_RNSt16remove_referenceIS2_E4typeE
001021ae W _ZSt7forwardINSt7__cxx1112basic_stringIcSt11char_traitsIcESaIcEEEEOT_RNSt16remove_referenceIS6_E4typeE
00102b32 W _ZSt7forwardIPKcEOT_RNSt16remove_referenceIS2_E4typeE
0010268c W _ZSt7forwardIRA15_KcEOT_RNSt16remove_referenceIS3_E4typeE
00102232 W _ZSt7forwardIRA19_KcEOT_RNSt16remove_referenceIS3_E4typeE
001027f1 W _ZSt7forwardIRA22_KcEOT_RNSt16remove_referenceIS3_E4typeE
00102abb W _ZSt7forwardIRA23_KcEOT_RNSt16remove_referenceIS3_E4typeE
00102527 W _ZSt7forwardIRA24_KcEOT_RNSt16remove_referenceIS3_E4typeE
00102956 W _ZSt7forwardIRA25_KcEOT_RNSt16remove_referenceIS3_E4typeE
0010277a W _ZSt7forwardIRA26_KcEOT_RNSt16remove_referenceIS3_E4typeE
001028df W _ZSt7forwardIRA27_KcEOT_RNSt16remove_referenceIS3_E4typeE
0010234b W _ZSt7forwardIRA28_KcEOT_RNSt16remove_referenceIS3_E4typeE
00102439 W _ZSt7forwardIRA29_KcEOT_RNSt16remove_referenceIS3_E4typeE
001024b0 W _ZSt7forwardIRA30_KcEOT_RNSt16remove_referenceIS3_E4typeE
001022d4 W _ZSt7forwardIRA31_KcEOT_RNSt16remove_referenceIS3_E4typeE
001023c2 W _ZSt7forwardIRA32_KcEOT_RNSt16remove_referenceIS3_E4typeE
00102703 W _ZSt7forwardIRA33_KcEOT_RNSt16remove_referenceIS3_E4typeE
00102868 W _ZSt7forwardIRA37_KcEOT_RNSt16remove_referenceIS3_E4typeE
001029cd W _ZSt7forwardIRA39_KcEOT_RNSt16remove_referenceIS3_E4typeE
00102a44 W _ZSt7forwardIRA40_KcEOT_RNSt16remove_referenceIS3_E4typeE
0010259e W _ZSt7forwardIRA41_KcEOT_RNSt16remove_referenceIS3_E4typeE
00102615 W _ZSt7forwardIRA53_KcEOT_RNSt16remove_referenceIS3_E4typeE
00119caa W _ZSt7forwardIRK16NESTED_FILE_INFOEOT_RNSt16remove_referenceIS3_E4typeE
0011cc06 W _ZSt7forwardIRK8Cab_InfoEOT_RNSt16remove_referenceIS3_E4typeE
00105a38 W _ZSt7forwardIRKN7peparse10rich_entryEEOT_RNSt16remove_referenceIS4_E4typeE
00106768 W _ZSt7forwardIRKN7peparse13aux_symbol_f1EEOT_RNSt16remove_referenceIS4_E4typeE
00106952 W _ZSt7forwardIRKN7peparse13aux_symbol_f2EEOT_RNSt16remove_referenceIS4_E4typeE
00106b42 W _ZSt7forwardIRKN7peparse13aux_symbol_f3EEOT_RNSt16remove_referenceIS4_E4typeE
00106d32 W _ZSt7forwardIRKN7peparse13aux_symbol_f4EEOT_RNSt16remove_referenceIS4_E4typeE
00106f1c W _ZSt7forwardIRKN7peparse13aux_symbol_f5EEOT_RNSt16remove_referenceIS4_E4typeE
00105e2d W _ZSt7forwardIRKN7peparse5relocEEOT_RNSt16remove_referenceIS4_E4typeE
0010657e W _ZSt7forwardIRKN7peparse6symbolEEOT_RNSt16remove_referenceIS4_E4typeE
0010583e W _ZSt7forwardIRKN7peparse7sectionEEOT_RNSt16remove_referenceIS4_E4typeE
00105636 W _ZSt7forwardIRKN7peparse8resourceEEOT_RNSt16remove_referenceIS4_E4typeE
00105c28 W _ZSt7forwardIRKN7peparse9exportentEEOT_RNSt16remove_referenceIS4_E4typeE
00106084 W _ZSt7forwardIRKN7peparse9importentEEOT_RNSt16remove_referenceIS4_E4typeE
00102116 W _ZSt7forwardIRKNSt7__cxx1112basic_stringIcSt11char_traitsIcESaIcEEEEOT_RNSt16remove_referenceIS8_E4typeE
00107afe W _ZSt7forwardIRKSt4pairIKtKNSt7__cxx1112basic_stringIcSt11char_traitsIcESaIcEEEEEOT_RNSt16remove_referenceISC_E4typeE
0010792c W _ZSt7forwardIRKSt4pairIKtNSt7__cxx1112basic_stringIcSt11char_traitsIcESaIcEEEEEOT_RNSt16remove_referenceISB_E4typeE
0010d0fd W _ZSt7forwardIRPSt13_Rb_tree_nodeISt4pairIKtKNSt7__cxx1112basic_stringIcSt11char_traitsIcESaIcEEEEEEOT_RNSt16remove_referenceISE_E4typeE
0010ce17 W _ZSt7forwardIRPSt13_Rb_tree_nodeISt4pairIKtNSt7__cxx1112basic_stringIcSt11char_traitsIcESaIcEEEEEEOT_RNSt16remove_referenceISD_E4typeE
0010aa5a W _ZSt7forwardIRPSt18_Rb_tree_node_baseEOT_RNSt16remove_referenceIS3_E4typeE
0010210e W _ZSt7forwardItEOT_RNSt16remove_referenceIS0_E4typeE
00193010 W _ZSt7getlineIcSt11char_traitsIcESaIcEERSt13basic_istreamIT_T0_ES7_RNSt7__cxx1112basic_stringIS4_S5_T1_EE
0021f1f0 T _ZSt7getlineIcSt11char_traitsIcESaIcEERSt13basic_istreamIT_T0_ES7_RNSt7__cxx1112basic_stringIS4_S5_T1_EES4_
00213e20 W _ZSt7getlineIcSt11char_traitsIcESaIcEERSt13basic_istreamIT_T0_ES7_RSbIS4_S5_T1_E
00214e10 T _ZSt7getlineIcSt11char_traitsIcESaIcEERSt13basic_istreamIT_T0_ES7_RSbIS4_S5_T1_ES4_
00193520 W _ZSt7getlineIwSt11char_traitsIwESaIwEERSt13basic_istreamIT_T0_ES7_RNSt7__cxx1112basic_stringIS4_S5_T1_EE
0021f560 T _ZSt7getlineIwSt11char_traitsIwESaIwEERSt13basic_istreamIT_T0_ES7_RNSt7__cxx1112basic_stringIS4_S5_T1_EES4_
0022b920 W _ZSt7getlineIwSt11char_traitsIwESaIwEERSt13basic_istreamIT_T0_ES7_RSbIS4_S5_T1_E
00215150 T _ZSt7getlineIwSt11char_traitsIwESaIwEERSt13basic_istreamIT_T0_ES7_RSbIS4_S5_T1_ES4_
00244364 R _ZSt7nothrow
0011c7af W _ZSt7replaceIN9__gnu_cxx17__normal_iteratorIPcNSt7__cxx1112basic_stringIcSt11char_traitsIcESaIcEEEEEcEvT_SA_RKT0_SD_
001e6870 W _ZSt7setfillIcESt8_SetfillIT_ES1_
001e6e90 W _ZSt7setfillIwESt8_SetfillIT_ES1_
0011a233 W _ZSt8_DestroyI16NESTED_FILE_INFOEvPT_
0011d7cb W _ZSt8_DestroyI8Cab_InfoEvPT_
0010d9c3 W _ZSt8_DestroyIN7peparse13aux_symbol_f4EEvPT_
0010e472 W _ZSt8_DestroyIN7peparse6symbolEEvPT_
0010e3d4 W _ZSt8_DestroyIN7peparse7sectionEEvPT_
0010e3fa W _ZSt8_DestroyIN7peparse8resourceEEvPT_
0010e44c W _ZSt8_DestroyIN7peparse9exportentEEvPT_
0010e420 W _ZSt8_DestroyIN7peparse9importentEEvPT_
0011d807 W _ZSt8_DestroyINSt7__cxx1112basic_stringIcSt11char_traitsIcESaIcEEEEvPT_
00119f0a W _ZSt8_DestroyIP16NESTED_FILE_INFOEvT_S2_
00119c78 W _ZSt8_DestroyIP16NESTED_FILE_INFOS0_EvT_S2_RSaIT0_E
0011ce78 W _ZSt8_DestroyIP8Cab_InfoEvT_S2_
0011c89c W _ZSt8_DestroyIP8Cab_InfoS0_EvT_S2_RSaIT0_E
0010777a W _ZSt8_DestroyIPccEvT_S1_RSaIT0_E
0010a6cc W _ZSt8_DestroyIPcEvT_S1_
0010c95d W _ZSt8_DestroyIPhEvT_S1_
0010a4b4 W _ZSt8_DestroyIPhhEvT_S1_RSaIT0_E
0010a16f W _ZSt8_DestroyIPN7peparse10rich_entryEEvT_S3_
00107182 W _ZSt8_DestroyIPN7peparse10rich_entryES1_EvT_S3_RSaIT0_E
0010910a W _ZSt8_DestroyIPN7peparse13aux_symbol_f1EEvT_S3_
00106306 W _ZSt8_DestroyIPN7peparse13aux_symbol_f1ES1_EvT_S3_RSaIT0_E
00109194 W _ZSt8_DestroyIPN7peparse13aux_symbol_f2EEvT_S3_
0010639c W _ZSt8_DestroyIPN7peparse13aux_symbol_f2ES1_EvT_S3_RSaIT0_E
0010921e W _ZSt8_DestroyIPN7peparse13aux_symbol_f3EEvT_S3_
00106432 W _ZSt8_DestroyIPN7peparse13aux_symbol_f3ES1_EvT_S3_RSaIT0_E
001092a8 W _ZSt8_DestroyIPN7peparse13aux_symbol_f4EEvT_S3_
001064ce W _ZSt8_DestroyIPN7peparse13aux_symbol_f4ES1_EvT_S3_RSaIT0_E
00109332 W _ZSt8_DestroyIPN7peparse13aux_symbol_f5EEvT_S3_
00106564 W _ZSt8_DestroyIPN7peparse13aux_symbol_f5ES1_EvT_S3_RSaIT0_E
0010a2ef W _ZSt8_DestroyIPN7peparse5relocEEvT_S3_
001073f2 W _ZSt8_DestroyIPN7peparse5relocES1_EvT_S3_RSaIT0_E
0010a3bb W _ZSt8_DestroyIPN7peparse6symbolEEvT_S3_
0010752a W _ZSt8_DestroyIPN7peparse6symbolES1_EvT_S3_RSaIT0_E
0010a1be W _ZSt8_DestroyIPN7peparse7sectionEEvT_S3_
0010721e W _ZSt8_DestroyIPN7peparse7sectionES1_EvT_S3_RSaIT0_E
0010a223 W _ZSt8_DestroyIPN7peparse8resourceEEvT_S3_
001072ba W _ZSt8_DestroyIPN7peparse8resourceES1_EvT_S3_RSaIT0_E
0010a355 W _ZSt8_DestroyIPN7peparse9exportentEEvT_S3_
0010748e W _ZSt8_DestroyIPN7peparse9exportentES1_EvT_S3_RSaIT0_E
0010a289 W _ZSt8_DestroyIPN7peparse9importentEEvT_S3_
00107356 W _ZSt8_DestroyIPN7peparse9importentES1_EvT_S3_RSaIT0_E
0011cf02 W _ZSt8_DestroyIPNSt7__cxx1112basic_stringIcSt11char_traitsIcESaIcEEEEvT_S7_
0011c950 W _ZSt8_DestroyIPNSt7__cxx1112basic_stringIcSt11char_traitsIcESaIcEEES5_EvT_S7_RSaIT0_E
00110aa5 W _ZSt8distanceIN9__gnu_cxx17__normal_iteratorIPcSt6vectorIcSaIcEEEEENSt15iterator_traitsIT_E15difference_typeES8_S8_
0011ef63 W _ZSt8distanceIN9__gnu_cxx17__normal_iteratorIPKNSt7__cxx1112basic_stringIcSt11char_traitsIcESaIcEEESt6vectorIS7_SaIS7_EEEEENSt15iterator_traitsIT_E15difference_typeESF_SF_
0010c977 W _ZSt8distanceIPhENSt15iterator_traitsIT_E15difference_typeES2_S2_
0010b6c7 W _ZSt9addressofIDsEPT_RS0_
0010e857 W _ZSt9addressofIKDsEPT_RS1_
0010e5a2 W _ZSt9__advanceIPhiEvRT_T0_St26random_access_iterator_tag
0011f016 W _ZSt9__find_ifIN9__gnu_cxx17__normal_iteratorIPKNSt7__cxx1112basic_stringIcSt11char_traitsIcESaIcEEESt6vectorIS7_SaIS7_EEEENS0_5__ops16_Iter_equals_valIS8_EEET_SH_SH_T0_
0011f09b W _ZSt9__find_ifIN9__gnu_cxx17__normal_iteratorIPKNSt7__cxx1112basic_stringIcSt11char_traitsIcESaIcEEESt6vectorIS7_SaIS7_EEEENS0_5__ops16_Iter_equals_valIS8_EEET_SH_SH_T0_St26random_access_iterator_tag
0011c998 W _ZSt9__find_ifIN9__gnu_cxx17__normal_iteratorIPNSt7__cxx1112basic_stringIcSt11char_traitsIcESaIcEEESt6vectorIS7_SaIS7_EEEENS0_5__ops16_Iter_equals_valIKS7_EEET_SH_SH_T0_
0011cf35 W _ZSt9__find_ifIN9__gnu_cxx17__normal_iteratorIPNSt7__cxx1112basic_stringIcSt11char_traitsIcESaIcEEESt6vectorIS7_SaIS7_EEEENS0_5__ops16_Iter_equals_valIKS7_EEET_SH_SH_T0_St26random_access_iterator_tag
0010527c W _ZSt9__find_ifIPhN9__gnu_cxx5__ops16_Iter_equals_valIKiEEET_S6_S6_T0_
00107e59 W _ZSt9__find_ifIPhN9__gnu_cxx5__ops16_Iter_equals_valIKiEEET_S6_S6_T0_St26random_access_iterator_tag
001c5a10 W _ZSt9has_facetINSt7__cxx1110moneypunctIcLb0EEEEbRKSt6locale
001b3590 W _ZSt9has_facetINSt7__cxx1110moneypunctIwLb0EEEEbRKSt6locale
001c5950 W _ZSt9has_facetINSt7__cxx117collateIcEEEbRKSt6locale
001b34d0 W _ZSt9has_facetINSt7__cxx117collateIwEEEbRKSt6locale
001c5b90 W _ZSt9has_facetINSt7__cxx118messagesIcEEEbRKSt6locale
001b3710 W _ZSt9has_facetINSt7__cxx118messagesIwEEEbRKSt6locale
001c59b0 W _ZSt9has_facetINSt7__cxx118numpunctIcEEEbRKSt6locale
001b3530 W _ZSt9has_facetINSt7__cxx118numpunctIwEEEbRKSt6locale
001c5b30 W _ZSt9has_facetINSt7__cxx118time_getIcSt19istreambuf_iteratorIcSt11char_traitsIcEEEEEbRKSt6locale
001b36b0 W _ZSt9has_facetINSt7__cxx118time_getIwSt19istreambuf_iteratorIwSt11char_traitsIwEEEEEbRKSt6locale
001c5ad0 W _ZSt9has_facetINSt7__cxx119money_getIcSt19istreambuf_iteratorIcSt11char_traitsIcEEEEEbRKSt6locale
001b3650 W _ZSt9has_facetINSt7__cxx119money_getIwSt19istreambuf_iteratorIwSt11char_traitsIwEEEEEbRKSt6locale
001c5a70 W _ZSt9has_facetINSt7__cxx119money_putIcSt19ostreambuf_iteratorIcSt11char_traitsIcEEEEEbRKSt6locale
001b35f0 W _ZSt9has_facetINSt7__cxx119money_putIwSt19ostreambuf_iteratorIwSt11char_traitsIwEEEEEbRKSt6locale
0019b560 W _ZSt9has_facetISt10moneypunctIcLb0EEEbRKSt6locale
001f8440 W _ZSt9has_facetISt10moneypunctIwLb0EEEbRKSt6locale
0019b680 W _ZSt9has_facetISt11__timepunctIcEEbRKSt6locale
001f8560 W _ZSt9has_facetISt11__timepunctIwEEbRKSt6locale
0019b320 W _ZSt9has_facetISt5ctypeIcEEbRKSt6locale
001f8200 W _ZSt9has_facetISt5ctypeIwEEbRKSt6locale
0019b380 W _ZSt9has_facetISt7codecvtIcc11__mbstate_tEEbRKSt6locale
001f8260 W _ZSt9has_facetISt7codecvtIwc11__mbstate_tEEbRKSt6locale
0019b3e0 W _ZSt9has_facetISt7collateIcEEbRKSt6locale
001f82c0 W _ZSt9has_facetISt7collateIwEEbRKSt6locale
0019b500 W _ZSt9has_facetISt7num_getIcSt19istreambuf_iteratorIcSt11char_traitsIcEEEEbRKSt6locale
001f83e0 W _ZSt9has_facetISt7num_getIwSt19istreambuf_iteratorIwSt11char_traitsIwEEEEbRKSt6locale
0019b4a0 W _ZSt9has_facetISt7num_putIcSt19ostreambuf_iteratorIcSt11char_traitsIcEEEEbRKSt6locale
001f8380 W _ZSt9has_facetISt7num_putIwSt19ostreambuf_iteratorIwSt11char_traitsIwEEEEbRKSt6locale
0019b7a0 W _ZSt9has_facetISt8messagesIcEEbRKSt6locale
001f8680 W _ZSt9has_facetISt8messagesIwEEbRKSt6locale
0019b440 W _ZSt9has_facetISt8numpunctIcEEbRKSt6locale
001f8320 W _ZSt9has_facetISt8numpunctIwEEbRKSt6locale
0019b740 W _ZSt9has_facetISt8time_getIcSt19istreambuf_iteratorIcSt11char_traitsIcEEEEbRKSt6locale
001f8620 W _ZSt9has_facetISt8time_getIwSt19istreambuf_iteratorIwSt11char_traitsIwEEEEbRKSt6locale
0019b6e0 W _ZSt9has_facetISt8time_putIcSt19ostreambuf_iteratorIcSt11char_traitsIcEEEEbRKSt6locale
001f85c0 W _ZSt9has_facetISt8time_putIwSt19ostreambuf_iteratorIwSt11char_traitsIwEEEEbRKSt6locale
0019b620 W _ZSt9has_facetISt9money_getIcSt19istreambuf_iteratorIcSt11char_traitsIcEEEEbRKSt6locale
001f8500 W _ZSt9has_facetISt9money_getIwSt19istreambuf_iteratorIwSt11char_traitsIwEEEEbRKSt6locale
0019b5c0 W _ZSt9has_facetISt9money_putIcSt19ostreambuf_iteratorIcSt11char_traitsIcEEEEbRKSt6locale
001f84a0 W _ZSt9has_facetISt9money_putIwSt19ostreambuf_iteratorIwSt11char_traitsIwEEEEbRKSt6locale
0010ea19 W _ZSt9iter_swapIN9__gnu_cxx17__normal_iteratorIPN7peparse7sectionESt6vectorIS3_SaIS3_EEEES8_EvT_T0_
00102694 W _ZSt9make_pairItRA15_KcESt4pairINSt17__decay_and_stripIT_E6__typeENS4_IT0_E6__typeEEOS5_OS8_
00102265 W _ZSt9make_pairItRA19_KcESt4pairINSt17__decay_and_stripIT_E6__typeENS4_IT0_E6__typeEEOS5_OS8_
001027f9 W _ZSt9make_pairItRA22_KcESt4pairINSt17__decay_and_stripIT_E6__typeENS4_IT0_E6__typeEEOS5_OS8_
00102ac3 W _ZSt9make_pairItRA23_KcESt4pairINSt17__decay_and_stripIT_E6__typeENS4_IT0_E6__typeEEOS5_OS8_
0010252f W _ZSt9make_pairItRA24_KcESt4pairINSt17__decay_and_stripIT_E6__typeENS4_IT0_E6__typeEEOS5_OS8_
0010295e W _ZSt9make_pairItRA25_KcESt4pairINSt17__decay_and_stripIT_E6__typeENS4_IT0_E6__typeEEOS5_OS8_
00102782 W _ZSt9make_pairItRA26_KcESt4pairINSt17__decay_and_stripIT_E6__typeENS4_IT0_E6__typeEEOS5_OS8_
001028e7 W _ZSt9make_pairItRA27_KcESt4pairINSt17__decay_and_stripIT_E6__typeENS4_IT0_E6__typeEEOS5_OS8_
00102353 W _ZSt9make_pairItRA28_KcESt4pairINSt17__decay_and_stripIT_E6__typeENS4_IT0_E6__typeEEOS5_OS8_
00102441 W _ZSt9make_pairItRA29_KcESt4pairINSt17__decay_and_stripIT_E6__typeENS4_IT0_E6__typeEEOS5_OS8_
001024b8 W _ZSt9make_pairItRA30_KcESt4pairINSt17__decay_and_stripIT_E6__typeENS4_IT0_E6__typeEEOS5_OS8_
001022dc W _ZSt9make_pairItRA31_KcESt4pairINSt17__decay_and_stripIT_E6__typeENS4_IT0_E6__typeEEOS5_OS8_
001023ca W _ZSt9make_pairItRA32_KcESt4pairINSt17__decay_and_stripIT_E6__typeENS4_IT0_E6__typeEEOS5_OS8_
0010270b W _ZSt9make_pairItRA33_KcESt4pairINSt17__decay_and_stripIT_E6__typeENS4_IT0_E6__typeEEOS5_OS8_
00102870 W _ZSt9make_pairItRA37_KcESt4pairINSt17__decay_and_stripIT_E6__typeENS4_IT0_E6__typeEEOS5_OS8_
001029d5 W _ZSt9make_pairItRA39_KcESt4pairINSt17__decay_and_stripIT_E6__typeENS4_IT0_E6__typeEEOS5_OS8_
00102a4c W _ZSt9make_pairItRA40_KcESt4pairINSt17__decay_and_stripIT_E6__typeENS4_IT0_E6__typeEEOS5_OS8_
001025a6 W _ZSt9make_pairItRA41_KcESt4pairINSt17__decay_and_stripIT_E6__typeENS4_IT0_E6__typeEEOS5_OS8_
0010261d W _ZSt9make_pairItRA53_KcESt4pairINSt17__decay_and_stripIT_E6__typeENS4_IT0_E6__typeEEOS5_OS8_
0010216f W _ZSt9make_pairItRKNSt7__cxx1112basic_stringIcSt11char_traitsIcESaIcEEEESt4pairINSt17__decay_and_stripIT_E6__typeENS9_IT0_E6__typeEEOSA_OSD_
0018f3f0 T _ZSt9terminatev
001c5770 W _ZSt9use_facetINSt7__cxx1110moneypunctIcLb0EEEERKT_RKSt6locale
001c5710 W _ZSt9use_facetINSt7__cxx1110moneypunctIcLb1EEEERKT_RKSt6locale
001b32f0 W _ZSt9use_facetINSt7__cxx1110moneypunctIwLb0EEEERKT_RKSt6locale
001b3290 W _ZSt9use_facetINSt7__cxx1110moneypunctIwLb1EEEERKT_RKSt6locale
001c5650 W _ZSt9use_facetINSt7__cxx117collateIcEEERKT_RKSt6locale
001b31d0 W _ZSt9use_facetINSt7__cxx117collateIwEEERKT_RKSt6locale
001c58f0 W _ZSt9use_facetINSt7__cxx118messagesIcEEERKT_RKSt6locale
001b3470 W _ZSt9use_facetINSt7__cxx118messagesIwEEERKT_RKSt6locale
001c56b0 W _ZSt9use_facetINSt7__cxx118numpunctIcEEERKT_RKSt6locale
001b3230 W _ZSt9use_facetINSt7__cxx118numpunctIwEEERKT_RKSt6locale
001c5890 W _ZSt9use_facetINSt7__cxx118time_getIcSt19istreambuf_iteratorIcSt11char_traitsIcEEEEERKT_RKSt6locale
001b3410 W _ZSt9use_facetINSt7__cxx118time_getIwSt19istreambuf_iteratorIwSt11char_traitsIwEEEEERKT_RKSt6locale
001c5830 W _ZSt9use_facetINSt7__cxx119money_getIcSt19istreambuf_iteratorIcSt11char_traitsIcEEEEERKT_RKSt6locale
001b33b0 W _ZSt9use_facetINSt7__cxx119money_getIwSt19istreambuf_iteratorIwSt11char_traitsIwEEEEERKT_RKSt6locale
001c57d0 W _ZSt9use_facetINSt7__cxx119money_putIcSt19ostreambuf_iteratorIcSt11char_traitsIcEEEEERKT_RKSt6locale
001b3350 W _ZSt9use_facetINSt7__cxx119money_putIwSt19ostreambuf_iteratorIwSt11char_traitsIwEEEEERKT_RKSt6locale
0019a8c0 W _ZSt9use_facetISt10moneypunctIcLb0EEERKT_RKSt6locale
0019a290 W _ZSt9use_facetISt10moneypunctIcLb1EEERKT_RKSt6locale
001f7800 W _ZSt9use_facetISt10moneypunctIwLb0EEERKT_RKSt6locale
001f71a0 W _ZSt9use_facetISt10moneypunctIwLb1EEERKT_RKSt6locale
0019afb0 W _ZSt9use_facetISt11__timepunctIcEERKT_RKSt6locale
001f7f20 W _ZSt9use_facetISt11__timepunctIwEERKT_RKSt6locale
001995a0 W _ZSt9use_facetISt5ctypeIcEERKT_RKSt6locale
001f6650 W _ZSt9use_facetISt5ctypeIwEERKT_RKSt6locale
00199c70 W _ZSt9use_facetISt7codecvtIcc11__mbstate_tEERKT_RKSt6locale
001f6b70 W _ZSt9use_facetISt7codecvtIwc11__mbstate_tEERKT_RKSt6locale
00199cd0 W _ZSt9use_facetISt7collateIcEERKT_RKSt6locale
001f6bd0 W _ZSt9use_facetISt7collateIwEERKT_RKSt6locale
0019a230 W _ZSt9use_facetISt7num_getIcSt19istreambuf_iteratorIcSt11char_traitsIcEEEERKT_RKSt6locale
001f7140 W _ZSt9use_facetISt7num_getIwSt19istreambuf_iteratorIwSt11char_traitsIwEEEERKT_RKSt6locale
0019a1d0 W _ZSt9use_facetISt7num_putIcSt19ostreambuf_iteratorIcSt11char_traitsIcEEEERKT_RKSt6locale
001f70e0 W _ZSt9use_facetISt7num_putIwSt19ostreambuf_iteratorIwSt11char_traitsIwEEEERKT_RKSt6locale
0019b2c0 W _ZSt9use_facetISt8messagesIcEERKT_RKSt6locale
001f81a0 W _ZSt9use_facetISt8messagesIwEERKT_RKSt6locale
00199d30 W _ZSt9use_facetISt8numpunctIcEERKT_RKSt6locale
001f6c30 W _ZSt9use_facetISt8numpunctIwEERKT_RKSt6locale
0019b260 W _ZSt9use_facetISt8time_getIcSt19istreambuf_iteratorIcSt11char_traitsIcEEEERKT_RKSt6locale
001f8140 W _ZSt9use_facetISt8time_getIwSt19istreambuf_iteratorIwSt11char_traitsIwEEEERKT_RKSt6locale
0019b200 W _ZSt9use_facetISt8time_putIcSt19ostreambuf_iteratorIcSt11char_traitsIcEEEERKT_RKSt6locale
001f80e0 W _ZSt9use_facetISt8time_putIwSt19ostreambuf_iteratorIwSt11char_traitsIwEEEERKT_RKSt6locale
0019af50 W _ZSt9use_facetISt9money_getIcSt19istreambuf_iteratorIcSt11char_traitsIcEEEERKT_RKSt6locale
001f7ec0 W _ZSt9use_facetISt9money_getIwSt19istreambuf_iteratorIwSt11char_traitsIwEEEERKT_RKSt6locale
0019aef0 W _ZSt9use_facetISt9money_putIcSt19ostreambuf_iteratorIcSt11char_traitsIcEEEERKT_RKSt6locale
001f7e60 W _ZSt9use_facetISt9money_putIwSt19ostreambuf_iteratorIwSt11char_traitsIwEEEERKT_RKSt6locale
000eb62a W _ZStaNRSt13_Ios_FmtflagsS_
000eb5e4 W _ZStanSt13_Ios_FmtflagsS_
000eb5fa W _ZStcoSt13_Ios_Fmtflags
00121223 W _ZSteqI14CUnpackManagerEbDnRKSt10shared_ptrIT_E
00104a7e W _ZSteqIcEN9__gnu_cxx11__enable_ifIXsrSt9__is_charIT_E7__valueEbE6__typeERKNSt7__cxx1112basic_stringIS3_St11char_traitsIS3_ESaIS3_EEESE_
00113e62 W _ZSteqIcSt11char_traitsIcESaIcEEbPKT_RKNSt7__cxx1112basic_stringIS3_T0_T1_EE
00105820 W _ZSteqIcSt11char_traitsIcESaIcEEbRKNSt7__cxx1112basic_stringIT_T0_T1_EEPKS5_
0011a3fc W _ZSteqIP16NESTED_FILE_INFOEbRKSt13move_iteratorIT_ES6_
0011dc77 W _ZSteqIP8Cab_InfoEbRKSt13move_iteratorIT_ES6_
00110999 W _ZSteqIPN7peparse13aux_symbol_f4EEbRKSt13move_iteratorIT_ES7_
00110756 W _ZSteqIPN7peparse6symbolEEbRKSt13move_iteratorIT_ES7_
00110366 W _ZSteqIPN7peparse7sectionEEbRKSt13move_iteratorIT_ES7_
00110337 W _ZSteqIPN7peparse8resourceEEbRKSt13move_iteratorIT_ES7_
0011045e W _ZSteqIPN7peparse9exportentEEbRKSt13move_iteratorIT_ES7_
001104eb W _ZSteqIPN7peparse9importentEEbRKSt13move_iteratorIT_ES7_
0011dc48 W _ZSteqIPNSt7__cxx1112basic_stringIcSt11char_traitsIcESaIcEEEEbRKSt13move_iteratorIT_ESB_
001e8670 W _ZStlsIcSt11char_traitsIcEERSt13basic_ostreamIT_T0_ES6_St12_Setiosflags
001e8700 W _ZStlsIcSt11char_traitsIcEERSt13basic_ostreamIT_T0_ES6_St13_Setprecision
001e8690 W _ZStlsIcSt11char_traitsIcEERSt13basic_ostreamIT_T0_ES6_St14_Resetiosflags
001e8720 W _ZStlsIcSt11char_traitsIcEERSt13basic_ostreamIT_T0_ES6_St5_Setw
001e86b0 W _ZStlsIcSt11char_traitsIcEERSt13basic_ostreamIT_T0_ES6_St8_Setbase
001e85f0 W _ZStlsIcSt11char_traitsIcEERSt13basic_ostreamIT_T0_ES6_St8_SetfillIS3_E
00192fe0 W _ZStlsIcSt11char_traitsIcESaIcEERSt13basic_ostreamIT_T0_ES7_RKNSt7__cxx1112basic_stringIS4_S5_T1_EE
00213df0 W _ZStlsIcSt11char_traitsIcESaIcEERSt13basic_ostreamIT_T0_ES7_RKSbIS4_S5_T1_E
001e8c20 W _ZStlsISt11char_traitsIcEERSt13basic_ostreamIcT_ES5_a
001e8ba0 W _ZStlsISt11char_traitsIcEERSt13basic_ostreamIcT_ES5_c
001e8bd0 W _ZStlsISt11char_traitsIcEERSt13basic_ostreamIcT_ES5_h
001e8d30 W _ZStlsISt11char_traitsIcEERSt13basic_ostreamIcT_ES5_PKa
001e8c70 W _ZStlsISt11char_traitsIcEERSt13basic_ostreamIcT_ES5_PKc
